SF:/home/loric/src/skim/src/bin/main.rs
FN:356,_RNCNCNvCsj6flplV85ZE_2sk6filters_00B5_
FN:41,_RNCNvCsj6flplV85ZE_2sk10parse_args0B3_
FN:73,_RNCNvCsj6flplV85ZE_2sk4main0B3_
FN:84,_RNCNvCsj6flplV85ZE_2sk4mains_0B3_
FN:340,_RNCNvCsj6flplV85ZE_2sk6filter0B3_
FN:363,_RNCNvCsj6flplV85ZE_2sk6filters0_0B3_
FN:356,_RNCNvCsj6flplV85ZE_2sk6filters_0B3_
FN:30,_RNvCsj6flplV85ZE_2sk10parse_args
FN:272,_RNvCsj6flplV85ZE_2sk21write_history_to_file
FN:72,_RNvCsj6flplV85ZE_2sk4main
FN:312,_RNvCsj6flplV85ZE_2sk6filter
FN:173,_RNvCsj6flplV85ZE_2sk7sk_main
FN:60,_RNvXCsj6flplV85ZE_2skNtB2_11SkMainErrorINtNtCs3IJltBbNwOJ_4core7convert4FromNtNtNtCs5U62srxYbFV_3std2io5error5ErrorE4from
FN:66,_RNvXs_Csj6flplV85ZE_2skNtB4_11SkMainErrorINtNtCs3IJltBbNwOJ_4core7convert4FromNtNtCs6o9uXgfffF5_12clap_builder5error5ErrorE4from
FN:356,_RNCNCNvCs7lWjSsce3cw_2sk6filters_00B5_
FN:41,_RNCNvCs7lWjSsce3cw_2sk10parse_args0B3_
FN:73,_RNCNvCs7lWjSsce3cw_2sk4main0B3_
FN:84,_RNCNvCs7lWjSsce3cw_2sk4mains_0B3_
FN:340,_RNCNvCs7lWjSsce3cw_2sk6filter0B3_
FN:363,_RNCNvCs7lWjSsce3cw_2sk6filters0_0B3_
FN:356,_RNCNvCs7lWjSsce3cw_2sk6filters_0B3_
FN:30,_RNvCs7lWjSsce3cw_2sk10parse_args
FN:272,_RNvCs7lWjSsce3cw_2sk21write_history_to_file
FN:72,_RNvCs7lWjSsce3cw_2sk4main
FN:312,_RNvCs7lWjSsce3cw_2sk6filter
FN:173,_RNvCs7lWjSsce3cw_2sk7sk_main
FN:60,_RNvXCs7lWjSsce3cw_2skNtB2_11SkMainErrorINtNtCs3IJltBbNwOJ_4core7convert4FromNtNtNtCs5U62srxYbFV_3std2io5error5ErrorE4from
FN:66,_RNvXs_Cs7lWjSsce3cw_2skNtB4_11SkMainErrorINtNtCs3IJltBbNwOJ_4core7convert4FromNtNtCs6o9uXgfffF5_12clap_builder5error5ErrorE4from
FNDA:0,_RNCNCNvCsj6flplV85ZE_2sk6filters_00B5_
FNDA:0,_RNCNvCsj6flplV85ZE_2sk10parse_args0B3_
FNDA:0,_RNCNvCsj6flplV85ZE_2sk4main0B3_
FNDA:0,_RNCNvCsj6flplV85ZE_2sk4mains_0B3_
FNDA:0,_RNCNvCsj6flplV85ZE_2sk6filter0B3_
FNDA:0,_RNCNvCsj6flplV85ZE_2sk6filters0_0B3_
FNDA:0,_RNCNvCsj6flplV85ZE_2sk6filters_0B3_
FNDA:0,_RNvCsj6flplV85ZE_2sk10parse_args
FNDA:0,_RNvCsj6flplV85ZE_2sk21write_history_to_file
FNDA:0,_RNvCsj6flplV85ZE_2sk4main
FNDA:0,_RNvCsj6flplV85ZE_2sk6filter
FNDA:0,_RNvCsj6flplV85ZE_2sk7sk_main
FNDA:0,_RNvXCsj6flplV85ZE_2skNtB2_11SkMainErrorINtNtCs3IJltBbNwOJ_4core7convert4FromNtNtNtCs5U62srxYbFV_3std2io5error5ErrorE4from
FNDA:0,_RNvXs_Csj6flplV85ZE_2skNtB4_11SkMainErrorINtNtCs3IJltBbNwOJ_4core7convert4FromNtNtCs6o9uXgfffF5_12clap_builder5error5ErrorE4from
FNDA:0,_RNCNCNvCs7lWjSsce3cw_2sk6filters_00B5_
FNDA:0,_RNCNvCs7lWjSsce3cw_2sk10parse_args0B3_
FNDA:0,_RNCNvCs7lWjSsce3cw_2sk4main0B3_
FNDA:0,_RNCNvCs7lWjSsce3cw_2sk4mains_0B3_
FNDA:0,_RNCNvCs7lWjSsce3cw_2sk6filter0B3_
FNDA:0,_RNCNvCs7lWjSsce3cw_2sk6filters0_0B3_
FNDA:0,_RNCNvCs7lWjSsce3cw_2sk6filters_0B3_
FNDA:0,_RNvCs7lWjSsce3cw_2sk10parse_args
FNDA:0,_RNvCs7lWjSsce3cw_2sk21write_history_to_file
FNDA:0,_RNvCs7lWjSsce3cw_2sk4main
FNDA:0,_RNvCs7lWjSsce3cw_2sk6filter
FNDA:0,_RNvCs7lWjSsce3cw_2sk7sk_main
FNDA:0,_RNvXCs7lWjSsce3cw_2skNtB2_11SkMainErrorINtNtCs3IJltBbNwOJ_4core7convert4FromNtNtNtCs5U62srxYbFV_3std2io5error5ErrorE4from
FNDA:0,_RNvXs_Cs7lWjSsce3cw_2skNtB4_11SkMainErrorINtNtCs3IJltBbNwOJ_4core7convert4FromNtNtCs6o9uXgfffF5_12clap_builder5error5ErrorE4from
FNF:14
FNH:0
DA:30,0
DA:31,0
DA:33,0
DA:34,0
DA:35,0
DA:36,0
DA:38,0
DA:39,0
DA:40,0
DA:41,0
DA:42,0
DA:44,0
DA:45,0
DA:46,0
DA:48,0
DA:49,0
DA:60,0
DA:61,0
DA:62,0
DA:66,0
DA:67,0
DA:68,0
DA:72,0
DA:73,0
DA:74,0
DA:76,0
DA:77,0
DA:78,0
DA:80,0
DA:82,0
DA:83,0
DA:84,0
DA:85,0
DA:86,0
DA:88,0
DA:89,0
DA:90,0
DA:91,0
DA:92,0
DA:93,0
DA:94,0
DA:95,0
DA:97,0
DA:98,0
DA:100,0
DA:101,0
DA:104,0
DA:106,0
DA:107,0
DA:109,0
DA:110,0
DA:111,0
DA:112,0
DA:113,0
DA:115,0
DA:116,0
DA:117,0
DA:118,0
DA:119,0
DA:120,0
DA:122,0
DA:123,0
DA:124,0
DA:125,0
DA:127,0
DA:128,0
DA:129,0
DA:130,0
DA:131,0
DA:132,0
DA:134,0
DA:135,0
DA:136,0
DA:137,0
DA:138,0
DA:139,0
DA:140,0
DA:141,0
DA:142,0
DA:143,0
DA:144,0
DA:145,0
DA:148,0
DA:149,0
DA:151,0
DA:152,0
DA:153,0
DA:155,0
DA:156,0
DA:157,0
DA:158,0
DA:160,0
DA:163,0
DA:164,0
DA:165,0
DA:166,0
DA:171,0
DA:173,0
DA:174,0
DA:175,0
DA:176,0
DA:178,0
DA:179,0
DA:180,0
DA:182,0
DA:183,0
DA:184,0
DA:186,0
DA:187,0
DA:188,0
DA:189,0
DA:190,0
DA:191,0
DA:192,0
DA:193,0
DA:199,0
DA:200,0
DA:203,0
DA:204,0
DA:206,0
DA:207,0
DA:210,0
DA:211,0
DA:212,0
DA:213,0
DA:215,0
DA:217,0
DA:219,0
DA:220,0
DA:221,0
DA:224,0
DA:225,0
DA:226,0
DA:228,0
DA:229,0
DA:230,0
DA:232,0
DA:233,0
DA:234,0
DA:236,0
DA:237,0
DA:238,0
DA:240,0
DA:241,0
DA:242,0
DA:243,0
DA:244,0
DA:245,0
DA:246,0
DA:247,0
DA:248,0
DA:249,0
DA:250,0
DA:251,0
DA:252,0
DA:255,0
DA:259,0
DA:260,0
DA:261,0
DA:262,0
DA:264,0
DA:265,0
DA:266,0
DA:267,0
DA:269,0
DA:270,0
DA:272,0
DA:273,0
DA:274,0
DA:275,0
DA:276,0
DA:277,0
DA:278,0
DA:280,0
DA:281,0
DA:282,0
DA:283,0
DA:284,0
DA:286,0
DA:289,0
DA:290,0
DA:292,0
DA:293,0
DA:294,0
DA:295,0
DA:296,0
DA:312,0
DA:315,0
DA:316,0
DA:317,0
DA:319,0
DA:320,0
DA:323,0
DA:324,0
DA:325,0
DA:327,0
DA:328,0
DA:329,0
DA:333,0
DA:334,0
DA:338,0
DA:340,0
DA:341,0
DA:342,0
DA:343,0
DA:345,0
DA:346,0
DA:347,0
DA:350,0
DA:351,0
DA:352,0
DA:354,0
DA:355,0
DA:356,0
DA:357,0
DA:359,0
DA:360,0
DA:361,0
DA:363,0
DA:364,0
DA:365,0
DA:366,0
DA:368,0
DA:369,0
BRF:0
BRH:0
LF:231
LH:0
end_of_record
SF:/home/loric/src/skim/src/binds.rs
FN:48,_RINvMs2_NtCs3Snzs7u97BX_4skim5bindsNtB6_6KeyMap11add_keymapsINtNtNtCs3IJltBbNwOJ_4core3str4iter5SplitcEEB8_
FN:193,_RINvNtCs3Snzs7u97BX_4skim5binds13parse_keymapsINtNtNtCs3IJltBbNwOJ_4core3str4iter5SplitcEEB4_
FN:55,_RNCINvMs2_NtCs3Snzs7u97BX_4skim5bindsNtB8_6KeyMap11add_keymapsINtNtNtCs3IJltBbNwOJ_4core3str4iter5SplitcEE0Ba_
FN:61,_RNvMs2_NtCs3Snzs7u97BX_4skim5bindsNtB5_6KeyMap4bind
FN:227,_RNvNtCs3Snzs7u97BX_4skim5binds12parse_keymap
FN:203,_RNvNtCs3Snzs7u97BX_4skim5binds18parse_action_chain
FN:73,_RNvNtCs3Snzs7u97BX_4skim5binds19get_default_key_map
FN:136,_RNvNtCs3Snzs7u97BX_4skim5binds9parse_key
FN:24,_RNvXNtCs3Snzs7u97BX_4skim5bindsNtB2_6KeyMapNtNtNtCs3IJltBbNwOJ_4core3ops5deref5Deref5deref
FN:35,_RNvXs0_NtCs3Snzs7u97BX_4skim5bindsNtB5_6KeyMapINtNtCs3IJltBbNwOJ_4core7convert4FromReE4from
FN:41,_RNvXs1_NtCs3Snzs7u97BX_4skim5bindsNtB5_6KeyMapNtNtCs3IJltBbNwOJ_4core7default7Default7default
FN:29,_RNvXs_NtCs3Snzs7u97BX_4skim5bindsNtB4_6KeyMapNtNtNtCs3IJltBbNwOJ_4core3ops5deref8DerefMut9deref_mut
FN:48,_RINvMs2_NtCs2dRlemTKIe9_4skim5bindsNtB6_6KeyMap11add_keymapsINtNtNtCs3IJltBbNwOJ_4core3str4iter5SplitcEEB8_
FN:55,_RNCINvMs2_NtCs2dRlemTKIe9_4skim5bindsNtB8_6KeyMap11add_keymapsINtNtNtCs3IJltBbNwOJ_4core3str4iter5SplitcEE0Ba_
FN:61,_RNvMs2_NtCs2dRlemTKIe9_4skim5bindsNtB5_6KeyMap4bind
FN:227,_RNvNtCs2dRlemTKIe9_4skim5binds12parse_keymap
FN:203,_RNvNtCs2dRlemTKIe9_4skim5binds18parse_action_chain
FN:73,_RNvNtCs2dRlemTKIe9_4skim5binds19get_default_key_map
FN:136,_RNvNtCs2dRlemTKIe9_4skim5binds9parse_key
FN:41,_RNvXs1_NtCs2dRlemTKIe9_4skim5bindsNtB5_6KeyMapNtNtCs3IJltBbNwOJ_4core7default7Default7default
FN:29,_RNvXs_NtCs2dRlemTKIe9_4skim5bindsNtB4_6KeyMapNtNtNtCs3IJltBbNwOJ_4core3ops5deref8DerefMut9deref_mut
FN:193,_RINvNtCs2dRlemTKIe9_4skim5binds13parse_keymapspEB4_
FN:24,_RNvXNtCs2dRlemTKIe9_4skim5bindsNtB2_6KeyMapNtNtNtCs3IJltBbNwOJ_4core3ops5deref5Deref5deref
FN:35,_RNvXs0_NtCs2dRlemTKIe9_4skim5bindsNtB5_6KeyMapINtNtCs3IJltBbNwOJ_4core7convert4FromReE4from
FNDA:0,_RINvMs2_NtCs3Snzs7u97BX_4skim5bindsNtB6_6KeyMap11add_keymapsINtNtNtCs3IJltBbNwOJ_4core3str4iter5SplitcEEB8_
FNDA:0,_RINvNtCs3Snzs7u97BX_4skim5binds13parse_keymapsINtNtNtCs3IJltBbNwOJ_4core3str4iter5SplitcEEB4_
FNDA:0,_RNCINvMs2_NtCs3Snzs7u97BX_4skim5bindsNtB8_6KeyMap11add_keymapsINtNtNtCs3IJltBbNwOJ_4core3str4iter5SplitcEE0Ba_
FNDA:0,_RNvMs2_NtCs3Snzs7u97BX_4skim5bindsNtB5_6KeyMap4bind
FNDA:0,_RNvNtCs3Snzs7u97BX_4skim5binds12parse_keymap
FNDA:0,_RNvNtCs3Snzs7u97BX_4skim5binds18parse_action_chain
FNDA:0,_RNvNtCs3Snzs7u97BX_4skim5binds19get_default_key_map
FNDA:0,_RNvNtCs3Snzs7u97BX_4skim5binds9parse_key
FNDA:0,_RNvXNtCs3Snzs7u97BX_4skim5bindsNtB2_6KeyMapNtNtNtCs3IJltBbNwOJ_4core3ops5deref5Deref5deref
FNDA:0,_RNvXs0_NtCs3Snzs7u97BX_4skim5bindsNtB5_6KeyMapINtNtCs3IJltBbNwOJ_4core7convert4FromReE4from
FNDA:0,_RNvXs1_NtCs3Snzs7u97BX_4skim5bindsNtB5_6KeyMapNtNtCs3IJltBbNwOJ_4core7default7Default7default
FNDA:0,_RNvXs_NtCs3Snzs7u97BX_4skim5bindsNtB4_6KeyMapNtNtNtCs3IJltBbNwOJ_4core3ops5deref8DerefMut9deref_mut
FNDA:0,_RINvMs2_NtCs2dRlemTKIe9_4skim5bindsNtB6_6KeyMap11add_keymapsINtNtNtCs3IJltBbNwOJ_4core3str4iter5SplitcEEB8_
FNDA:0,_RNCINvMs2_NtCs2dRlemTKIe9_4skim5bindsNtB8_6KeyMap11add_keymapsINtNtNtCs3IJltBbNwOJ_4core3str4iter5SplitcEE0Ba_
FNDA:0,_RNvMs2_NtCs2dRlemTKIe9_4skim5bindsNtB5_6KeyMap4bind
FNDA:0,_RNvNtCs2dRlemTKIe9_4skim5binds12parse_keymap
FNDA:0,_RNvNtCs2dRlemTKIe9_4skim5binds18parse_action_chain
FNDA:0,_RNvNtCs2dRlemTKIe9_4skim5binds19get_default_key_map
FNDA:0,_RNvNtCs2dRlemTKIe9_4skim5binds9parse_key
FNDA:0,_RNvXs1_NtCs2dRlemTKIe9_4skim5bindsNtB5_6KeyMapNtNtCs3IJltBbNwOJ_4core7default7Default7default
FNDA:0,_RNvXs_NtCs2dRlemTKIe9_4skim5bindsNtB4_6KeyMapNtNtNtCs3IJltBbNwOJ_4core3ops5deref8DerefMut9deref_mut
FNDA:0,_RINvNtCs2dRlemTKIe9_4skim5binds13parse_keymapspEB4_
FNDA:0,_RNvXNtCs2dRlemTKIe9_4skim5bindsNtB2_6KeyMapNtNtNtCs3IJltBbNwOJ_4core3ops5deref5Deref5deref
FNDA:0,_RNvXs0_NtCs2dRlemTKIe9_4skim5bindsNtB5_6KeyMapINtNtCs3IJltBbNwOJ_4core7convert4FromReE4from
FNF:12
FNH:0
DA:24,0
DA:25,0
DA:26,0
DA:29,0
DA:30,0
DA:31,0
DA:35,0
DA:36,0
DA:37,0
DA:41,0
DA:42,0
DA:43,0
DA:48,0
DA:49,0
DA:50,0
DA:52,0
DA:53,0
DA:54,0
DA:55,0
DA:57,0
DA:60,0
DA:61,0
DA:62,0
DA:65,0
DA:66,0
DA:67,0
DA:68,0
DA:73,0
DA:74,0
DA:76,0
DA:77,0
DA:78,0
DA:79,0
DA:80,0
DA:81,0
DA:82,0
DA:83,0
DA:84,0
DA:85,0
DA:86,0
DA:87,0
DA:88,0
DA:89,0
DA:92,0
DA:93,0
DA:94,0
DA:95,0
DA:96,0
DA:97,0
DA:98,0
DA:101,0
DA:102,0
DA:104,0
DA:105,0
DA:106,0
DA:107,0
DA:108,0
DA:109,0
DA:110,0
DA:111,0
DA:112,0
DA:113,0
DA:114,0
DA:115,0
DA:116,0
DA:117,0
DA:118,0
DA:119,0
DA:120,0
DA:121,0
DA:124,0
DA:126,0
DA:127,0
DA:128,0
DA:129,0
DA:130,0
DA:132,0
DA:133,0
DA:136,0
DA:137,0
DA:138,0
DA:139,0
DA:140,0
DA:141,0
DA:143,0
DA:144,0
DA:145,0
DA:146,0
DA:147,0
DA:148,0
DA:149,0
DA:150,0
DA:153,0
DA:154,0
DA:157,0
DA:158,0
DA:159,0
DA:160,0
DA:161,0
DA:162,0
DA:163,0
DA:164,0
DA:165,0
DA:166,0
DA:167,0
DA:169,0
DA:170,0
DA:171,0
DA:172,0
DA:173,0
DA:174,0
DA:175,0
DA:176,0
DA:177,0
DA:178,0
DA:179,0
DA:180,0
DA:181,0
DA:182,0
DA:183,0
DA:184,0
DA:185,0
DA:189,0
DA:190,0
DA:193,0
DA:194,0
DA:195,0
DA:197,0
DA:198,0
DA:199,0
DA:200,0
DA:203,0
DA:204,0
DA:205,0
DA:207,0
DA:208,0
DA:210,0
DA:211,0
DA:212,0
DA:213,0
DA:214,0
DA:215,0
DA:216,0
DA:217,0
DA:219,0
DA:220,0
DA:222,0
DA:224,0
DA:227,0
DA:228,0
DA:229,0
DA:230,0
DA:231,0
DA:232,0
DA:233,0
DA:234,0
DA:235,0
DA:236,0
DA:237,0
BRF:0
BRH:0
LF:160
LH:0
end_of_record
SF:/home/loric/src/skim/src/engine/all.rs
FN:20,_RNvMNtNtCs3Snzs7u97BX_4skim6engine3allNtB2_14MatchAllEngine12rank_builder
FN:25,_RNvMNtNtCs3Snzs7u97BX_4skim6engine3allNtB2_14MatchAllEngine5build
FN:14,_RNvMNtNtCs3Snzs7u97BX_4skim6engine3allNtB2_14MatchAllEngine7builder
FN:41,_RNvXs0_NtNtCs3Snzs7u97BX_4skim6engine3allNtB5_14MatchAllEngineNtNtCs3IJltBbNwOJ_4core3fmt7Display3fmt
FN:31,_RNvXs_NtNtCs3Snzs7u97BX_4skim6engine3allNtB4_14MatchAllEngineNtB8_11MatchEngine10match_item
FN:20,_RNvMNtNtCs2dRlemTKIe9_4skim6engine3allNtB2_14MatchAllEngine12rank_builder
FN:25,_RNvMNtNtCs2dRlemTKIe9_4skim6engine3allNtB2_14MatchAllEngine5build
FN:14,_RNvMNtNtCs2dRlemTKIe9_4skim6engine3allNtB2_14MatchAllEngine7builder
FN:41,_RNvXs0_NtNtCs2dRlemTKIe9_4skim6engine3allNtB5_14MatchAllEngineNtNtCs3IJltBbNwOJ_4core3fmt7Display3fmt
FN:31,_RNvXs_NtNtCs2dRlemTKIe9_4skim6engine3allNtB4_14MatchAllEngineNtB8_11MatchEngine10match_item
FNDA:0,_RNvMNtNtCs3Snzs7u97BX_4skim6engine3allNtB2_14MatchAllEngine12rank_builder
FNDA:0,_RNvMNtNtCs3Snzs7u97BX_4skim6engine3allNtB2_14MatchAllEngine5build
FNDA:0,_RNvMNtNtCs3Snzs7u97BX_4skim6engine3allNtB2_14MatchAllEngine7builder
FNDA:0,_RNvXs0_NtNtCs3Snzs7u97BX_4skim6engine3allNtB5_14MatchAllEngineNtNtCs3IJltBbNwOJ_4core3fmt7Display3fmt
FNDA:0,_RNvXs_NtNtCs3Snzs7u97BX_4skim6engine3allNtB4_14MatchAllEngineNtB8_11MatchEngine10match_item
FNDA:0,_RNvMNtNtCs2dRlemTKIe9_4skim6engine3allNtB2_14MatchAllEngine12rank_builder
FNDA:0,_RNvMNtNtCs2dRlemTKIe9_4skim6engine3allNtB2_14MatchAllEngine5build
FNDA:0,_RNvMNtNtCs2dRlemTKIe9_4skim6engine3allNtB2_14MatchAllEngine7builder
FNDA:0,_RNvXs0_NtNtCs2dRlemTKIe9_4skim6engine3allNtB5_14MatchAllEngineNtNtCs3IJltBbNwOJ_4core3fmt7Display3fmt
FNDA:0,_RNvXs_NtNtCs2dRlemTKIe9_4skim6engine3allNtB4_14MatchAllEngineNtB8_11MatchEngine10match_item
FNF:5
FNH:0
DA:14,0
DA:15,0
DA:16,0
DA:17,0
DA:18,0
DA:20,0
DA:21,0
DA:22,0
DA:23,0
DA:25,0
DA:26,0
DA:27,0
DA:31,0
DA:32,0
DA:33,0
DA:34,0
DA:35,0
DA:36,0
DA:37,0
DA:41,0
DA:42,0
DA:43,0
BRF:0
BRH:0
LF:22
LH:0
end_of_record
SF:/home/loric/src/skim/src/engine/andor.rs
FN:47,_RNCNvXs0_NtNtCs3Snzs7u97BX_4skim6engine5andorNtB7_8OrEngineNtNtCs3IJltBbNwOJ_4core3fmt7Display3fmt0Bb_
FN:121,_RNCNvXs3_NtNtCs3Snzs7u97BX_4skim6engine5andorNtB7_9AndEngineNtNtCs3IJltBbNwOJ_4core3fmt7Display3fmt0Bb_
FN:22,_RNvMNtNtCs3Snzs7u97BX_4skim6engine5andorNtB2_8OrEngine5build
FN:13,_RNvMNtNtCs3Snzs7u97BX_4skim6engine5andorNtB2_8OrEngine7builder
FN:17,_RNvMNtNtCs3Snzs7u97BX_4skim6engine5andorNtB2_8OrEngine7engines
FN:74,_RNvMs1_NtNtCs3Snzs7u97BX_4skim6engine5andorNtB5_9AndEngine19merge_matched_items
FN:70,_RNvMs1_NtNtCs3Snzs7u97BX_4skim6engine5andorNtB5_9AndEngine5build
FN:61,_RNvMs1_NtNtCs3Snzs7u97BX_4skim6engine5andorNtB5_9AndEngine7builder
FN:65,_RNvMs1_NtNtCs3Snzs7u97BX_4skim6engine5andorNtB5_9AndEngine7engines
FN:41,_RNvXs0_NtNtCs3Snzs7u97BX_4skim6engine5andorNtB5_8OrEngineNtNtCs3IJltBbNwOJ_4core3fmt7Display3fmt
FN:98,_RNvXs2_NtNtCs3Snzs7u97BX_4skim6engine5andorNtB5_9AndEngineNtB9_11MatchEngine10match_item
FN:115,_RNvXs3_NtNtCs3Snzs7u97BX_4skim6engine5andorNtB5_9AndEngineNtNtCs3IJltBbNwOJ_4core3fmt7Display3fmt
FN:28,_RNvXs_NtNtCs3Snzs7u97BX_4skim6engine5andorNtB4_8OrEngineNtB8_11MatchEngine10match_item
FN:47,_RNCNvXs0_NtNtCs2dRlemTKIe9_4skim6engine5andorNtB7_8OrEngineNtNtCs3IJltBbNwOJ_4core3fmt7Display3fmt0Bb_
FN:121,_RNCNvXs3_NtNtCs2dRlemTKIe9_4skim6engine5andorNtB7_9AndEngineNtNtCs3IJltBbNwOJ_4core3fmt7Display3fmt0Bb_
FN:22,_RNvMNtNtCs2dRlemTKIe9_4skim6engine5andorNtB2_8OrEngine5build
FN:13,_RNvMNtNtCs2dRlemTKIe9_4skim6engine5andorNtB2_8OrEngine7builder
FN:17,_RNvMNtNtCs2dRlemTKIe9_4skim6engine5andorNtB2_8OrEngine7engines
FN:74,_RNvMs1_NtNtCs2dRlemTKIe9_4skim6engine5andorNtB5_9AndEngine19merge_matched_items
FN:70,_RNvMs1_NtNtCs2dRlemTKIe9_4skim6engine5andorNtB5_9AndEngine5build
FN:61,_RNvMs1_NtNtCs2dRlemTKIe9_4skim6engine5andorNtB5_9AndEngine7builder
FN:65,_RNvMs1_NtNtCs2dRlemTKIe9_4skim6engine5andorNtB5_9AndEngine7engines
FN:41,_RNvXs0_NtNtCs2dRlemTKIe9_4skim6engine5andorNtB5_8OrEngineNtNtCs3IJltBbNwOJ_4core3fmt7Display3fmt
FN:98,_RNvXs2_NtNtCs2dRlemTKIe9_4skim6engine5andorNtB5_9AndEngineNtB9_11MatchEngine10match_item
FN:115,_RNvXs3_NtNtCs2dRlemTKIe9_4skim6engine5andorNtB5_9AndEngineNtNtCs3IJltBbNwOJ_4core3fmt7Display3fmt
FN:28,_RNvXs_NtNtCs2dRlemTKIe9_4skim6engine5andorNtB4_8OrEngineNtB8_11MatchEngine10match_item
FNDA:0,_RNCNvXs0_NtNtCs3Snzs7u97BX_4skim6engine5andorNtB7_8OrEngineNtNtCs3IJltBbNwOJ_4core3fmt7Display3fmt0Bb_
FNDA:0,_RNCNvXs3_NtNtCs3Snzs7u97BX_4skim6engine5andorNtB7_9AndEngineNtNtCs3IJltBbNwOJ_4core3fmt7Display3fmt0Bb_
FNDA:0,_RNvMNtNtCs3Snzs7u97BX_4skim6engine5andorNtB2_8OrEngine5build
FNDA:0,_RNvMNtNtCs3Snzs7u97BX_4skim6engine5andorNtB2_8OrEngine7builder
FNDA:0,_RNvMNtNtCs3Snzs7u97BX_4skim6engine5andorNtB2_8OrEngine7engines
FNDA:0,_RNvMs1_NtNtCs3Snzs7u97BX_4skim6engine5andorNtB5_9AndEngine19merge_matched_items
FNDA:0,_RNvMs1_NtNtCs3Snzs7u97BX_4skim6engine5andorNtB5_9AndEngine5build
FNDA:0,_RNvMs1_NtNtCs3Snzs7u97BX_4skim6engine5andorNtB5_9AndEngine7builder
FNDA:0,_RNvMs1_NtNtCs3Snzs7u97BX_4skim6engine5andorNtB5_9AndEngine7engines
FNDA:0,_RNvXs0_NtNtCs3Snzs7u97BX_4skim6engine5andorNtB5_8OrEngineNtNtCs3IJltBbNwOJ_4core3fmt7Display3fmt
FNDA:0,_RNvXs2_NtNtCs3Snzs7u97BX_4skim6engine5andorNtB5_9AndEngineNtB9_11MatchEngine10match_item
FNDA:0,_RNvXs3_NtNtCs3Snzs7u97BX_4skim6engine5andorNtB5_9AndEngineNtNtCs3IJltBbNwOJ_4core3fmt7Display3fmt
FNDA:0,_RNvXs_NtNtCs3Snzs7u97BX_4skim6engine5andorNtB4_8OrEngineNtB8_11MatchEngine10match_item
FNDA:0,_RNCNvXs0_NtNtCs2dRlemTKIe9_4skim6engine5andorNtB7_8OrEngineNtNtCs3IJltBbNwOJ_4core3fmt7Display3fmt0Bb_
FNDA:0,_RNCNvXs3_NtNtCs2dRlemTKIe9_4skim6engine5andorNtB7_9AndEngineNtNtCs3IJltBbNwOJ_4core3fmt7Display3fmt0Bb_
FNDA:0,_RNvMNtNtCs2dRlemTKIe9_4skim6engine5andorNtB2_8OrEngine5build
FNDA:0,_RNvMNtNtCs2dRlemTKIe9_4skim6engine5andorNtB2_8OrEngine7builder
FNDA:0,_RNvMNtNtCs2dRlemTKIe9_4skim6engine5andorNtB2_8OrEngine7engines
FNDA:0,_RNvMs1_NtNtCs2dRlemTKIe9_4skim6engine5andorNtB5_9AndEngine19merge_matched_items
FNDA:0,_RNvMs1_NtNtCs2dRlemTKIe9_4skim6engine5andorNtB5_9AndEngine5build
FNDA:0,_RNvMs1_NtNtCs2dRlemTKIe9_4skim6engine5andorNtB5_9AndEngine7builder
FNDA:0,_RNvMs1_NtNtCs2dRlemTKIe9_4skim6engine5andorNtB5_9AndEngine7engines
FNDA:0,_RNvXs0_NtNtCs2dRlemTKIe9_4skim6engine5andorNtB5_8OrEngineNtNtCs3IJltBbNwOJ_4core3fmt7Display3fmt
FNDA:0,_RNvXs2_NtNtCs2dRlemTKIe9_4skim6engine5andorNtB5_9AndEngineNtB9_11MatchEngine10match_item
FNDA:0,_RNvXs3_NtNtCs2dRlemTKIe9_4skim6engine5andorNtB5_9AndEngineNtNtCs3IJltBbNwOJ_4core3fmt7Display3fmt
FNDA:0,_RNvXs_NtNtCs2dRlemTKIe9_4skim6engine5andorNtB4_8OrEngineNtB8_11MatchEngine10match_item
FNF:13
FNH:0
DA:13,0
DA:14,0
DA:15,0
DA:17,0
DA:18,0
DA:19,0
DA:20,0
DA:22,0
DA:23,0
DA:24,0
DA:28,0
DA:29,0
DA:30,0
DA:31,0
DA:32,0
DA:33,0
DA:36,0
DA:37,0
DA:41,0
DA:42,0
DA:43,0
DA:45,0
DA:46,0
DA:47,0
DA:48,0
DA:49,0
DA:51,0
DA:61,0
DA:62,0
DA:63,0
DA:65,0
DA:66,0
DA:67,0
DA:68,0
DA:70,0
DA:71,0
DA:72,0
DA:74,0
DA:75,0
DA:76,0
DA:77,0
DA:78,0
DA:79,0
DA:80,0
DA:81,0
DA:82,0
DA:83,0
DA:84,0
DA:88,0
DA:89,0
DA:90,0
DA:91,0
DA:92,0
DA:93,0
DA:94,0
DA:98,0
DA:100,0
DA:101,0
DA:102,0
DA:103,0
DA:106,0
DA:107,0
DA:109,0
DA:111,0
DA:115,0
DA:116,0
DA:117,0
DA:119,0
DA:120,0
DA:121,0
DA:122,0
DA:123,0
DA:125,0
BRF:0
BRH:0
LF:75
LH:0
end_of_record
SF:/home/loric/src/skim/src/engine/exact.rs
FN:119,_RNCNvXs0_NtNtCs3Snzs7u97BX_4skim6engine5exactNtB7_11ExactEngineNtNtCs3IJltBbNwOJ_4core3fmt7Display3fmt0Bb_
FN:90,_RNCNvXs_NtNtCs3Snzs7u97BX_4skim6engine5exactNtB6_11ExactEngineNtBa_11MatchEngine10match_item0Ba_
FN:66,_RNvMNtNtCs3Snzs7u97BX_4skim6engine5exactNtB2_11ExactEngine12rank_builder
FN:71,_RNvMNtNtCs3Snzs7u97BX_4skim6engine5exactNtB2_11ExactEngine5build
FN:30,_RNvMNtNtCs3Snzs7u97BX_4skim6engine5exactNtB2_11ExactEngine7builder
FN:114,_RNvXs0_NtNtCs3Snzs7u97BX_4skim6engine5exactNtB5_11ExactEngineNtNtCs3IJltBbNwOJ_4core3fmt7Display3fmt
FN:77,_RNvXs_NtNtCs3Snzs7u97BX_4skim6engine5exactNtB4_11ExactEngineNtB8_11MatchEngine10match_item
FN:119,_RNCNvXs0_NtNtCs2dRlemTKIe9_4skim6engine5exactNtB7_11ExactEngineNtNtCs3IJltBbNwOJ_4core3fmt7Display3fmt0Bb_
FN:90,_RNCNvXs_NtNtCs2dRlemTKIe9_4skim6engine5exactNtB6_11ExactEngineNtBa_11MatchEngine10match_item0Ba_
FN:66,_RNvMNtNtCs2dRlemTKIe9_4skim6engine5exactNtB2_11ExactEngine12rank_builder
FN:71,_RNvMNtNtCs2dRlemTKIe9_4skim6engine5exactNtB2_11ExactEngine5build
FN:30,_RNvMNtNtCs2dRlemTKIe9_4skim6engine5exactNtB2_11ExactEngine7builder
FN:114,_RNvXs0_NtNtCs2dRlemTKIe9_4skim6engine5exactNtB5_11ExactEngineNtNtCs3IJltBbNwOJ_4core3fmt7Display3fmt
FN:77,_RNvXs_NtNtCs2dRlemTKIe9_4skim6engine5exactNtB4_11ExactEngineNtB8_11MatchEngine10match_item
FNDA:0,_RNCNvXs0_NtNtCs3Snzs7u97BX_4skim6engine5exactNtB7_11ExactEngineNtNtCs3IJltBbNwOJ_4core3fmt7Display3fmt0Bb_
FNDA:0,_RNCNvXs_NtNtCs3Snzs7u97BX_4skim6engine5exactNtB6_11ExactEngineNtBa_11MatchEngine10match_item0Ba_
FNDA:0,_RNvMNtNtCs3Snzs7u97BX_4skim6engine5exactNtB2_11ExactEngine12rank_builder
FNDA:0,_RNvMNtNtCs3Snzs7u97BX_4skim6engine5exactNtB2_11ExactEngine5build
FNDA:0,_RNvMNtNtCs3Snzs7u97BX_4skim6engine5exactNtB2_11ExactEngine7builder
FNDA:0,_RNvXs0_NtNtCs3Snzs7u97BX_4skim6engine5exactNtB5_11ExactEngineNtNtCs3IJltBbNwOJ_4core3fmt7Display3fmt
FNDA:0,_RNvXs_NtNtCs3Snzs7u97BX_4skim6engine5exactNtB4_11ExactEngineNtB8_11MatchEngine10match_item
FNDA:0,_RNCNvXs0_NtNtCs2dRlemTKIe9_4skim6engine5exactNtB7_11ExactEngineNtNtCs3IJltBbNwOJ_4core3fmt7Display3fmt0Bb_
FNDA:0,_RNCNvXs_NtNtCs2dRlemTKIe9_4skim6engine5exactNtB6_11ExactEngineNtBa_11MatchEngine10match_item0Ba_
FNDA:0,_RNvMNtNtCs2dRlemTKIe9_4skim6engine5exactNtB2_11ExactEngine12rank_builder
FNDA:0,_RNvMNtNtCs2dRlemTKIe9_4skim6engine5exactNtB2_11ExactEngine5build
FNDA:0,_RNvMNtNtCs2dRlemTKIe9_4skim6engine5exactNtB2_11ExactEngine7builder
FNDA:0,_RNvXs0_NtNtCs2dRlemTKIe9_4skim6engine5exactNtB5_11ExactEngineNtNtCs3IJltBbNwOJ_4core3fmt7Display3fmt
FNDA:0,_RNvXs_NtNtCs2dRlemTKIe9_4skim6engine5exactNtB4_11ExactEngineNtB8_11MatchEngine10match_item
FNF:7
FNH:0
DA:30,0
DA:31,0
DA:32,0
DA:33,0
DA:34,0
DA:37,0
DA:38,0
DA:39,0
DA:40,0
DA:42,0
DA:43,0
DA:44,0
DA:46,0
DA:48,0
DA:49,0
DA:50,0
DA:52,0
DA:53,0
DA:55,0
DA:58,0
DA:59,0
DA:60,0
DA:61,0
DA:62,0
DA:63,0
DA:64,0
DA:66,0
DA:67,0
DA:68,0
DA:69,0
DA:71,0
DA:72,0
DA:73,0
DA:77,0
DA:78,0
DA:79,0
DA:80,0
DA:81,0
DA:82,0
DA:83,0
DA:84,0
DA:85,0
DA:86,0
DA:87,0
DA:90,0
DA:92,0
DA:93,0
DA:94,0
DA:96,0
DA:97,0
DA:98,0
DA:101,0
DA:102,0
DA:103,0
DA:104,0
DA:105,0
DA:106,0
DA:107,0
DA:108,0
DA:109,0
DA:110,0
DA:114,0
DA:115,0
DA:116,0
DA:118,0
DA:119,0
DA:121,0
BRF:0
BRH:0
LF:69
LH:0
end_of_record
SF:/home/loric/src/skim/src/engine/factory.rs
FN:130,_RINvMs0_NtNtCs3Snzs7u97BX_4skim6engine7factoryNtB6_18AndOrEngineFactory3newNtB6_25ExactOrFuzzyEngineFactoryEBa_
FN:130,_RINvMs0_NtNtCs3Snzs7u97BX_4skim6engine7factoryNtB6_18AndOrEngineFactory3newNtNtB8_5split23SplitMatchEngineFactoryEBa_
FN:145,_RNCNvMs0_NtNtCs3Snzs7u97BX_4skim6engine7factoryNtB7_18AndOrEngineFactory8parse_or0Bb_
FN:152,_RNCNvMs0_NtNtCs3Snzs7u97BX_4skim6engine7factoryNtB7_18AndOrEngineFactory9parse_and0Bb_
FN:169,_RNCNvMs0_NtNtCs3Snzs7u97BX_4skim6engine7factoryNtB7_18AndOrEngineFactory9parse_ands0_0Bb_
FN:157,_RNCNvMs0_NtNtCs3Snzs7u97BX_4skim6engine7factoryNtB7_18AndOrEngineFactory9parse_ands_0Bb_
FN:12,_RNCNvNtNtCs3Snzs7u97BX_4skim6engine7factory5RE_OR0B7_
FN:11,_RNCNvNtNtCs3Snzs7u97BX_4skim6engine7factory6RE_AND0B7_
FN:33,_RNvMNtNtCs3Snzs7u97BX_4skim6engine7factoryNtB2_25ExactOrFuzzyEngineFactory10exact_mode
FN:45,_RNvMNtNtCs3Snzs7u97BX_4skim6engine7factoryNtB2_25ExactOrFuzzyEngineFactory12rank_builder
FN:39,_RNvMNtNtCs3Snzs7u97BX_4skim6engine7factoryNtB2_25ExactOrFuzzyEngineFactory15fuzzy_algorithm
FN:51,_RNvMNtNtCs3Snzs7u97BX_4skim6engine7factoryNtB2_25ExactOrFuzzyEngineFactory5build
FN:24,_RNvMNtNtCs3Snzs7u97BX_4skim6engine7factoryNtB2_25ExactOrFuzzyEngineFactory7builder
FN:177,_RNvMs0_NtNtCs3Snzs7u97BX_4skim6engine7factoryNtB5_18AndOrEngineFactory17mask_escape_space
FN:181,_RNvMs0_NtNtCs3Snzs7u97BX_4skim6engine7factoryNtB5_18AndOrEngineFactory19unmask_escape_space
FN:139,_RNvMs0_NtNtCs3Snzs7u97BX_4skim6engine7factoryNtB5_18AndOrEngineFactory8parse_or
FN:151,_RNvMs0_NtNtCs3Snzs7u97BX_4skim6engine7factoryNtB5_18AndOrEngineFactory9parse_and
FN:207,_RNvMs2_NtNtCs3Snzs7u97BX_4skim6engine7factoryNtB5_18RegexEngineFactory12rank_builder
FN:200,_RNvMs2_NtNtCs3Snzs7u97BX_4skim6engine7factoryNtB5_18RegexEngineFactory7builder
FN:187,_RNvXs1_NtNtCs3Snzs7u97BX_4skim6engine7factoryNtB5_18AndOrEngineFactoryNtB9_18MatchEngineFactory23create_engine_with_case
FN:219,_RNvXs3_NtNtCs3Snzs7u97BX_4skim6engine7factoryNtB5_18RegexEngineFactoryNtB9_18MatchEngineFactory23create_engine_with_case
FN:57,_RNvXs_NtNtCs3Snzs7u97BX_4skim6engine7factoryNtB4_25ExactOrFuzzyEngineFactoryNtB8_18MatchEngineFactory23create_engine_with_case
FN:213,_RNvMs2_NtNtCs3Snzs7u97BX_4skim6engine7factoryNtB5_18RegexEngineFactory5build
FN:130,_RINvMs0_NtNtCs2dRlemTKIe9_4skim6engine7factoryNtB6_18AndOrEngineFactory3newNtB6_25ExactOrFuzzyEngineFactoryEBa_
FN:145,_RNCNvMs0_NtNtCs2dRlemTKIe9_4skim6engine7factoryNtB7_18AndOrEngineFactory8parse_or0Bb_
FN:152,_RNCNvMs0_NtNtCs2dRlemTKIe9_4skim6engine7factoryNtB7_18AndOrEngineFactory9parse_and0Bb_
FN:169,_RNCNvMs0_NtNtCs2dRlemTKIe9_4skim6engine7factoryNtB7_18AndOrEngineFactory9parse_ands0_0Bb_
FN:157,_RNCNvMs0_NtNtCs2dRlemTKIe9_4skim6engine7factoryNtB7_18AndOrEngineFactory9parse_ands_0Bb_
FN:12,_RNCNvNtNtCs2dRlemTKIe9_4skim6engine7factory5RE_OR0B7_
FN:11,_RNCNvNtNtCs2dRlemTKIe9_4skim6engine7factory6RE_AND0B7_
FN:51,_RNvMNtNtCs2dRlemTKIe9_4skim6engine7factoryNtB2_25ExactOrFuzzyEngineFactory5build
FN:24,_RNvMNtNtCs2dRlemTKIe9_4skim6engine7factoryNtB2_25ExactOrFuzzyEngineFactory7builder
FN:177,_RNvMs0_NtNtCs2dRlemTKIe9_4skim6engine7factoryNtB5_18AndOrEngineFactory17mask_escape_space
FN:181,_RNvMs0_NtNtCs2dRlemTKIe9_4skim6engine7factoryNtB5_18AndOrEngineFactory19unmask_escape_space
FN:139,_RNvMs0_NtNtCs2dRlemTKIe9_4skim6engine7factoryNtB5_18AndOrEngineFactory8parse_or
FN:151,_RNvMs0_NtNtCs2dRlemTKIe9_4skim6engine7factoryNtB5_18AndOrEngineFactory9parse_and
FN:200,_RNvMs2_NtNtCs2dRlemTKIe9_4skim6engine7factoryNtB5_18RegexEngineFactory7builder
FN:187,_RNvXs1_NtNtCs2dRlemTKIe9_4skim6engine7factoryNtB5_18AndOrEngineFactoryNtB9_18MatchEngineFactory23create_engine_with_case
FN:219,_RNvXs3_NtNtCs2dRlemTKIe9_4skim6engine7factoryNtB5_18RegexEngineFactoryNtB9_18MatchEngineFactory23create_engine_with_case
FN:57,_RNvXs_NtNtCs2dRlemTKIe9_4skim6engine7factoryNtB4_25ExactOrFuzzyEngineFactoryNtB8_18MatchEngineFactory23create_engine_with_case
FN:33,_RNvMNtNtCs2dRlemTKIe9_4skim6engine7factoryNtB2_25ExactOrFuzzyEngineFactory10exact_mode
FN:45,_RNvMNtNtCs2dRlemTKIe9_4skim6engine7factoryNtB2_25ExactOrFuzzyEngineFactory12rank_builder
FN:39,_RNvMNtNtCs2dRlemTKIe9_4skim6engine7factoryNtB2_25ExactOrFuzzyEngineFactory15fuzzy_algorithm
FN:207,_RNvMs2_NtNtCs2dRlemTKIe9_4skim6engine7factoryNtB5_18RegexEngineFactory12rank_builder
FN:213,_RNvMs2_NtNtCs2dRlemTKIe9_4skim6engine7factoryNtB5_18RegexEngineFactory5build
FNDA:0,_RINvMs0_NtNtCs3Snzs7u97BX_4skim6engine7factoryNtB6_18AndOrEngineFactory3newNtB6_25ExactOrFuzzyEngineFactoryEBa_
FNDA:0,_RINvMs0_NtNtCs3Snzs7u97BX_4skim6engine7factoryNtB6_18AndOrEngineFactory3newNtNtB8_5split23SplitMatchEngineFactoryEBa_
FNDA:0,_RNCNvMs0_NtNtCs3Snzs7u97BX_4skim6engine7factoryNtB7_18AndOrEngineFactory8parse_or0Bb_
FNDA:0,_RNCNvMs0_NtNtCs3Snzs7u97BX_4skim6engine7factoryNtB7_18AndOrEngineFactory9parse_and0Bb_
FNDA:0,_RNCNvMs0_NtNtCs3Snzs7u97BX_4skim6engine7factoryNtB7_18AndOrEngineFactory9parse_ands0_0Bb_
FNDA:0,_RNCNvMs0_NtNtCs3Snzs7u97BX_4skim6engine7factoryNtB7_18AndOrEngineFactory9parse_ands_0Bb_
FNDA:0,_RNCNvNtNtCs3Snzs7u97BX_4skim6engine7factory5RE_OR0B7_
FNDA:0,_RNCNvNtNtCs3Snzs7u97BX_4skim6engine7factory6RE_AND0B7_
FNDA:0,_RNvMNtNtCs3Snzs7u97BX_4skim6engine7factoryNtB2_25ExactOrFuzzyEngineFactory10exact_mode
FNDA:0,_RNvMNtNtCs3Snzs7u97BX_4skim6engine7factoryNtB2_25ExactOrFuzzyEngineFactory12rank_builder
FNDA:0,_RNvMNtNtCs3Snzs7u97BX_4skim6engine7factoryNtB2_25ExactOrFuzzyEngineFactory15fuzzy_algorithm
FNDA:0,_RNvMNtNtCs3Snzs7u97BX_4skim6engine7factoryNtB2_25ExactOrFuzzyEngineFactory5build
FNDA:0,_RNvMNtNtCs3Snzs7u97BX_4skim6engine7factoryNtB2_25ExactOrFuzzyEngineFactory7builder
FNDA:0,_RNvMs0_NtNtCs3Snzs7u97BX_4skim6engine7factoryNtB5_18AndOrEngineFactory17mask_escape_space
FNDA:0,_RNvMs0_NtNtCs3Snzs7u97BX_4skim6engine7factoryNtB5_18AndOrEngineFactory19unmask_escape_space
FNDA:0,_RNvMs0_NtNtCs3Snzs7u97BX_4skim6engine7factoryNtB5_18AndOrEngineFactory8parse_or
FNDA:0,_RNvMs0_NtNtCs3Snzs7u97BX_4skim6engine7factoryNtB5_18AndOrEngineFactory9parse_and
FNDA:0,_RNvMs2_NtNtCs3Snzs7u97BX_4skim6engine7factoryNtB5_18RegexEngineFactory12rank_builder
FNDA:0,_RNvMs2_NtNtCs3Snzs7u97BX_4skim6engine7factoryNtB5_18RegexEngineFactory7builder
FNDA:0,_RNvXs1_NtNtCs3Snzs7u97BX_4skim6engine7factoryNtB5_18AndOrEngineFactoryNtB9_18MatchEngineFactory23create_engine_with_case
FNDA:0,_RNvXs3_NtNtCs3Snzs7u97BX_4skim6engine7factoryNtB5_18RegexEngineFactoryNtB9_18MatchEngineFactory23create_engine_with_case
FNDA:0,_RNvXs_NtNtCs3Snzs7u97BX_4skim6engine7factoryNtB4_25ExactOrFuzzyEngineFactoryNtB8_18MatchEngineFactory23create_engine_with_case
FNDA:0,_RNvMs2_NtNtCs3Snzs7u97BX_4skim6engine7factoryNtB5_18RegexEngineFactory5build
FNDA:0,_RINvMs0_NtNtCs2dRlemTKIe9_4skim6engine7factoryNtB6_18AndOrEngineFactory3newNtB6_25ExactOrFuzzyEngineFactoryEBa_
FNDA:0,_RNCNvMs0_NtNtCs2dRlemTKIe9_4skim6engine7factoryNtB7_18AndOrEngineFactory8parse_or0Bb_
FNDA:0,_RNCNvMs0_NtNtCs2dRlemTKIe9_4skim6engine7factoryNtB7_18AndOrEngineFactory9parse_and0Bb_
FNDA:0,_RNCNvMs0_NtNtCs2dRlemTKIe9_4skim6engine7factoryNtB7_18AndOrEngineFactory9parse_ands0_0Bb_
FNDA:0,_RNCNvMs0_NtNtCs2dRlemTKIe9_4skim6engine7factoryNtB7_18AndOrEngineFactory9parse_ands_0Bb_
FNDA:0,_RNCNvNtNtCs2dRlemTKIe9_4skim6engine7factory5RE_OR0B7_
FNDA:0,_RNCNvNtNtCs2dRlemTKIe9_4skim6engine7factory6RE_AND0B7_
FNDA:0,_RNvMNtNtCs2dRlemTKIe9_4skim6engine7factoryNtB2_25ExactOrFuzzyEngineFactory5build
FNDA:0,_RNvMNtNtCs2dRlemTKIe9_4skim6engine7factoryNtB2_25ExactOrFuzzyEngineFactory7builder
FNDA:0,_RNvMs0_NtNtCs2dRlemTKIe9_4skim6engine7factoryNtB5_18AndOrEngineFactory17mask_escape_space
FNDA:0,_RNvMs0_NtNtCs2dRlemTKIe9_4skim6engine7factoryNtB5_18AndOrEngineFactory19unmask_escape_space
FNDA:0,_RNvMs0_NtNtCs2dRlemTKIe9_4skim6engine7factoryNtB5_18AndOrEngineFactory8parse_or
FNDA:0,_RNvMs0_NtNtCs2dRlemTKIe9_4skim6engine7factoryNtB5_18AndOrEngineFactory9parse_and
FNDA:0,_RNvMs2_NtNtCs2dRlemTKIe9_4skim6engine7factoryNtB5_18RegexEngineFactory7builder
FNDA:0,_RNvXs1_NtNtCs2dRlemTKIe9_4skim6engine7factoryNtB5_18AndOrEngineFactoryNtB9_18MatchEngineFactory23create_engine_with_case
FNDA:0,_RNvXs3_NtNtCs2dRlemTKIe9_4skim6engine7factoryNtB5_18RegexEngineFactoryNtB9_18MatchEngineFactory23create_engine_with_case
FNDA:0,_RNvXs_NtNtCs2dRlemTKIe9_4skim6engine7factoryNtB4_25ExactOrFuzzyEngineFactoryNtB8_18MatchEngineFactory23create_engine_with_case
FNDA:0,_RNvMNtNtCs2dRlemTKIe9_4skim6engine7factoryNtB2_25ExactOrFuzzyEngineFactory10exact_mode
FNDA:0,_RNvMNtNtCs2dRlemTKIe9_4skim6engine7factoryNtB2_25ExactOrFuzzyEngineFactory12rank_builder
FNDA:0,_RNvMNtNtCs2dRlemTKIe9_4skim6engine7factoryNtB2_25ExactOrFuzzyEngineFactory15fuzzy_algorithm
FNDA:0,_RNvMs2_NtNtCs2dRlemTKIe9_4skim6engine7factoryNtB5_18RegexEngineFactory12rank_builder
FNDA:0,_RNvMs2_NtNtCs2dRlemTKIe9_4skim6engine7factoryNtB5_18RegexEngineFactory5build
FNF:22
FNH:0
DA:11,0
DA:12,0
DA:24,0
DA:25,0
DA:26,0
DA:27,0
DA:28,0
DA:29,0
DA:30,0
DA:33,0
DA:34,0
DA:35,0
DA:36,0
DA:39,0
DA:40,0
DA:41,0
DA:42,0
DA:45,0
DA:46,0
DA:47,0
DA:48,0
DA:51,0
DA:52,0
DA:53,0
DA:57,0
DA:66,0
DA:67,0
DA:68,0
DA:69,0
DA:71,0
DA:72,0
DA:73,0
DA:74,0
DA:76,0
DA:77,0
DA:78,0
DA:79,0
DA:80,0
DA:82,0
DA:84,0
DA:85,0
DA:86,0
DA:87,0
DA:88,0
DA:89,0
DA:91,0
DA:92,0
DA:93,0
DA:94,0
DA:95,0
DA:97,0
DA:98,0
DA:99,0
DA:100,0
DA:101,0
DA:103,0
DA:104,0
DA:105,0
DA:106,0
DA:107,0
DA:108,0
DA:110,0
DA:111,0
DA:112,0
DA:113,0
DA:114,0
DA:115,0
DA:116,0
DA:117,0
DA:119,0
DA:130,0
DA:131,0
DA:132,0
DA:133,0
DA:134,0
DA:139,0
DA:140,0
DA:141,0
DA:143,0
DA:144,0
DA:145,0
DA:146,0
DA:147,0
DA:149,0
DA:151,0
DA:152,0
DA:153,0
DA:154,0
DA:155,0
DA:156,0
DA:157,0
DA:158,0
DA:159,0
DA:160,0
DA:161,0
DA:163,0
DA:164,0
DA:165,0
DA:166,0
DA:169,0
DA:170,0
DA:171,0
DA:172,0
DA:173,0
DA:174,0
DA:175,0
DA:177,0
DA:178,0
DA:179,0
DA:181,0
DA:182,0
DA:183,0
DA:187,0
DA:188,0
DA:189,0
DA:200,0
DA:201,0
DA:202,0
DA:203,0
DA:204,0
DA:207,0
DA:208,0
DA:209,0
DA:210,0
DA:213,0
DA:214,0
DA:215,0
DA:219,0
DA:220,0
DA:221,0
DA:222,0
DA:223,0
DA:224,0
DA:225,0
BRF:0
BRH:0
LF:138
LH:0
end_of_record
SF:/home/loric/src/skim/src/engine/fuzzy.rs
FN:151,_RNCNCNvXs0_NtNtCs3Snzs7u97BX_4skim6engine5fuzzyNtB9_11FuzzyEngineNtBd_11MatchEngine10match_item00Bd_
FN:148,_RNCNvXs0_NtNtCs3Snzs7u97BX_4skim6engine5fuzzyNtB7_11FuzzyEngineNtBb_11MatchEngine10match_item0Bb_
FN:59,_RNvMNtNtCs3Snzs7u97BX_4skim6engine5fuzzyNtB2_18FuzzyEngineBuilder12rank_builder
FN:49,_RNvMNtNtCs3Snzs7u97BX_4skim6engine5fuzzyNtB2_18FuzzyEngineBuilder4case
FN:65,_RNvMNtNtCs3Snzs7u97BX_4skim6engine5fuzzyNtB2_18FuzzyEngineBuilder5build
FN:44,_RNvMNtNtCs3Snzs7u97BX_4skim6engine5fuzzyNtB2_18FuzzyEngineBuilder5query
FN:54,_RNvMNtNtCs3Snzs7u97BX_4skim6engine5fuzzyNtB2_18FuzzyEngineBuilder9algorithm
FN:128,_RNvMs_NtNtCs3Snzs7u97BX_4skim6engine5fuzzyNtB4_11FuzzyEngine11fuzzy_match
FN:124,_RNvMs_NtNtCs3Snzs7u97BX_4skim6engine5fuzzyNtB4_11FuzzyEngine7builder
FN:140,_RNvXs0_NtNtCs3Snzs7u97BX_4skim6engine5fuzzyNtB5_11FuzzyEngineNtB9_11MatchEngine10match_item
FN:183,_RNvXs1_NtNtCs3Snzs7u97BX_4skim6engine5fuzzyNtB5_11FuzzyEngineNtNtCs3IJltBbNwOJ_4core3fmt7Display3fmt
FN:151,_RNCNCNvXs0_NtNtCs2dRlemTKIe9_4skim6engine5fuzzyNtB9_11FuzzyEngineNtBd_11MatchEngine10match_item00Bd_
FN:148,_RNCNvXs0_NtNtCs2dRlemTKIe9_4skim6engine5fuzzyNtB7_11FuzzyEngineNtBb_11MatchEngine10match_item0Bb_
FN:59,_RNvMNtNtCs2dRlemTKIe9_4skim6engine5fuzzyNtB2_18FuzzyEngineBuilder12rank_builder
FN:49,_RNvMNtNtCs2dRlemTKIe9_4skim6engine5fuzzyNtB2_18FuzzyEngineBuilder4case
FN:65,_RNvMNtNtCs2dRlemTKIe9_4skim6engine5fuzzyNtB2_18FuzzyEngineBuilder5build
FN:44,_RNvMNtNtCs2dRlemTKIe9_4skim6engine5fuzzyNtB2_18FuzzyEngineBuilder5query
FN:54,_RNvMNtNtCs2dRlemTKIe9_4skim6engine5fuzzyNtB2_18FuzzyEngineBuilder9algorithm
FN:128,_RNvMs_NtNtCs2dRlemTKIe9_4skim6engine5fuzzyNtB4_11FuzzyEngine11fuzzy_match
FN:124,_RNvMs_NtNtCs2dRlemTKIe9_4skim6engine5fuzzyNtB4_11FuzzyEngine7builder
FN:140,_RNvXs0_NtNtCs2dRlemTKIe9_4skim6engine5fuzzyNtB5_11FuzzyEngineNtB9_11MatchEngine10match_item
FN:183,_RNvXs1_NtNtCs2dRlemTKIe9_4skim6engine5fuzzyNtB5_11FuzzyEngineNtNtCs3IJltBbNwOJ_4core3fmt7Display3fmt
FNDA:0,_RNCNCNvXs0_NtNtCs3Snzs7u97BX_4skim6engine5fuzzyNtB9_11FuzzyEngineNtBd_11MatchEngine10match_item00Bd_
FNDA:0,_RNCNvXs0_NtNtCs3Snzs7u97BX_4skim6engine5fuzzyNtB7_11FuzzyEngineNtBb_11MatchEngine10match_item0Bb_
FNDA:0,_RNvMNtNtCs3Snzs7u97BX_4skim6engine5fuzzyNtB2_18FuzzyEngineBuilder12rank_builder
FNDA:0,_RNvMNtNtCs3Snzs7u97BX_4skim6engine5fuzzyNtB2_18FuzzyEngineBuilder4case
FNDA:0,_RNvMNtNtCs3Snzs7u97BX_4skim6engine5fuzzyNtB2_18FuzzyEngineBuilder5build
FNDA:0,_RNvMNtNtCs3Snzs7u97BX_4skim6engine5fuzzyNtB2_18FuzzyEngineBuilder5query
FNDA:0,_RNvMNtNtCs3Snzs7u97BX_4skim6engine5fuzzyNtB2_18FuzzyEngineBuilder9algorithm
FNDA:0,_RNvMs_NtNtCs3Snzs7u97BX_4skim6engine5fuzzyNtB4_11FuzzyEngine11fuzzy_match
FNDA:0,_RNvMs_NtNtCs3Snzs7u97BX_4skim6engine5fuzzyNtB4_11FuzzyEngine7builder
FNDA:0,_RNvXs0_NtNtCs3Snzs7u97BX_4skim6engine5fuzzyNtB5_11FuzzyEngineNtB9_11MatchEngine10match_item
FNDA:0,_RNvXs1_NtNtCs3Snzs7u97BX_4skim6engine5fuzzyNtB5_11FuzzyEngineNtNtCs3IJltBbNwOJ_4core3fmt7Display3fmt
FNDA:0,_RNCNCNvXs0_NtNtCs2dRlemTKIe9_4skim6engine5fuzzyNtB9_11FuzzyEngineNtBd_11MatchEngine10match_item00Bd_
FNDA:0,_RNCNvXs0_NtNtCs2dRlemTKIe9_4skim6engine5fuzzyNtB7_11FuzzyEngineNtBb_11MatchEngine10match_item0Bb_
FNDA:0,_RNvMNtNtCs2dRlemTKIe9_4skim6engine5fuzzyNtB2_18FuzzyEngineBuilder12rank_builder
FNDA:0,_RNvMNtNtCs2dRlemTKIe9_4skim6engine5fuzzyNtB2_18FuzzyEngineBuilder4case
FNDA:0,_RNvMNtNtCs2dRlemTKIe9_4skim6engine5fuzzyNtB2_18FuzzyEngineBuilder5build
FNDA:0,_RNvMNtNtCs2dRlemTKIe9_4skim6engine5fuzzyNtB2_18FuzzyEngineBuilder5query
FNDA:0,_RNvMNtNtCs2dRlemTKIe9_4skim6engine5fuzzyNtB2_18FuzzyEngineBuilder9algorithm
FNDA:0,_RNvMs_NtNtCs2dRlemTKIe9_4skim6engine5fuzzyNtB4_11FuzzyEngine11fuzzy_match
FNDA:0,_RNvMs_NtNtCs2dRlemTKIe9_4skim6engine5fuzzyNtB4_11FuzzyEngine7builder
FNDA:0,_RNvXs0_NtNtCs2dRlemTKIe9_4skim6engine5fuzzyNtB5_11FuzzyEngineNtB9_11MatchEngine10match_item
FNDA:0,_RNvXs1_NtNtCs2dRlemTKIe9_4skim6engine5fuzzyNtB5_11FuzzyEngineNtNtCs3IJltBbNwOJ_4core3fmt7Display3fmt
FNF:11
FNH:0
DA:44,0
DA:45,0
DA:46,0
DA:47,0
DA:49,0
DA:50,0
DA:51,0
DA:52,0
DA:54,0
DA:55,0
DA:56,0
DA:57,0
DA:59,0
DA:60,0
DA:61,0
DA:62,0
DA:65,0
DA:68,0
DA:74,0
DA:76,0
DA:77,0
DA:80,0
DA:81,0
DA:82,0
DA:83,0
DA:84,0
DA:86,0
DA:87,0
DA:90,0
DA:91,0
DA:92,0
DA:93,0
DA:94,0
DA:96,0
DA:97,0
DA:103,0
DA:107,0
DA:108,0
DA:109,0
DA:110,0
DA:111,0
DA:112,0
DA:124,0
DA:125,0
DA:126,0
DA:128,0
DA:129,0
DA:130,0
DA:131,0
DA:132,0
DA:133,0
DA:135,0
DA:136,0
DA:140,0
DA:142,0
DA:143,0
DA:144,0
DA:145,0
DA:146,0
DA:147,0
DA:148,0
DA:149,0
DA:150,0
DA:151,0
DA:153,0
DA:155,0
DA:157,0
DA:158,0
DA:159,0
DA:162,0
DA:164,0
DA:165,0
DA:167,0
DA:171,0
DA:173,0
DA:174,0
DA:175,0
DA:176,0
DA:177,0
DA:178,0
DA:179,0
DA:183,0
DA:184,0
DA:185,0
BRF:0
BRH:0
LF:86
LH:0
end_of_record
SF:/home/loric/src/skim/src/engine/normalized.rs
FN:79,_RINvMs2_NtNtCs3Snzs7u97BX_4skim6engine10normalizedNtB6_23NormalizedEngineFactory3newNtNtB8_7factory18AndOrEngineFactoryEBa_
FN:79,_RINvMs2_NtNtCs3Snzs7u97BX_4skim6engine10normalizedNtB6_23NormalizedEngineFactory3newNtNtB8_7factory18RegexEngineFactoryEBa_
FN:22,_RNvMNtNtCs3Snzs7u97BX_4skim6engine10normalizedNtB2_16NormalizedEngine3new
FN:55,_RNvXs0_NtNtCs3Snzs7u97BX_4skim6engine10normalizedNtB5_16NormalizedEngineNtNtCs3IJltBbNwOJ_4core3fmt7Display3fmt
FN:64,_RNvXs1_NtNtCs3Snzs7u97BX_4skim6engine10normalizedNtB5_14NormalizedItemNtNtB9_9skim_item8SkimItem4text
FN:85,_RNvXs3_NtNtCs3Snzs7u97BX_4skim6engine10normalizedNtB5_23NormalizedEngineFactoryNtB9_18MatchEngineFactory23create_engine_with_case
FN:28,_RNvXs_NtNtCs3Snzs7u97BX_4skim6engine10normalizedNtB4_16NormalizedEngineNtB8_11MatchEngine10match_item
FN:79,_RINvMs2_NtNtCs2dRlemTKIe9_4skim6engine10normalizedNtB6_23NormalizedEngineFactory3newpEBa_
FN:22,_RNvMNtNtCs2dRlemTKIe9_4skim6engine10normalizedNtB2_16NormalizedEngine3new
FN:55,_RNvXs0_NtNtCs2dRlemTKIe9_4skim6engine10normalizedNtB5_16NormalizedEngineNtNtCs3IJltBbNwOJ_4core3fmt7Display3fmt
FN:64,_RNvXs1_NtNtCs2dRlemTKIe9_4skim6engine10normalizedNtB5_14NormalizedItemNtNtB9_9skim_item8SkimItem4text
FN:85,_RNvXs3_NtNtCs2dRlemTKIe9_4skim6engine10normalizedNtB5_23NormalizedEngineFactoryNtB9_18MatchEngineFactory23create_engine_with_case
FN:28,_RNvXs_NtNtCs2dRlemTKIe9_4skim6engine10normalizedNtB4_16NormalizedEngineNtB8_11MatchEngine10match_item
FNDA:0,_RINvMs2_NtNtCs3Snzs7u97BX_4skim6engine10normalizedNtB6_23NormalizedEngineFactory3newNtNtB8_7factory18AndOrEngineFactoryEBa_
FNDA:0,_RINvMs2_NtNtCs3Snzs7u97BX_4skim6engine10normalizedNtB6_23NormalizedEngineFactory3newNtNtB8_7factory18RegexEngineFactoryEBa_
FNDA:0,_RNvMNtNtCs3Snzs7u97BX_4skim6engine10normalizedNtB2_16NormalizedEngine3new
FNDA:0,_RNvXs0_NtNtCs3Snzs7u97BX_4skim6engine10normalizedNtB5_16NormalizedEngineNtNtCs3IJltBbNwOJ_4core3fmt7Display3fmt
FNDA:0,_RNvXs1_NtNtCs3Snzs7u97BX_4skim6engine10normalizedNtB5_14NormalizedItemNtNtB9_9skim_item8SkimItem4text
FNDA:0,_RNvXs3_NtNtCs3Snzs7u97BX_4skim6engine10normalizedNtB5_23NormalizedEngineFactoryNtB9_18MatchEngineFactory23create_engine_with_case
FNDA:0,_RNvXs_NtNtCs3Snzs7u97BX_4skim6engine10normalizedNtB4_16NormalizedEngineNtB8_11MatchEngine10match_item
FNDA:0,_RINvMs2_NtNtCs2dRlemTKIe9_4skim6engine10normalizedNtB6_23NormalizedEngineFactory3newpEBa_
FNDA:0,_RNvMNtNtCs2dRlemTKIe9_4skim6engine10normalizedNtB2_16NormalizedEngine3new
FNDA:0,_RNvXs0_NtNtCs2dRlemTKIe9_4skim6engine10normalizedNtB5_16NormalizedEngineNtNtCs3IJltBbNwOJ_4core3fmt7Display3fmt
FNDA:0,_RNvXs1_NtNtCs2dRlemTKIe9_4skim6engine10normalizedNtB5_14NormalizedItemNtNtB9_9skim_item8SkimItem4text
FNDA:0,_RNvXs3_NtNtCs2dRlemTKIe9_4skim6engine10normalizedNtB5_23NormalizedEngineFactoryNtB9_18MatchEngineFactory23create_engine_with_case
FNDA:0,_RNvXs_NtNtCs2dRlemTKIe9_4skim6engine10normalizedNtB4_16NormalizedEngineNtB8_11MatchEngine10match_item
FNF:6
FNH:0
DA:22,0
DA:23,0
DA:24,0
DA:28,0
DA:29,0
DA:32,0
DA:33,0
DA:36,0
DA:39,0
DA:42,0
DA:43,0
DA:44,0
DA:45,0
DA:46,0
DA:50,0
DA:51,0
DA:55,0
DA:56,0
DA:57,0
DA:64,0
DA:65,0
DA:66,0
DA:79,0
DA:80,0
DA:81,0
DA:85,0
DA:87,0
DA:90,0
DA:93,0
DA:94,0
BRF:0
BRH:0
LF:30
LH:0
end_of_record
SF:/home/loric/src/skim/src/engine/regexp.rs
FN:89,_RNCNvXs0_NtNtCs3Snzs7u97BX_4skim6engine6regexpNtB7_11RegexEngineNtNtCs3IJltBbNwOJ_4core3fmt7Display3fmt0Bb_
FN:62,_RNCNvXs_NtNtCs3Snzs7u97BX_4skim6engine6regexpNtB6_11RegexEngineNtBa_11MatchEngine10match_item0Ba_
FN:38,_RNvMNtNtCs3Snzs7u97BX_4skim6engine6regexpNtB2_11RegexEngine12rank_builder
FN:43,_RNvMNtNtCs3Snzs7u97BX_4skim6engine6regexpNtB2_11RegexEngine5build
FN:21,_RNvMNtNtCs3Snzs7u97BX_4skim6engine6regexpNtB2_11RegexEngine7builder
FN:83,_RNvXs0_NtNtCs3Snzs7u97BX_4skim6engine6regexpNtB5_11RegexEngineNtNtCs3IJltBbNwOJ_4core3fmt7Display3fmt
FN:49,_RNvXs_NtNtCs3Snzs7u97BX_4skim6engine6regexpNtB4_11RegexEngineNtB8_11MatchEngine10match_item
FN:89,_RNCNvXs0_NtNtCs2dRlemTKIe9_4skim6engine6regexpNtB7_11RegexEngineNtNtCs3IJltBbNwOJ_4core3fmt7Display3fmt0Bb_
FN:62,_RNCNvXs_NtNtCs2dRlemTKIe9_4skim6engine6regexpNtB6_11RegexEngineNtBa_11MatchEngine10match_item0Ba_
FN:38,_RNvMNtNtCs2dRlemTKIe9_4skim6engine6regexpNtB2_11RegexEngine12rank_builder
FN:43,_RNvMNtNtCs2dRlemTKIe9_4skim6engine6regexpNtB2_11RegexEngine5build
FN:21,_RNvMNtNtCs2dRlemTKIe9_4skim6engine6regexpNtB2_11RegexEngine7builder
FN:83,_RNvXs0_NtNtCs2dRlemTKIe9_4skim6engine6regexpNtB5_11RegexEngineNtNtCs3IJltBbNwOJ_4core3fmt7Display3fmt
FN:49,_RNvXs_NtNtCs2dRlemTKIe9_4skim6engine6regexpNtB4_11RegexEngineNtB8_11MatchEngine10match_item
FNDA:0,_RNCNvXs0_NtNtCs3Snzs7u97BX_4skim6engine6regexpNtB7_11RegexEngineNtNtCs3IJltBbNwOJ_4core3fmt7Display3fmt0Bb_
FNDA:0,_RNCNvXs_NtNtCs3Snzs7u97BX_4skim6engine6regexpNtB6_11RegexEngineNtBa_11MatchEngine10match_item0Ba_
FNDA:0,_RNvMNtNtCs3Snzs7u97BX_4skim6engine6regexpNtB2_11RegexEngine12rank_builder
FNDA:0,_RNvMNtNtCs3Snzs7u97BX_4skim6engine6regexpNtB2_11RegexEngine5build
FNDA:0,_RNvMNtNtCs3Snzs7u97BX_4skim6engine6regexpNtB2_11RegexEngine7builder
FNDA:0,_RNvXs0_NtNtCs3Snzs7u97BX_4skim6engine6regexpNtB5_11RegexEngineNtNtCs3IJltBbNwOJ_4core3fmt7Display3fmt
FNDA:0,_RNvXs_NtNtCs3Snzs7u97BX_4skim6engine6regexpNtB4_11RegexEngineNtB8_11MatchEngine10match_item
FNDA:0,_RNCNvXs0_NtNtCs2dRlemTKIe9_4skim6engine6regexpNtB7_11RegexEngineNtNtCs3IJltBbNwOJ_4core3fmt7Display3fmt0Bb_
FNDA:0,_RNCNvXs_NtNtCs2dRlemTKIe9_4skim6engine6regexpNtB6_11RegexEngineNtBa_11MatchEngine10match_item0Ba_
FNDA:0,_RNvMNtNtCs2dRlemTKIe9_4skim6engine6regexpNtB2_11RegexEngine12rank_builder
FNDA:0,_RNvMNtNtCs2dRlemTKIe9_4skim6engine6regexpNtB2_11RegexEngine5build
FNDA:0,_RNvMNtNtCs2dRlemTKIe9_4skim6engine6regexpNtB2_11RegexEngine7builder
FNDA:0,_RNvXs0_NtNtCs2dRlemTKIe9_4skim6engine6regexpNtB5_11RegexEngineNtNtCs3IJltBbNwOJ_4core3fmt7Display3fmt
FNDA:0,_RNvXs_NtNtCs2dRlemTKIe9_4skim6engine6regexpNtB4_11RegexEngineNtB8_11MatchEngine10match_item
FNF:7
FNH:0
DA:21,0
DA:22,0
DA:24,0
DA:25,0
DA:26,0
DA:27,0
DA:30,0
DA:32,0
DA:33,0
DA:34,0
DA:35,0
DA:36,0
DA:38,0
DA:39,0
DA:40,0
DA:41,0
DA:43,0
DA:44,0
DA:45,0
DA:49,0
DA:50,0
DA:51,0
DA:52,0
DA:53,0
DA:54,0
DA:55,0
DA:56,0
DA:57,0
DA:58,0
DA:59,0
DA:62,0
DA:64,0
DA:65,0
DA:66,0
DA:69,0
DA:70,0
DA:71,0
DA:73,0
DA:74,0
DA:75,0
DA:76,0
DA:77,0
DA:78,0
DA:79,0
DA:83,0
DA:84,0
DA:85,0
DA:87,0
DA:88,0
DA:89,0
DA:91,0
BRF:0
BRH:0
LF:53
LH:0
end_of_record
SF:/home/loric/src/skim/src/engine/split.rs
FN:126,_RINvMs2_NtNtCs3Snzs7u97BX_4skim6engine5splitNtB6_23SplitMatchEngineFactory3newNtNtB8_7factory25ExactOrFuzzyEngineFactoryEBa_
FN:37,_RNCNvXs_NtNtCs3Snzs7u97BX_4skim6engine5splitNtB6_16SplitMatchEngineNtBa_11MatchEngine10match_item0Ba_
FN:63,_RNCNvXs_NtNtCs3Snzs7u97BX_4skim6engine5splitNtB6_16SplitMatchEngineNtBa_11MatchEngine10match_items0_0Ba_
FN:73,_RNCNvXs_NtNtCs3Snzs7u97BX_4skim6engine5splitNtB6_16SplitMatchEngineNtBa_11MatchEngine10match_items2_0Ba_
FN:79,_RNCNvXs_NtNtCs3Snzs7u97BX_4skim6engine5splitNtB6_16SplitMatchEngineNtBa_11MatchEngine10match_items3_0Ba_
FN:80,_RNCNvXs_NtNtCs3Snzs7u97BX_4skim6engine5splitNtB6_16SplitMatchEngineNtBa_11MatchEngine10match_items4_0Ba_
FN:23,_RNvMNtNtCs3Snzs7u97BX_4skim6engine5splitNtB2_16SplitMatchEngine3new
FN:97,_RNvXs0_NtNtCs3Snzs7u97BX_4skim6engine5splitNtB5_16SplitMatchEngineNtNtCs3IJltBbNwOJ_4core3fmt7Display3fmt
FN:110,_RNvXs1_NtNtCs3Snzs7u97BX_4skim6engine5splitNtB5_10StringItemNtNtB9_9skim_item8SkimItem4text
FN:135,_RNvXs3_NtNtCs3Snzs7u97BX_4skim6engine5splitNtB5_23SplitMatchEngineFactoryNtB9_18MatchEngineFactory23create_engine_with_case
FN:33,_RNvXs_NtNtCs3Snzs7u97BX_4skim6engine5splitNtB4_16SplitMatchEngineNtB8_11MatchEngine10match_item
FN:126,_RINvMs2_NtNtCs2dRlemTKIe9_4skim6engine5splitNtB6_23SplitMatchEngineFactory3newpEBa_
FN:37,_RNCNvXs_NtNtCs2dRlemTKIe9_4skim6engine5splitNtB6_16SplitMatchEngineNtBa_11MatchEngine10match_item0Ba_
FN:63,_RNCNvXs_NtNtCs2dRlemTKIe9_4skim6engine5splitNtB6_16SplitMatchEngineNtBa_11MatchEngine10match_items0_0Ba_
FN:73,_RNCNvXs_NtNtCs2dRlemTKIe9_4skim6engine5splitNtB6_16SplitMatchEngineNtBa_11MatchEngine10match_items2_0Ba_
FN:79,_RNCNvXs_NtNtCs2dRlemTKIe9_4skim6engine5splitNtB6_16SplitMatchEngineNtBa_11MatchEngine10match_items3_0Ba_
FN:80,_RNCNvXs_NtNtCs2dRlemTKIe9_4skim6engine5splitNtB6_16SplitMatchEngineNtBa_11MatchEngine10match_items4_0Ba_
FN:23,_RNvMNtNtCs2dRlemTKIe9_4skim6engine5splitNtB2_16SplitMatchEngine3new
FN:97,_RNvXs0_NtNtCs2dRlemTKIe9_4skim6engine5splitNtB5_16SplitMatchEngineNtNtCs3IJltBbNwOJ_4core3fmt7Display3fmt
FN:110,_RNvXs1_NtNtCs2dRlemTKIe9_4skim6engine5splitNtB5_10StringItemNtNtB9_9skim_item8SkimItem4text
FN:135,_RNvXs3_NtNtCs2dRlemTKIe9_4skim6engine5splitNtB5_23SplitMatchEngineFactoryNtB9_18MatchEngineFactory23create_engine_with_case
FN:33,_RNvXs_NtNtCs2dRlemTKIe9_4skim6engine5splitNtB4_16SplitMatchEngineNtB8_11MatchEngine10match_item
FNDA:0,_RINvMs2_NtNtCs3Snzs7u97BX_4skim6engine5splitNtB6_23SplitMatchEngineFactory3newNtNtB8_7factory25ExactOrFuzzyEngineFactoryEBa_
FNDA:0,_RNCNvXs_NtNtCs3Snzs7u97BX_4skim6engine5splitNtB6_16SplitMatchEngineNtBa_11MatchEngine10match_item0Ba_
FNDA:0,_RNCNvXs_NtNtCs3Snzs7u97BX_4skim6engine5splitNtB6_16SplitMatchEngineNtBa_11MatchEngine10match_items0_0Ba_
FNDA:0,_RNCNvXs_NtNtCs3Snzs7u97BX_4skim6engine5splitNtB6_16SplitMatchEngineNtBa_11MatchEngine10match_items2_0Ba_
FNDA:0,_RNCNvXs_NtNtCs3Snzs7u97BX_4skim6engine5splitNtB6_16SplitMatchEngineNtBa_11MatchEngine10match_items3_0Ba_
FNDA:0,_RNCNvXs_NtNtCs3Snzs7u97BX_4skim6engine5splitNtB6_16SplitMatchEngineNtBa_11MatchEngine10match_items4_0Ba_
FNDA:0,_RNvMNtNtCs3Snzs7u97BX_4skim6engine5splitNtB2_16SplitMatchEngine3new
FNDA:0,_RNvXs0_NtNtCs3Snzs7u97BX_4skim6engine5splitNtB5_16SplitMatchEngineNtNtCs3IJltBbNwOJ_4core3fmt7Display3fmt
FNDA:0,_RNvXs1_NtNtCs3Snzs7u97BX_4skim6engine5splitNtB5_10StringItemNtNtB9_9skim_item8SkimItem4text
FNDA:0,_RNvXs3_NtNtCs3Snzs7u97BX_4skim6engine5splitNtB5_23SplitMatchEngineFactoryNtB9_18MatchEngineFactory23create_engine_with_case
FNDA:0,_RNvXs_NtNtCs3Snzs7u97BX_4skim6engine5splitNtB4_16SplitMatchEngineNtB8_11MatchEngine10match_item
FNDA:0,_RINvMs2_NtNtCs2dRlemTKIe9_4skim6engine5splitNtB6_23SplitMatchEngineFactory3newpEBa_
FNDA:0,_RNCNvXs_NtNtCs2dRlemTKIe9_4skim6engine5splitNtB6_16SplitMatchEngineNtBa_11MatchEngine10match_item0Ba_
FNDA:0,_RNCNvXs_NtNtCs2dRlemTKIe9_4skim6engine5splitNtB6_16SplitMatchEngineNtBa_11MatchEngine10match_items0_0Ba_
FNDA:0,_RNCNvXs_NtNtCs2dRlemTKIe9_4skim6engine5splitNtB6_16SplitMatchEngineNtBa_11MatchEngine10match_items2_0Ba_
FNDA:0,_RNCNvXs_NtNtCs2dRlemTKIe9_4skim6engine5splitNtB6_16SplitMatchEngineNtBa_11MatchEngine10match_items3_0Ba_
FNDA:0,_RNCNvXs_NtNtCs2dRlemTKIe9_4skim6engine5splitNtB6_16SplitMatchEngineNtBa_11MatchEngine10match_items4_0Ba_
FNDA:0,_RNvMNtNtCs2dRlemTKIe9_4skim6engine5splitNtB2_16SplitMatchEngine3new
FNDA:0,_RNvXs0_NtNtCs2dRlemTKIe9_4skim6engine5splitNtB5_16SplitMatchEngineNtNtCs3IJltBbNwOJ_4core3fmt7Display3fmt
FNDA:0,_RNvXs1_NtNtCs2dRlemTKIe9_4skim6engine5splitNtB5_10StringItemNtNtB9_9skim_item8SkimItem4text
FNDA:0,_RNvXs3_NtNtCs2dRlemTKIe9_4skim6engine5splitNtB5_23SplitMatchEngineFactoryNtB9_18MatchEngineFactory23create_engine_with_case
FNDA:0,_RNvXs_NtNtCs2dRlemTKIe9_4skim6engine5splitNtB4_16SplitMatchEngineNtB8_11MatchEngine10match_item
FNF:11
FNH:0
DA:23,0
DA:24,0
DA:25,0
DA:26,0
DA:27,0
DA:28,0
DA:29,0
DA:33,0
DA:34,0
DA:37,0
DA:40,0
DA:42,0
DA:43,0
DA:46,0
DA:47,0
DA:50,0
DA:51,0
DA:54,0
DA:56,0
DA:57,0
DA:58,0
DA:60,0
DA:61,0
DA:62,0
DA:63,0
DA:64,0
DA:65,0
DA:70,0
DA:72,0
DA:73,0
DA:74,0
DA:76,0
DA:77,0
DA:78,0
DA:79,0
DA:80,0
DA:81,0
DA:85,0
DA:86,0
DA:87,0
DA:89,0
DA:90,0
DA:91,0
DA:92,0
DA:93,0
DA:97,0
DA:98,0
DA:99,0
DA:103,0
DA:110,0
DA:111,0
DA:112,0
DA:126,0
DA:127,0
DA:128,0
DA:129,0
DA:130,0
DA:131,0
DA:135,0
DA:137,0
DA:138,0
DA:139,0
DA:142,0
DA:143,0
DA:145,0
DA:148,0
DA:150,0
BRF:0
BRH:0
LF:72
LH:0
end_of_record
SF:/home/loric/src/skim/src/engine/util.rs
FN:85,_RNCNvNtNtCs3Snzs7u97BX_4skim6engine4util26map_byte_range_to_original0B7_
FN:32,_RNCNvNtNtCs3Snzs7u97BX_4skim6engine4util28map_char_indices_to_original0B7_
FN:96,_RNvNtNtCs3Snzs7u97BX_4skim6engine4util11regex_match
FN:106,_RNvNtNtCs3Snzs7u97BX_4skim6engine4util14contains_upper
FN:65,_RNvNtNtCs3Snzs7u97BX_4skim6engine4util26map_byte_range_to_original
FN:40,_RNvNtNtCs3Snzs7u97BX_4skim6engine4util27normalize_with_byte_mapping
FN:8,_RNvNtNtCs3Snzs7u97BX_4skim6engine4util27normalize_with_char_mapping
FN:29,_RNvNtNtCs3Snzs7u97BX_4skim6engine4util28map_char_indices_to_original
FN:96,_RNvNtNtCs2dRlemTKIe9_4skim6engine4util11regex_match
FN:106,_RNvNtNtCs2dRlemTKIe9_4skim6engine4util14contains_upper
FN:85,_RNCNvNtNtCs2dRlemTKIe9_4skim6engine4util26map_byte_range_to_original0B7_
FN:32,_RNCNvNtNtCs2dRlemTKIe9_4skim6engine4util28map_char_indices_to_original0B7_
FN:65,_RNvNtNtCs2dRlemTKIe9_4skim6engine4util26map_byte_range_to_original
FN:40,_RNvNtNtCs2dRlemTKIe9_4skim6engine4util27normalize_with_byte_mapping
FN:8,_RNvNtNtCs2dRlemTKIe9_4skim6engine4util27normalize_with_char_mapping
FN:29,_RNvNtNtCs2dRlemTKIe9_4skim6engine4util28map_char_indices_to_original
FNDA:0,_RNCNvNtNtCs3Snzs7u97BX_4skim6engine4util26map_byte_range_to_original0B7_
FNDA:0,_RNCNvNtNtCs3Snzs7u97BX_4skim6engine4util28map_char_indices_to_original0B7_
FNDA:0,_RNvNtNtCs3Snzs7u97BX_4skim6engine4util11regex_match
FNDA:0,_RNvNtNtCs3Snzs7u97BX_4skim6engine4util14contains_upper
FNDA:0,_RNvNtNtCs3Snzs7u97BX_4skim6engine4util26map_byte_range_to_original
FNDA:0,_RNvNtNtCs3Snzs7u97BX_4skim6engine4util27normalize_with_byte_mapping
FNDA:0,_RNvNtNtCs3Snzs7u97BX_4skim6engine4util27normalize_with_char_mapping
FNDA:0,_RNvNtNtCs3Snzs7u97BX_4skim6engine4util28map_char_indices_to_original
FNDA:0,_RNvNtNtCs2dRlemTKIe9_4skim6engine4util11regex_match
FNDA:0,_RNvNtNtCs2dRlemTKIe9_4skim6engine4util14contains_upper
FNDA:0,_RNCNvNtNtCs2dRlemTKIe9_4skim6engine4util26map_byte_range_to_original0B7_
FNDA:0,_RNCNvNtNtCs2dRlemTKIe9_4skim6engine4util28map_char_indices_to_original0B7_
FNDA:0,_RNvNtNtCs2dRlemTKIe9_4skim6engine4util26map_byte_range_to_original
FNDA:0,_RNvNtNtCs2dRlemTKIe9_4skim6engine4util27normalize_with_byte_mapping
FNDA:0,_RNvNtNtCs2dRlemTKIe9_4skim6engine4util27normalize_with_char_mapping
FNDA:0,_RNvNtNtCs2dRlemTKIe9_4skim6engine4util28map_char_indices_to_original
FNF:8
FNH:0
DA:8,0
DA:9,0
DA:10,0
DA:12,0
DA:14,0
DA:15,0
DA:16,0
DA:17,0
DA:18,0
DA:22,0
DA:23,0
DA:29,0
DA:30,0
DA:31,0
DA:32,0
DA:33,0
DA:34,0
DA:40,0
DA:41,0
DA:42,0
DA:44,0
DA:46,0
DA:47,0
DA:48,0
DA:49,0
DA:51,0
DA:52,0
DA:53,0
DA:54,0
DA:58,0
DA:59,0
DA:65,0
DA:66,0
DA:67,0
DA:68,0
DA:69,0
DA:70,0
DA:71,0
DA:72,0
DA:73,0
DA:75,0
DA:79,0
DA:80,0
DA:82,0
DA:83,0
DA:84,0
DA:85,0
DA:86,0
DA:87,0
DA:88,0
DA:90,0
DA:93,0
DA:94,0
DA:96,0
DA:97,0
DA:98,0
DA:99,0
DA:100,0
DA:102,0
DA:104,0
DA:106,0
DA:107,0
DA:108,0
DA:109,0
DA:110,0
DA:112,0
DA:113,0
BRF:0
BRH:0
LF:69
LH:0
end_of_record
SF:/home/loric/src/skim/src/field.rs
FN:37,_RNCNvMNtCs3Snzs7u97BX_4skim5fieldNtB4_10FieldRange8from_str0B6_
FN:39,_RNCNvMNtCs3Snzs7u97BX_4skim5fieldNtB4_10FieldRange8from_strs0_0B6_
FN:38,_RNCNvMNtCs3Snzs7u97BX_4skim5fieldNtB4_10FieldRange8from_strs_0B6_
FN:13,_RNCNvNtCs3Snzs7u97BX_4skim5field11FIELD_RANGE0B5_
FN:145,_RNCNvNtCs3Snzs7u97BX_4skim5field19get_string_by_range0B5_
FN:66,_RNvMNtCs3Snzs7u97BX_4skim5fieldNtB2_10FieldRange13to_index_pair
FN:107,_RNvMNtCs3Snzs7u97BX_4skim5fieldNtB2_10FieldRange13translate_neg
FN:31,_RNvMNtCs3Snzs7u97BX_4skim5fieldNtB2_10FieldRange8from_str
FN:131,_RNvNtCs3Snzs7u97BX_4skim5field19get_string_by_field
FN:144,_RNvNtCs3Snzs7u97BX_4skim5field19get_string_by_range
FN:152,_RNvNtCs3Snzs7u97BX_4skim5field21parse_matching_fields
FN:167,_RNvNtCs3Snzs7u97BX_4skim5field22parse_transform_fields
FN:116,_RNvNtCs3Snzs7u97BX_4skim5field23get_ranges_by_delimiter
FN:37,_RNCNvMNtCs2dRlemTKIe9_4skim5fieldNtB4_10FieldRange8from_str0B6_
FN:39,_RNCNvMNtCs2dRlemTKIe9_4skim5fieldNtB4_10FieldRange8from_strs0_0B6_
FN:38,_RNCNvMNtCs2dRlemTKIe9_4skim5fieldNtB4_10FieldRange8from_strs_0B6_
FN:13,_RNCNvNtCs2dRlemTKIe9_4skim5field11FIELD_RANGE0B5_
FN:66,_RNvMNtCs2dRlemTKIe9_4skim5fieldNtB2_10FieldRange13to_index_pair
FN:107,_RNvMNtCs2dRlemTKIe9_4skim5fieldNtB2_10FieldRange13translate_neg
FN:31,_RNvMNtCs2dRlemTKIe9_4skim5fieldNtB2_10FieldRange8from_str
FN:131,_RNvNtCs2dRlemTKIe9_4skim5field19get_string_by_field
FN:152,_RNvNtCs2dRlemTKIe9_4skim5field21parse_matching_fields
FN:167,_RNvNtCs2dRlemTKIe9_4skim5field22parse_transform_fields
FN:116,_RNvNtCs2dRlemTKIe9_4skim5field23get_ranges_by_delimiter
FN:145,_RNCNvNtCs2dRlemTKIe9_4skim5field19get_string_by_range0B5_
FN:144,_RNvNtCs2dRlemTKIe9_4skim5field19get_string_by_range
FNDA:0,_RNCNvMNtCs3Snzs7u97BX_4skim5fieldNtB4_10FieldRange8from_str0B6_
FNDA:0,_RNCNvMNtCs3Snzs7u97BX_4skim5fieldNtB4_10FieldRange8from_strs0_0B6_
FNDA:0,_RNCNvMNtCs3Snzs7u97BX_4skim5fieldNtB4_10FieldRange8from_strs_0B6_
FNDA:0,_RNCNvNtCs3Snzs7u97BX_4skim5field11FIELD_RANGE0B5_
FNDA:0,_RNCNvNtCs3Snzs7u97BX_4skim5field19get_string_by_range0B5_
FNDA:0,_RNvMNtCs3Snzs7u97BX_4skim5fieldNtB2_10FieldRange13to_index_pair
FNDA:0,_RNvMNtCs3Snzs7u97BX_4skim5fieldNtB2_10FieldRange13translate_neg
FNDA:0,_RNvMNtCs3Snzs7u97BX_4skim5fieldNtB2_10FieldRange8from_str
FNDA:0,_RNvNtCs3Snzs7u97BX_4skim5field19get_string_by_field
FNDA:0,_RNvNtCs3Snzs7u97BX_4skim5field19get_string_by_range
FNDA:0,_RNvNtCs3Snzs7u97BX_4skim5field21parse_matching_fields
FNDA:0,_RNvNtCs3Snzs7u97BX_4skim5field22parse_transform_fields
FNDA:0,_RNvNtCs3Snzs7u97BX_4skim5field23get_ranges_by_delimiter
FNDA:0,_RNCNvMNtCs2dRlemTKIe9_4skim5fieldNtB4_10FieldRange8from_str0B6_
FNDA:0,_RNCNvMNtCs2dRlemTKIe9_4skim5fieldNtB4_10FieldRange8from_strs0_0B6_
FNDA:0,_RNCNvMNtCs2dRlemTKIe9_4skim5fieldNtB4_10FieldRange8from_strs_0B6_
FNDA:0,_RNCNvNtCs2dRlemTKIe9_4skim5field11FIELD_RANGE0B5_
FNDA:0,_RNvMNtCs2dRlemTKIe9_4skim5fieldNtB2_10FieldRange13to_index_pair
FNDA:0,_RNvMNtCs2dRlemTKIe9_4skim5fieldNtB2_10FieldRange13translate_neg
FNDA:0,_RNvMNtCs2dRlemTKIe9_4skim5fieldNtB2_10FieldRange8from_str
FNDA:0,_RNvNtCs2dRlemTKIe9_4skim5field19get_string_by_field
FNDA:0,_RNvNtCs2dRlemTKIe9_4skim5field21parse_matching_fields
FNDA:0,_RNvNtCs2dRlemTKIe9_4skim5field22parse_transform_fields
FNDA:0,_RNvNtCs2dRlemTKIe9_4skim5field23get_ranges_by_delimiter
FNDA:0,_RNCNvNtCs2dRlemTKIe9_4skim5field19get_string_by_range0B5_
FNDA:0,_RNvNtCs2dRlemTKIe9_4skim5field19get_string_by_range
FNF:13
FNH:0
DA:13,0
DA:31,0
DA:35,0
DA:36,0
DA:37,0
DA:38,0
DA:39,0
DA:41,0
DA:42,0
DA:43,0
DA:44,0
DA:45,0
DA:46,0
DA:49,0
DA:50,0
DA:51,0
DA:52,0
DA:55,0
DA:58,0
DA:60,0
DA:66,0
DA:68,0
DA:69,0
DA:70,0
DA:71,0
DA:72,0
DA:74,0
DA:77,0
DA:78,0
DA:79,0
DA:80,0
DA:82,0
DA:83,0
DA:86,0
DA:87,0
DA:88,0
DA:89,0
DA:91,0
DA:92,0
DA:95,0
DA:96,0
DA:97,0
DA:98,0
DA:99,0
DA:101,0
DA:105,0
DA:107,0
DA:108,0
DA:109,0
DA:110,0
DA:111,0
DA:116,0
DA:117,0
DA:118,0
DA:119,0
DA:120,0
DA:121,0
DA:122,0
DA:123,0
DA:124,0
DA:125,0
DA:131,0
DA:132,0
DA:134,0
DA:135,0
DA:136,0
DA:137,0
DA:139,0
DA:141,0
DA:144,0
DA:145,0
DA:146,0
DA:152,0
DA:153,0
DA:155,0
DA:156,0
DA:157,0
DA:158,0
DA:159,0
DA:160,0
DA:161,0
DA:163,0
DA:164,0
DA:167,0
DA:168,0
DA:170,0
DA:171,0
DA:172,0
DA:173,0
DA:174,0
DA:175,0
DA:176,0
DA:178,0
DA:179,0
BRF:0
BRH:0
LF:98
LH:0
end_of_record
SF:/home/loric/src/skim/src/fuzzy_matcher/clangd.rs
FN:168,_RNCNvXs0_NtNtCs3Snzs7u97BX_4skim13fuzzy_matcher6clangdNtB7_13ClangdMatcherNtB9_12FuzzyMatcher11fuzzy_match0Bb_
FN:193,_RNCNvXs0_NtNtCs3Snzs7u97BX_4skim13fuzzy_matcher6clangdNtB7_13ClangdMatcherNtB9_12FuzzyMatcher11fuzzy_matchs0_0Bb_
FN:194,_RNCNvXs0_NtNtCs3Snzs7u97BX_4skim13fuzzy_matcher6clangdNtB7_13ClangdMatcherNtB9_12FuzzyMatcher11fuzzy_matchs1_0Bb_
FN:169,_RNCNvXs0_NtNtCs3Snzs7u97BX_4skim13fuzzy_matcher6clangdNtB7_13ClangdMatcherNtB9_12FuzzyMatcher11fuzzy_matchs_0Bb_
FN:106,_RNCNvXs0_NtNtCs3Snzs7u97BX_4skim13fuzzy_matcher6clangdNtB7_13ClangdMatcherNtB9_12FuzzyMatcher13fuzzy_indices0Bb_
FN:157,_RNCNvXs0_NtNtCs3Snzs7u97BX_4skim13fuzzy_matcher6clangdNtB7_13ClangdMatcherNtB9_12FuzzyMatcher13fuzzy_indicess0_0Bb_
FN:158,_RNCNvXs0_NtNtCs3Snzs7u97BX_4skim13fuzzy_matcher6clangdNtB7_13ClangdMatcherNtB9_12FuzzyMatcher13fuzzy_indicess1_0Bb_
FN:107,_RNCNvXs0_NtNtCs3Snzs7u97BX_4skim13fuzzy_matcher6clangdNtB7_13ClangdMatcherNtB9_12FuzzyMatcher13fuzzy_indicess_0Bb_
FN:66,_RNvMs_NtNtCs3Snzs7u97BX_4skim13fuzzy_matcher6clangdNtB4_13ClangdMatcher10smart_case
FN:60,_RNvMs_NtNtCs3Snzs7u97BX_4skim13fuzzy_matcher6clangdNtB4_13ClangdMatcher11ignore_case
FN:72,_RNvMs_NtNtCs3Snzs7u97BX_4skim13fuzzy_matcher6clangdNtB4_13ClangdMatcher12respect_case
FN:83,_RNvMs_NtNtCs3Snzs7u97BX_4skim13fuzzy_matcher6clangdNtB4_13ClangdMatcher14contains_upper
FN:93,_RNvMs_NtNtCs3Snzs7u97BX_4skim13fuzzy_matcher6clangdNtB4_13ClangdMatcher17is_case_sensitive
FN:367,_RNvNtNtCs3Snzs7u97BX_4skim13fuzzy_matcher6clangd11allow_match
FN:213,_RNvNtNtCs3Snzs7u97BX_4skim13fuzzy_matcher6clangd11build_graph
FN:207,_RNvNtNtCs3Snzs7u97BX_4skim13fuzzy_matcher6clangd11fuzzy_match
FN:371,_RNvNtNtCs3Snzs7u97BX_4skim13fuzzy_matcher6clangd11match_bonus
FN:320,_RNvNtNtCs3Snzs7u97BX_4skim13fuzzy_matcher6clangd12adjust_score
FN:352,_RNvNtNtCs3Snzs7u97BX_4skim13fuzzy_matcher6clangd12skip_penalty
FN:202,_RNvNtNtCs3Snzs7u97BX_4skim13fuzzy_matcher6clangd13fuzzy_indices
FN:48,_RNvXNtNtCs3Snzs7u97BX_4skim13fuzzy_matcher6clangdNtB2_13ClangdMatcherNtNtCs3IJltBbNwOJ_4core7default7Default7default
FN:165,_RNvXs0_NtNtCs3Snzs7u97BX_4skim13fuzzy_matcher6clangdNtB5_13ClangdMatcherNtB7_12FuzzyMatcher11fuzzy_match
FN:103,_RNvXs0_NtNtCs3Snzs7u97BX_4skim13fuzzy_matcher6clangdNtB5_13ClangdMatcherNtB7_12FuzzyMatcher13fuzzy_indices
FN:342,_RNvXs1_NtNtCs3Snzs7u97BX_4skim13fuzzy_matcher6clangdNtB5_5ScoreNtNtCs3IJltBbNwOJ_4core7default7Default7default
FN:78,_RNvMs_NtNtCs3Snzs7u97BX_4skim13fuzzy_matcher6clangdNtB4_13ClangdMatcher9use_cache
FN:479,_RNvNtNtCs3Snzs7u97BX_4skim13fuzzy_matcher6clangd8print_dp
FN:168,_RNCNvXs0_NtNtCs2dRlemTKIe9_4skim13fuzzy_matcher6clangdNtB7_13ClangdMatcherNtB9_12FuzzyMatcher11fuzzy_match0Bb_
FN:193,_RNCNvXs0_NtNtCs2dRlemTKIe9_4skim13fuzzy_matcher6clangdNtB7_13ClangdMatcherNtB9_12FuzzyMatcher11fuzzy_matchs0_0Bb_
FN:194,_RNCNvXs0_NtNtCs2dRlemTKIe9_4skim13fuzzy_matcher6clangdNtB7_13ClangdMatcherNtB9_12FuzzyMatcher11fuzzy_matchs1_0Bb_
FN:169,_RNCNvXs0_NtNtCs2dRlemTKIe9_4skim13fuzzy_matcher6clangdNtB7_13ClangdMatcherNtB9_12FuzzyMatcher11fuzzy_matchs_0Bb_
FN:106,_RNCNvXs0_NtNtCs2dRlemTKIe9_4skim13fuzzy_matcher6clangdNtB7_13ClangdMatcherNtB9_12FuzzyMatcher13fuzzy_indices0Bb_
FN:157,_RNCNvXs0_NtNtCs2dRlemTKIe9_4skim13fuzzy_matcher6clangdNtB7_13ClangdMatcherNtB9_12FuzzyMatcher13fuzzy_indicess0_0Bb_
FN:158,_RNCNvXs0_NtNtCs2dRlemTKIe9_4skim13fuzzy_matcher6clangdNtB7_13ClangdMatcherNtB9_12FuzzyMatcher13fuzzy_indicess1_0Bb_
FN:107,_RNCNvXs0_NtNtCs2dRlemTKIe9_4skim13fuzzy_matcher6clangdNtB7_13ClangdMatcherNtB9_12FuzzyMatcher13fuzzy_indicess_0Bb_
FN:66,_RNvMs_NtNtCs2dRlemTKIe9_4skim13fuzzy_matcher6clangdNtB4_13ClangdMatcher10smart_case
FN:60,_RNvMs_NtNtCs2dRlemTKIe9_4skim13fuzzy_matcher6clangdNtB4_13ClangdMatcher11ignore_case
FN:72,_RNvMs_NtNtCs2dRlemTKIe9_4skim13fuzzy_matcher6clangdNtB4_13ClangdMatcher12respect_case
FN:83,_RNvMs_NtNtCs2dRlemTKIe9_4skim13fuzzy_matcher6clangdNtB4_13ClangdMatcher14contains_upper
FN:93,_RNvMs_NtNtCs2dRlemTKIe9_4skim13fuzzy_matcher6clangdNtB4_13ClangdMatcher17is_case_sensitive
FN:367,_RNvNtNtCs2dRlemTKIe9_4skim13fuzzy_matcher6clangd11allow_match
FN:213,_RNvNtNtCs2dRlemTKIe9_4skim13fuzzy_matcher6clangd11build_graph
FN:207,_RNvNtNtCs2dRlemTKIe9_4skim13fuzzy_matcher6clangd11fuzzy_match
FN:371,_RNvNtNtCs2dRlemTKIe9_4skim13fuzzy_matcher6clangd11match_bonus
FN:320,_RNvNtNtCs2dRlemTKIe9_4skim13fuzzy_matcher6clangd12adjust_score
FN:352,_RNvNtNtCs2dRlemTKIe9_4skim13fuzzy_matcher6clangd12skip_penalty
FN:202,_RNvNtNtCs2dRlemTKIe9_4skim13fuzzy_matcher6clangd13fuzzy_indices
FN:48,_RNvXNtNtCs2dRlemTKIe9_4skim13fuzzy_matcher6clangdNtB2_13ClangdMatcherNtNtCs3IJltBbNwOJ_4core7default7Default7default
FN:165,_RNvXs0_NtNtCs2dRlemTKIe9_4skim13fuzzy_matcher6clangdNtB5_13ClangdMatcherNtB7_12FuzzyMatcher11fuzzy_match
FN:103,_RNvXs0_NtNtCs2dRlemTKIe9_4skim13fuzzy_matcher6clangdNtB5_13ClangdMatcherNtB7_12FuzzyMatcher13fuzzy_indices
FN:342,_RNvXs1_NtNtCs2dRlemTKIe9_4skim13fuzzy_matcher6clangdNtB5_5ScoreNtNtCs3IJltBbNwOJ_4core7default7Default7default
FN:78,_RNvMs_NtNtCs2dRlemTKIe9_4skim13fuzzy_matcher6clangdNtB4_13ClangdMatcher9use_cache
FN:479,_RNvNtNtCs2dRlemTKIe9_4skim13fuzzy_matcher6clangd8print_dp
FNDA:0,_RNCNvXs0_NtNtCs3Snzs7u97BX_4skim13fuzzy_matcher6clangdNtB7_13ClangdMatcherNtB9_12FuzzyMatcher11fuzzy_match0Bb_
FNDA:0,_RNCNvXs0_NtNtCs3Snzs7u97BX_4skim13fuzzy_matcher6clangdNtB7_13ClangdMatcherNtB9_12FuzzyMatcher11fuzzy_matchs0_0Bb_
FNDA:0,_RNCNvXs0_NtNtCs3Snzs7u97BX_4skim13fuzzy_matcher6clangdNtB7_13ClangdMatcherNtB9_12FuzzyMatcher11fuzzy_matchs1_0Bb_
FNDA:0,_RNCNvXs0_NtNtCs3Snzs7u97BX_4skim13fuzzy_matcher6clangdNtB7_13ClangdMatcherNtB9_12FuzzyMatcher11fuzzy_matchs_0Bb_
FNDA:0,_RNCNvXs0_NtNtCs3Snzs7u97BX_4skim13fuzzy_matcher6clangdNtB7_13ClangdMatcherNtB9_12FuzzyMatcher13fuzzy_indices0Bb_
FNDA:0,_RNCNvXs0_NtNtCs3Snzs7u97BX_4skim13fuzzy_matcher6clangdNtB7_13ClangdMatcherNtB9_12FuzzyMatcher13fuzzy_indicess0_0Bb_
FNDA:0,_RNCNvXs0_NtNtCs3Snzs7u97BX_4skim13fuzzy_matcher6clangdNtB7_13ClangdMatcherNtB9_12FuzzyMatcher13fuzzy_indicess1_0Bb_
FNDA:0,_RNCNvXs0_NtNtCs3Snzs7u97BX_4skim13fuzzy_matcher6clangdNtB7_13ClangdMatcherNtB9_12FuzzyMatcher13fuzzy_indicess_0Bb_
FNDA:0,_RNvMs_NtNtCs3Snzs7u97BX_4skim13fuzzy_matcher6clangdNtB4_13ClangdMatcher10smart_case
FNDA:0,_RNvMs_NtNtCs3Snzs7u97BX_4skim13fuzzy_matcher6clangdNtB4_13ClangdMatcher11ignore_case
FNDA:0,_RNvMs_NtNtCs3Snzs7u97BX_4skim13fuzzy_matcher6clangdNtB4_13ClangdMatcher12respect_case
FNDA:0,_RNvMs_NtNtCs3Snzs7u97BX_4skim13fuzzy_matcher6clangdNtB4_13ClangdMatcher14contains_upper
FNDA:0,_RNvMs_NtNtCs3Snzs7u97BX_4skim13fuzzy_matcher6clangdNtB4_13ClangdMatcher17is_case_sensitive
FNDA:0,_RNvNtNtCs3Snzs7u97BX_4skim13fuzzy_matcher6clangd11allow_match
FNDA:0,_RNvNtNtCs3Snzs7u97BX_4skim13fuzzy_matcher6clangd11build_graph
FNDA:0,_RNvNtNtCs3Snzs7u97BX_4skim13fuzzy_matcher6clangd11fuzzy_match
FNDA:0,_RNvNtNtCs3Snzs7u97BX_4skim13fuzzy_matcher6clangd11match_bonus
FNDA:0,_RNvNtNtCs3Snzs7u97BX_4skim13fuzzy_matcher6clangd12adjust_score
FNDA:0,_RNvNtNtCs3Snzs7u97BX_4skim13fuzzy_matcher6clangd12skip_penalty
FNDA:0,_RNvNtNtCs3Snzs7u97BX_4skim13fuzzy_matcher6clangd13fuzzy_indices
FNDA:0,_RNvXNtNtCs3Snzs7u97BX_4skim13fuzzy_matcher6clangdNtB2_13ClangdMatcherNtNtCs3IJltBbNwOJ_4core7default7Default7default
FNDA:0,_RNvXs0_NtNtCs3Snzs7u97BX_4skim13fuzzy_matcher6clangdNtB5_13ClangdMatcherNtB7_12FuzzyMatcher11fuzzy_match
FNDA:0,_RNvXs0_NtNtCs3Snzs7u97BX_4skim13fuzzy_matcher6clangdNtB5_13ClangdMatcherNtB7_12FuzzyMatcher13fuzzy_indices
FNDA:0,_RNvXs1_NtNtCs3Snzs7u97BX_4skim13fuzzy_matcher6clangdNtB5_5ScoreNtNtCs3IJltBbNwOJ_4core7default7Default7default
FNDA:0,_RNvMs_NtNtCs3Snzs7u97BX_4skim13fuzzy_matcher6clangdNtB4_13ClangdMatcher9use_cache
FNDA:0,_RNvNtNtCs3Snzs7u97BX_4skim13fuzzy_matcher6clangd8print_dp
FNDA:0,_RNCNvXs0_NtNtCs2dRlemTKIe9_4skim13fuzzy_matcher6clangdNtB7_13ClangdMatcherNtB9_12FuzzyMatcher11fuzzy_match0Bb_
FNDA:0,_RNCNvXs0_NtNtCs2dRlemTKIe9_4skim13fuzzy_matcher6clangdNtB7_13ClangdMatcherNtB9_12FuzzyMatcher11fuzzy_matchs0_0Bb_
FNDA:0,_RNCNvXs0_NtNtCs2dRlemTKIe9_4skim13fuzzy_matcher6clangdNtB7_13ClangdMatcherNtB9_12FuzzyMatcher11fuzzy_matchs1_0Bb_
FNDA:0,_RNCNvXs0_NtNtCs2dRlemTKIe9_4skim13fuzzy_matcher6clangdNtB7_13ClangdMatcherNtB9_12FuzzyMatcher11fuzzy_matchs_0Bb_
FNDA:0,_RNCNvXs0_NtNtCs2dRlemTKIe9_4skim13fuzzy_matcher6clangdNtB7_13ClangdMatcherNtB9_12FuzzyMatcher13fuzzy_indices0Bb_
FNDA:0,_RNCNvXs0_NtNtCs2dRlemTKIe9_4skim13fuzzy_matcher6clangdNtB7_13ClangdMatcherNtB9_12FuzzyMatcher13fuzzy_indicess0_0Bb_
FNDA:0,_RNCNvXs0_NtNtCs2dRlemTKIe9_4skim13fuzzy_matcher6clangdNtB7_13ClangdMatcherNtB9_12FuzzyMatcher13fuzzy_indicess1_0Bb_
FNDA:0,_RNCNvXs0_NtNtCs2dRlemTKIe9_4skim13fuzzy_matcher6clangdNtB7_13ClangdMatcherNtB9_12FuzzyMatcher13fuzzy_indicess_0Bb_
FNDA:0,_RNvMs_NtNtCs2dRlemTKIe9_4skim13fuzzy_matcher6clangdNtB4_13ClangdMatcher10smart_case
FNDA:0,_RNvMs_NtNtCs2dRlemTKIe9_4skim13fuzzy_matcher6clangdNtB4_13ClangdMatcher11ignore_case
FNDA:0,_RNvMs_NtNtCs2dRlemTKIe9_4skim13fuzzy_matcher6clangdNtB4_13ClangdMatcher12respect_case
FNDA:0,_RNvMs_NtNtCs2dRlemTKIe9_4skim13fuzzy_matcher6clangdNtB4_13ClangdMatcher14contains_upper
FNDA:0,_RNvMs_NtNtCs2dRlemTKIe9_4skim13fuzzy_matcher6clangdNtB4_13ClangdMatcher17is_case_sensitive
FNDA:0,_RNvNtNtCs2dRlemTKIe9_4skim13fuzzy_matcher6clangd11allow_match
FNDA:0,_RNvNtNtCs2dRlemTKIe9_4skim13fuzzy_matcher6clangd11build_graph
FNDA:0,_RNvNtNtCs2dRlemTKIe9_4skim13fuzzy_matcher6clangd11fuzzy_match
FNDA:0,_RNvNtNtCs2dRlemTKIe9_4skim13fuzzy_matcher6clangd11match_bonus
FNDA:0,_RNvNtNtCs2dRlemTKIe9_4skim13fuzzy_matcher6clangd12adjust_score
FNDA:0,_RNvNtNtCs2dRlemTKIe9_4skim13fuzzy_matcher6clangd12skip_penalty
FNDA:0,_RNvNtNtCs2dRlemTKIe9_4skim13fuzzy_matcher6clangd13fuzzy_indices
FNDA:0,_RNvXNtNtCs2dRlemTKIe9_4skim13fuzzy_matcher6clangdNtB2_13ClangdMatcherNtNtCs3IJltBbNwOJ_4core7default7Default7default
FNDA:0,_RNvXs0_NtNtCs2dRlemTKIe9_4skim13fuzzy_matcher6clangdNtB5_13ClangdMatcherNtB7_12FuzzyMatcher11fuzzy_match
FNDA:0,_RNvXs0_NtNtCs2dRlemTKIe9_4skim13fuzzy_matcher6clangdNtB5_13ClangdMatcherNtB7_12FuzzyMatcher13fuzzy_indices
FNDA:0,_RNvXs1_NtNtCs2dRlemTKIe9_4skim13fuzzy_matcher6clangdNtB5_5ScoreNtNtCs3IJltBbNwOJ_4core7default7Default7default
FNDA:0,_RNvMs_NtNtCs2dRlemTKIe9_4skim13fuzzy_matcher6clangdNtB4_13ClangdMatcher9use_cache
FNDA:0,_RNvNtNtCs2dRlemTKIe9_4skim13fuzzy_matcher6clangd8print_dp
FNF:26
FNH:0
DA:48,0
DA:49,0
DA:50,0
DA:51,0
DA:52,0
DA:53,0
DA:54,0
DA:55,0
DA:60,0
DA:61,0
DA:62,0
DA:63,0
DA:66,0
DA:67,0
DA:68,0
DA:69,0
DA:72,0
DA:73,0
DA:74,0
DA:75,0
DA:78,0
DA:79,0
DA:80,0
DA:81,0
DA:83,0
DA:84,0
DA:85,0
DA:86,0
DA:87,0
DA:90,0
DA:91,0
DA:93,0
DA:94,0
DA:95,0
DA:96,0
DA:97,0
DA:99,0
DA:103,0
DA:104,0
DA:106,0
DA:107,0
DA:109,0
DA:110,0
DA:111,0
DA:112,0
DA:114,0
DA:115,0
DA:116,0
DA:117,0
DA:119,0
DA:121,0
DA:122,0
DA:124,0
DA:127,0
DA:128,0
DA:130,0
DA:131,0
DA:133,0
DA:136,0
DA:137,0
DA:139,0
DA:140,0
DA:141,0
DA:142,0
DA:144,0
DA:145,0
DA:146,0
DA:147,0
DA:148,0
DA:149,0
DA:150,0
DA:151,0
DA:152,0
DA:155,0
DA:157,0
DA:158,0
DA:159,0
DA:161,0
DA:162,0
DA:163,0
DA:165,0
DA:166,0
DA:168,0
DA:169,0
DA:171,0
DA:172,0
DA:173,0
DA:174,0
DA:176,0
DA:177,0
DA:178,0
DA:179,0
DA:181,0
DA:183,0
DA:184,0
DA:186,0
DA:188,0
DA:189,0
DA:191,0
DA:193,0
DA:194,0
DA:195,0
DA:197,0
DA:198,0
DA:202,0
DA:203,0
DA:204,0
DA:207,0
DA:208,0
DA:209,0
DA:213,0
DA:214,0
DA:215,0
DA:216,0
DA:218,0
DA:220,0
DA:221,0
DA:222,0
DA:224,0
DA:227,0
DA:228,0
DA:229,0
DA:230,0
DA:231,0
DA:232,0
DA:233,0
DA:234,0
DA:237,0
DA:238,0
DA:239,0
DA:240,0
DA:242,0
DA:243,0
DA:244,0
DA:245,0
DA:246,0
DA:247,0
DA:251,0
DA:252,0
DA:253,0
DA:254,0
DA:255,0
DA:256,0
DA:257,0
DA:259,0
DA:260,0
DA:262,0
DA:267,0
DA:268,0
DA:269,0
DA:270,0
DA:271,0
DA:272,0
DA:273,0
DA:274,0
DA:275,0
DA:276,0
DA:277,0
DA:278,0
DA:280,0
DA:283,0
DA:284,0
DA:285,0
DA:286,0
DA:287,0
DA:288,0
DA:289,0
DA:290,0
DA:291,0
DA:292,0
DA:293,0
DA:295,0
DA:298,0
DA:299,0
DA:301,0
DA:304,0
DA:305,0
DA:306,0
DA:307,0
DA:308,0
DA:309,0
DA:311,0
DA:314,0
DA:317,0
DA:318,0
DA:320,0
DA:322,0
DA:323,0
DA:342,0
DA:343,0
DA:344,0
DA:345,0
DA:346,0
DA:347,0
DA:348,0
DA:349,0
DA:352,0
DA:353,0
DA:354,0
DA:355,0
DA:356,0
DA:357,0
DA:359,0
DA:360,0
DA:361,0
DA:362,0
DA:364,0
DA:365,0
DA:367,0
DA:368,0
DA:369,0
DA:371,0
DA:372,0
DA:373,0
DA:374,0
DA:375,0
DA:376,0
DA:377,0
DA:378,0
DA:379,0
DA:380,0
DA:381,0
DA:382,0
DA:385,0
DA:386,0
DA:387,0
DA:390,0
DA:391,0
DA:392,0
DA:395,0
DA:396,0
DA:397,0
DA:400,0
DA:401,0
DA:402,0
DA:405,0
DA:406,0
DA:407,0
DA:410,0
DA:411,0
DA:412,0
DA:415,0
DA:416,0
DA:417,0
DA:419,0
DA:420,0
DA:479,0
DA:480,0
DA:481,0
DA:483,0
DA:484,0
DA:485,0
DA:486,0
DA:488,0
DA:489,0
DA:490,0
DA:491,0
DA:494,0
DA:495,0
DA:497,0
DA:500,0
DA:501,0
DA:503,0
DA:508,0
BRF:0
BRH:0
LF:272
LH:0
end_of_record
SF:/home/loric/src/skim/src/fuzzy_matcher/frizbee.rs
FN:12,_RNvNtNtCs3Snzs7u97BX_4skim13fuzzy_matcher7frizbee8adaptive
FN:22,_RNvXNtNtCs3Snzs7u97BX_4skim13fuzzy_matcher7frizbeeNtB2_14FrizbeeMatcherNtB4_12FuzzyMatcher13fuzzy_indices
FN:12,_RNvNtNtCs2dRlemTKIe9_4skim13fuzzy_matcher7frizbee8adaptive
FN:22,_RNvXNtNtCs2dRlemTKIe9_4skim13fuzzy_matcher7frizbeeNtB2_14FrizbeeMatcherNtB4_12FuzzyMatcher13fuzzy_indices
FNDA:0,_RNvNtNtCs3Snzs7u97BX_4skim13fuzzy_matcher7frizbee8adaptive
FNDA:0,_RNvXNtNtCs3Snzs7u97BX_4skim13fuzzy_matcher7frizbeeNtB2_14FrizbeeMatcherNtB4_12FuzzyMatcher13fuzzy_indices
FNDA:0,_RNvNtNtCs2dRlemTKIe9_4skim13fuzzy_matcher7frizbee8adaptive
FNDA:0,_RNvXNtNtCs2dRlemTKIe9_4skim13fuzzy_matcher7frizbeeNtB2_14FrizbeeMatcherNtB4_12FuzzyMatcher13fuzzy_indices
FNF:2
FNH:0
DA:12,0
DA:13,0
DA:14,0
DA:15,0
DA:16,0
DA:17,0
DA:18,0
DA:19,0
DA:22,0
DA:23,0
DA:25,0
DA:26,0
DA:27,0
DA:28,0
DA:29,0
DA:30,0
DA:31,0
DA:35,0
DA:36,0
BRF:0
BRH:0
LF:19
LH:0
end_of_record
SF:/home/loric/src/skim/src/fuzzy_matcher/mod.rs
FN:23,_RNvYNtNtNtCs3Snzs7u97BX_4skim13fuzzy_matcher7frizbee14FrizbeeMatcherNtB6_12FuzzyMatcher11fuzzy_matchB8_
FN:23,_RNvYNtNtNtCs2dRlemTKIe9_4skim13fuzzy_matcher7frizbee14FrizbeeMatcherNtB6_12FuzzyMatcher11fuzzy_matchB8_
FNDA:0,_RNvYNtNtNtCs3Snzs7u97BX_4skim13fuzzy_matcher7frizbee14FrizbeeMatcherNtB6_12FuzzyMatcher11fuzzy_matchB8_
FNDA:0,_RNvYNtNtNtCs2dRlemTKIe9_4skim13fuzzy_matcher7frizbee14FrizbeeMatcherNtB6_12FuzzyMatcher11fuzzy_matchB8_
FNF:1
FNH:0
DA:23,0
DA:24,0
DA:25,0
BRF:0
BRH:0
LF:3
LH:0
end_of_record
SF:/home/loric/src/skim/src/fuzzy_matcher/skim.rs
FN:816,_RNCNvMsa_NtNtCs3Snzs7u97BX_4skim13fuzzy_matcher4skimNtB7_13SkimMatcherV214contains_upper0Bb_
FN:834,_RNCNvMsa_NtNtCs3Snzs7u97BX_4skim13fuzzy_matcher4skimNtB7_13SkimMatcherV25fuzzy0Bb_
FN:836,_RNCNvMsa_NtNtCs3Snzs7u97BX_4skim13fuzzy_matcher4skimNtB7_13SkimMatcherV25fuzzys0_0Bb_
FN:877,_RNCNvMsa_NtNtCs3Snzs7u97BX_4skim13fuzzy_matcher4skimNtB7_13SkimMatcherV25fuzzys2_0Bb_
FN:918,_RNCNvMsa_NtNtCs3Snzs7u97BX_4skim13fuzzy_matcher4skimNtB7_13SkimMatcherV25fuzzys3_0Bb_
FN:919,_RNCNvMsa_NtNtCs3Snzs7u97BX_4skim13fuzzy_matcher4skimNtB7_13SkimMatcherV25fuzzys4_0Bb_
FN:920,_RNCNvMsa_NtNtCs3Snzs7u97BX_4skim13fuzzy_matcher4skimNtB7_13SkimMatcherV25fuzzys5_0Bb_
FN:835,_RNCNvMsa_NtNtCs3Snzs7u97BX_4skim13fuzzy_matcher4skimNtB7_13SkimMatcherV25fuzzys_0Bb_
FN:189,_RNCNvNtNtCs3Snzs7u97BX_4skim13fuzzy_matcher4skim11build_graph0B7_
FN:191,_RNCNvNtNtCs3Snzs7u97BX_4skim13fuzzy_matcher4skim11build_graphs0_0B7_
FN:190,_RNCNvNtNtCs3Snzs7u97BX_4skim13fuzzy_matcher4skim11build_graphs_0B7_
FN:368,_RNvMs2_NtNtCs3Snzs7u97BX_4skim13fuzzy_matcher4skimNtB5_10MatrixCell5reset
FN:387,_RNvMs3_NtNtCs3Snzs7u97BX_4skim13fuzzy_matcher4skimNtB5_11ScoreMatrix3new
FN:397,_RNvMs3_NtNtCs3Snzs7u97BX_4skim13fuzzy_matcher4skimNtB5_11ScoreMatrix7get_row
FN:393,_RNvMs3_NtNtCs3Snzs7u97BX_4skim13fuzzy_matcher4skimNtB5_11ScoreMatrix9get_index
FN:484,_RNvMs7_NtNtCs3Snzs7u97BX_4skim13fuzzy_matcher4skimNtB5_8CharType2of
FN:523,_RNvMs8_NtNtCs3Snzs7u97BX_4skim13fuzzy_matcher4skimNtB5_8CharRole2of
FN:526,_RNvMs8_NtNtCs3Snzs7u97BX_4skim13fuzzy_matcher4skimNtB5_8CharRole7of_type
FN:643,_RNvMsa_NtNtCs3Snzs7u97BX_4skim13fuzzy_matcher4skimNtB5_13SkimMatcherV210smart_case
FN:637,_RNvMsa_NtNtCs3Snzs7u97BX_4skim13fuzzy_matcher4skimNtB5_13SkimMatcherV211ignore_case
FN:649,_RNvMsa_NtNtCs3Snzs7u97BX_4skim13fuzzy_matcher4skimNtB5_13SkimMatcherV212respect_case
FN:927,_RNvMsa_NtNtCs3Snzs7u97BX_4skim13fuzzy_matcher4skimNtB5_13SkimMatcherV212simple_match
FN:631,_RNvMsa_NtNtCs3Snzs7u97BX_4skim13fuzzy_matcher4skimNtB5_13SkimMatcherV213element_limit
FN:783,_RNvMsa_NtNtCs3Snzs7u97BX_4skim13fuzzy_matcher4skimNtB5_13SkimMatcherV214adjust_row_idx
FN:815,_RNvMsa_NtNtCs3Snzs7u97BX_4skim13fuzzy_matcher4skimNtB5_13SkimMatcherV214contains_upper
FN:806,_RNvMsa_NtNtCs3Snzs7u97BX_4skim13fuzzy_matcher4skimNtB5_13SkimMatcherV214in_place_bonus
FN:667,_RNvMsa_NtNtCs3Snzs7u97BX_4skim13fuzzy_matcher4skimNtB5_13SkimMatcherV218build_score_matrix
FN:767,_RNvMsa_NtNtCs3Snzs7u97BX_4skim13fuzzy_matcher4skimNtB5_13SkimMatcherV220build_in_place_bonus
FN:789,_RNvMsa_NtNtCs3Snzs7u97BX_4skim13fuzzy_matcher4skimNtB5_13SkimMatcherV221calculate_match_score
FN:965,_RNvMsa_NtNtCs3Snzs7u97BX_4skim13fuzzy_matcher4skimNtB5_13SkimMatcherV224calculate_score_with_pos
FN:820,_RNvMsa_NtNtCs3Snzs7u97BX_4skim13fuzzy_matcher4skimNtB5_13SkimMatcherV25fuzzy
FN:127,_RNvNtNtCs3Snzs7u97BX_4skim13fuzzy_matcher4skim11build_graph
FN:63,_RNvNtNtCs3Snzs7u97BX_4skim13fuzzy_matcher4skim11fuzzy_match
FN:226,_RNvNtNtCs3Snzs7u97BX_4skim13fuzzy_matcher4skim11fuzzy_score
FN:81,_RNvNtNtCs3Snzs7u97BX_4skim13fuzzy_matcher4skim13fuzzy_indices
FN:56,_RNvXNtNtCs3Snzs7u97BX_4skim13fuzzy_matcher4skimNtB2_11SkimMatcherNtB4_12FuzzyMatcher11fuzzy_match
FN:52,_RNvXNtNtCs3Snzs7u97BX_4skim13fuzzy_matcher4skimNtB2_11SkimMatcherNtB4_12FuzzyMatcher13fuzzy_indices
FN:311,_RNvXs0_NtNtCs3Snzs7u97BX_4skim13fuzzy_matcher4skimNtB5_15SkimScoreConfigNtNtCs3IJltBbNwOJ_4core7default7Default7default
FN:355,_RNvXs1_NtNtCs3Snzs7u97BX_4skim13fuzzy_matcher4skimNtB5_10MatrixCellNtNtCs3IJltBbNwOJ_4core7default7Default7default
FN:406,_RNvXs4_NtNtCs3Snzs7u97BX_4skim13fuzzy_matcher4skimNtB5_11ScoreMatrixINtNtNtCs3IJltBbNwOJ_4core3ops5index5IndexTjjEE5index
FN:412,_RNvXs5_NtNtCs3Snzs7u97BX_4skim13fuzzy_matcher4skimNtB5_11ScoreMatrixINtNtNtCs3IJltBbNwOJ_4core3ops5index8IndexMutTjjEE9index_mut
FN:418,_RNvXs6_NtNtCs3Snzs7u97BX_4skim13fuzzy_matcher4skimNtB5_11ScoreMatrixNtNtCs3IJltBbNwOJ_4core3fmt5Debug3fmt
FN:608,_RNvXs9_NtNtCs3Snzs7u97BX_4skim13fuzzy_matcher4skimNtB5_13SkimMatcherV2NtNtCs3IJltBbNwOJ_4core7default7Default7default
FN:116,_RNvXs_NtNtCs3Snzs7u97BX_4skim13fuzzy_matcher4skimNtB4_14MatchingStatusNtNtCs3IJltBbNwOJ_4core7default7Default7default
FN:1040,_RNvXsb_NtNtCs3Snzs7u97BX_4skim13fuzzy_matcher4skimNtB5_13SkimMatcherV2NtB7_12FuzzyMatcher11fuzzy_match
FN:1036,_RNvXsb_NtNtCs3Snzs7u97BX_4skim13fuzzy_matcher4skimNtB5_13SkimMatcherV2NtB7_12FuzzyMatcher13fuzzy_indices
FN:625,_RNvMsa_NtNtCs3Snzs7u97BX_4skim13fuzzy_matcher4skimNtB5_13SkimMatcherV212score_config
FN:661,_RNvMsa_NtNtCs3Snzs7u97BX_4skim13fuzzy_matcher4skimNtB5_13SkimMatcherV25debug
FN:655,_RNvMsa_NtNtCs3Snzs7u97BX_4skim13fuzzy_matcher4skimNtB5_13SkimMatcherV29use_cache
FN:816,_RNCNvMsa_NtNtCs2dRlemTKIe9_4skim13fuzzy_matcher4skimNtB7_13SkimMatcherV214contains_upper0Bb_
FN:834,_RNCNvMsa_NtNtCs2dRlemTKIe9_4skim13fuzzy_matcher4skimNtB7_13SkimMatcherV25fuzzy0Bb_
FN:836,_RNCNvMsa_NtNtCs2dRlemTKIe9_4skim13fuzzy_matcher4skimNtB7_13SkimMatcherV25fuzzys0_0Bb_
FN:877,_RNCNvMsa_NtNtCs2dRlemTKIe9_4skim13fuzzy_matcher4skimNtB7_13SkimMatcherV25fuzzys2_0Bb_
FN:918,_RNCNvMsa_NtNtCs2dRlemTKIe9_4skim13fuzzy_matcher4skimNtB7_13SkimMatcherV25fuzzys3_0Bb_
FN:919,_RNCNvMsa_NtNtCs2dRlemTKIe9_4skim13fuzzy_matcher4skimNtB7_13SkimMatcherV25fuzzys4_0Bb_
FN:920,_RNCNvMsa_NtNtCs2dRlemTKIe9_4skim13fuzzy_matcher4skimNtB7_13SkimMatcherV25fuzzys5_0Bb_
FN:835,_RNCNvMsa_NtNtCs2dRlemTKIe9_4skim13fuzzy_matcher4skimNtB7_13SkimMatcherV25fuzzys_0Bb_
FN:189,_RNCNvNtNtCs2dRlemTKIe9_4skim13fuzzy_matcher4skim11build_graph0B7_
FN:191,_RNCNvNtNtCs2dRlemTKIe9_4skim13fuzzy_matcher4skim11build_graphs0_0B7_
FN:190,_RNCNvNtNtCs2dRlemTKIe9_4skim13fuzzy_matcher4skim11build_graphs_0B7_
FN:368,_RNvMs2_NtNtCs2dRlemTKIe9_4skim13fuzzy_matcher4skimNtB5_10MatrixCell5reset
FN:387,_RNvMs3_NtNtCs2dRlemTKIe9_4skim13fuzzy_matcher4skimNtB5_11ScoreMatrix3new
FN:397,_RNvMs3_NtNtCs2dRlemTKIe9_4skim13fuzzy_matcher4skimNtB5_11ScoreMatrix7get_row
FN:393,_RNvMs3_NtNtCs2dRlemTKIe9_4skim13fuzzy_matcher4skimNtB5_11ScoreMatrix9get_index
FN:484,_RNvMs7_NtNtCs2dRlemTKIe9_4skim13fuzzy_matcher4skimNtB5_8CharType2of
FN:523,_RNvMs8_NtNtCs2dRlemTKIe9_4skim13fuzzy_matcher4skimNtB5_8CharRole2of
FN:526,_RNvMs8_NtNtCs2dRlemTKIe9_4skim13fuzzy_matcher4skimNtB5_8CharRole7of_type
FN:643,_RNvMsa_NtNtCs2dRlemTKIe9_4skim13fuzzy_matcher4skimNtB5_13SkimMatcherV210smart_case
FN:637,_RNvMsa_NtNtCs2dRlemTKIe9_4skim13fuzzy_matcher4skimNtB5_13SkimMatcherV211ignore_case
FN:649,_RNvMsa_NtNtCs2dRlemTKIe9_4skim13fuzzy_matcher4skimNtB5_13SkimMatcherV212respect_case
FN:927,_RNvMsa_NtNtCs2dRlemTKIe9_4skim13fuzzy_matcher4skimNtB5_13SkimMatcherV212simple_match
FN:631,_RNvMsa_NtNtCs2dRlemTKIe9_4skim13fuzzy_matcher4skimNtB5_13SkimMatcherV213element_limit
FN:783,_RNvMsa_NtNtCs2dRlemTKIe9_4skim13fuzzy_matcher4skimNtB5_13SkimMatcherV214adjust_row_idx
FN:815,_RNvMsa_NtNtCs2dRlemTKIe9_4skim13fuzzy_matcher4skimNtB5_13SkimMatcherV214contains_upper
FN:806,_RNvMsa_NtNtCs2dRlemTKIe9_4skim13fuzzy_matcher4skimNtB5_13SkimMatcherV214in_place_bonus
FN:667,_RNvMsa_NtNtCs2dRlemTKIe9_4skim13fuzzy_matcher4skimNtB5_13SkimMatcherV218build_score_matrix
FN:767,_RNvMsa_NtNtCs2dRlemTKIe9_4skim13fuzzy_matcher4skimNtB5_13SkimMatcherV220build_in_place_bonus
FN:789,_RNvMsa_NtNtCs2dRlemTKIe9_4skim13fuzzy_matcher4skimNtB5_13SkimMatcherV221calculate_match_score
FN:965,_RNvMsa_NtNtCs2dRlemTKIe9_4skim13fuzzy_matcher4skimNtB5_13SkimMatcherV224calculate_score_with_pos
FN:661,_RNvMsa_NtNtCs2dRlemTKIe9_4skim13fuzzy_matcher4skimNtB5_13SkimMatcherV25debug
FN:820,_RNvMsa_NtNtCs2dRlemTKIe9_4skim13fuzzy_matcher4skimNtB5_13SkimMatcherV25fuzzy
FN:127,_RNvNtNtCs2dRlemTKIe9_4skim13fuzzy_matcher4skim11build_graph
FN:63,_RNvNtNtCs2dRlemTKIe9_4skim13fuzzy_matcher4skim11fuzzy_match
FN:226,_RNvNtNtCs2dRlemTKIe9_4skim13fuzzy_matcher4skim11fuzzy_score
FN:81,_RNvNtNtCs2dRlemTKIe9_4skim13fuzzy_matcher4skim13fuzzy_indices
FN:56,_RNvXNtNtCs2dRlemTKIe9_4skim13fuzzy_matcher4skimNtB2_11SkimMatcherNtB4_12FuzzyMatcher11fuzzy_match
FN:52,_RNvXNtNtCs2dRlemTKIe9_4skim13fuzzy_matcher4skimNtB2_11SkimMatcherNtB4_12FuzzyMatcher13fuzzy_indices
FN:311,_RNvXs0_NtNtCs2dRlemTKIe9_4skim13fuzzy_matcher4skimNtB5_15SkimScoreConfigNtNtCs3IJltBbNwOJ_4core7default7Default7default
FN:355,_RNvXs1_NtNtCs2dRlemTKIe9_4skim13fuzzy_matcher4skimNtB5_10MatrixCellNtNtCs3IJltBbNwOJ_4core7default7Default7default
FN:406,_RNvXs4_NtNtCs2dRlemTKIe9_4skim13fuzzy_matcher4skimNtB5_11ScoreMatrixINtNtNtCs3IJltBbNwOJ_4core3ops5index5IndexTjjEE5index
FN:412,_RNvXs5_NtNtCs2dRlemTKIe9_4skim13fuzzy_matcher4skimNtB5_11ScoreMatrixINtNtNtCs3IJltBbNwOJ_4core3ops5index8IndexMutTjjEE9index_mut
FN:418,_RNvXs6_NtNtCs2dRlemTKIe9_4skim13fuzzy_matcher4skimNtB5_11ScoreMatrixNtNtCs3IJltBbNwOJ_4core3fmt5Debug3fmt
FN:608,_RNvXs9_NtNtCs2dRlemTKIe9_4skim13fuzzy_matcher4skimNtB5_13SkimMatcherV2NtNtCs3IJltBbNwOJ_4core7default7Default7default
FN:116,_RNvXs_NtNtCs2dRlemTKIe9_4skim13fuzzy_matcher4skimNtB4_14MatchingStatusNtNtCs3IJltBbNwOJ_4core7default7Default7default
FN:1040,_RNvXsb_NtNtCs2dRlemTKIe9_4skim13fuzzy_matcher4skimNtB5_13SkimMatcherV2NtB7_12FuzzyMatcher11fuzzy_match
FN:1036,_RNvXsb_NtNtCs2dRlemTKIe9_4skim13fuzzy_matcher4skimNtB5_13SkimMatcherV2NtB7_12FuzzyMatcher13fuzzy_indices
FN:625,_RNvMsa_NtNtCs2dRlemTKIe9_4skim13fuzzy_matcher4skimNtB5_13SkimMatcherV212score_config
FN:655,_RNvMsa_NtNtCs2dRlemTKIe9_4skim13fuzzy_matcher4skimNtB5_13SkimMatcherV29use_cache
FNDA:0,_RNCNvMsa_NtNtCs3Snzs7u97BX_4skim13fuzzy_matcher4skimNtB7_13SkimMatcherV214contains_upper0Bb_
FNDA:0,_RNCNvMsa_NtNtCs3Snzs7u97BX_4skim13fuzzy_matcher4skimNtB7_13SkimMatcherV25fuzzy0Bb_
FNDA:0,_RNCNvMsa_NtNtCs3Snzs7u97BX_4skim13fuzzy_matcher4skimNtB7_13SkimMatcherV25fuzzys0_0Bb_
FNDA:0,_RNCNvMsa_NtNtCs3Snzs7u97BX_4skim13fuzzy_matcher4skimNtB7_13SkimMatcherV25fuzzys2_0Bb_
FNDA:0,_RNCNvMsa_NtNtCs3Snzs7u97BX_4skim13fuzzy_matcher4skimNtB7_13SkimMatcherV25fuzzys3_0Bb_
FNDA:0,_RNCNvMsa_NtNtCs3Snzs7u97BX_4skim13fuzzy_matcher4skimNtB7_13SkimMatcherV25fuzzys4_0Bb_
FNDA:0,_RNCNvMsa_NtNtCs3Snzs7u97BX_4skim13fuzzy_matcher4skimNtB7_13SkimMatcherV25fuzzys5_0Bb_
FNDA:0,_RNCNvMsa_NtNtCs3Snzs7u97BX_4skim13fuzzy_matcher4skimNtB7_13SkimMatcherV25fuzzys_0Bb_
FNDA:0,_RNCNvNtNtCs3Snzs7u97BX_4skim13fuzzy_matcher4skim11build_graph0B7_
FNDA:0,_RNCNvNtNtCs3Snzs7u97BX_4skim13fuzzy_matcher4skim11build_graphs0_0B7_
FNDA:0,_RNCNvNtNtCs3Snzs7u97BX_4skim13fuzzy_matcher4skim11build_graphs_0B7_
FNDA:0,_RNvMs2_NtNtCs3Snzs7u97BX_4skim13fuzzy_matcher4skimNtB5_10MatrixCell5reset
FNDA:0,_RNvMs3_NtNtCs3Snzs7u97BX_4skim13fuzzy_matcher4skimNtB5_11ScoreMatrix3new
FNDA:0,_RNvMs3_NtNtCs3Snzs7u97BX_4skim13fuzzy_matcher4skimNtB5_11ScoreMatrix7get_row
FNDA:0,_RNvMs3_NtNtCs3Snzs7u97BX_4skim13fuzzy_matcher4skimNtB5_11ScoreMatrix9get_index
FNDA:0,_RNvMs7_NtNtCs3Snzs7u97BX_4skim13fuzzy_matcher4skimNtB5_8CharType2of
FNDA:0,_RNvMs8_NtNtCs3Snzs7u97BX_4skim13fuzzy_matcher4skimNtB5_8CharRole2of
FNDA:0,_RNvMs8_NtNtCs3Snzs7u97BX_4skim13fuzzy_matcher4skimNtB5_8CharRole7of_type
FNDA:0,_RNvMsa_NtNtCs3Snzs7u97BX_4skim13fuzzy_matcher4skimNtB5_13SkimMatcherV210smart_case
FNDA:0,_RNvMsa_NtNtCs3Snzs7u97BX_4skim13fuzzy_matcher4skimNtB5_13SkimMatcherV211ignore_case
FNDA:0,_RNvMsa_NtNtCs3Snzs7u97BX_4skim13fuzzy_matcher4skimNtB5_13SkimMatcherV212respect_case
FNDA:0,_RNvMsa_NtNtCs3Snzs7u97BX_4skim13fuzzy_matcher4skimNtB5_13SkimMatcherV212simple_match
FNDA:0,_RNvMsa_NtNtCs3Snzs7u97BX_4skim13fuzzy_matcher4skimNtB5_13SkimMatcherV213element_limit
FNDA:0,_RNvMsa_NtNtCs3Snzs7u97BX_4skim13fuzzy_matcher4skimNtB5_13SkimMatcherV214adjust_row_idx
FNDA:0,_RNvMsa_NtNtCs3Snzs7u97BX_4skim13fuzzy_matcher4skimNtB5_13SkimMatcherV214contains_upper
FNDA:0,_RNvMsa_NtNtCs3Snzs7u97BX_4skim13fuzzy_matcher4skimNtB5_13SkimMatcherV214in_place_bonus
FNDA:0,_RNvMsa_NtNtCs3Snzs7u97BX_4skim13fuzzy_matcher4skimNtB5_13SkimMatcherV218build_score_matrix
FNDA:0,_RNvMsa_NtNtCs3Snzs7u97BX_4skim13fuzzy_matcher4skimNtB5_13SkimMatcherV220build_in_place_bonus
FNDA:0,_RNvMsa_NtNtCs3Snzs7u97BX_4skim13fuzzy_matcher4skimNtB5_13SkimMatcherV221calculate_match_score
FNDA:0,_RNvMsa_NtNtCs3Snzs7u97BX_4skim13fuzzy_matcher4skimNtB5_13SkimMatcherV224calculate_score_with_pos
FNDA:0,_RNvMsa_NtNtCs3Snzs7u97BX_4skim13fuzzy_matcher4skimNtB5_13SkimMatcherV25fuzzy
FNDA:0,_RNvNtNtCs3Snzs7u97BX_4skim13fuzzy_matcher4skim11build_graph
FNDA:0,_RNvNtNtCs3Snzs7u97BX_4skim13fuzzy_matcher4skim11fuzzy_match
FNDA:0,_RNvNtNtCs3Snzs7u97BX_4skim13fuzzy_matcher4skim11fuzzy_score
FNDA:0,_RNvNtNtCs3Snzs7u97BX_4skim13fuzzy_matcher4skim13fuzzy_indices
FNDA:0,_RNvXNtNtCs3Snzs7u97BX_4skim13fuzzy_matcher4skimNtB2_11SkimMatcherNtB4_12FuzzyMatcher11fuzzy_match
FNDA:0,_RNvXNtNtCs3Snzs7u97BX_4skim13fuzzy_matcher4skimNtB2_11SkimMatcherNtB4_12FuzzyMatcher13fuzzy_indices
FNDA:0,_RNvXs0_NtNtCs3Snzs7u97BX_4skim13fuzzy_matcher4skimNtB5_15SkimScoreConfigNtNtCs3IJltBbNwOJ_4core7default7Default7default
FNDA:0,_RNvXs1_NtNtCs3Snzs7u97BX_4skim13fuzzy_matcher4skimNtB5_10MatrixCellNtNtCs3IJltBbNwOJ_4core7default7Default7default
FNDA:0,_RNvXs4_NtNtCs3Snzs7u97BX_4skim13fuzzy_matcher4skimNtB5_11ScoreMatrixINtNtNtCs3IJltBbNwOJ_4core3ops5index5IndexTjjEE5index
FNDA:0,_RNvXs5_NtNtCs3Snzs7u97BX_4skim13fuzzy_matcher4skimNtB5_11ScoreMatrixINtNtNtCs3IJltBbNwOJ_4core3ops5index8IndexMutTjjEE9index_mut
FNDA:0,_RNvXs6_NtNtCs3Snzs7u97BX_4skim13fuzzy_matcher4skimNtB5_11ScoreMatrixNtNtCs3IJltBbNwOJ_4core3fmt5Debug3fmt
FNDA:0,_RNvXs9_NtNtCs3Snzs7u97BX_4skim13fuzzy_matcher4skimNtB5_13SkimMatcherV2NtNtCs3IJltBbNwOJ_4core7default7Default7default
FNDA:0,_RNvXs_NtNtCs3Snzs7u97BX_4skim13fuzzy_matcher4skimNtB4_14MatchingStatusNtNtCs3IJltBbNwOJ_4core7default7Default7default
FNDA:0,_RNvXsb_NtNtCs3Snzs7u97BX_4skim13fuzzy_matcher4skimNtB5_13SkimMatcherV2NtB7_12FuzzyMatcher11fuzzy_match
FNDA:0,_RNvXsb_NtNtCs3Snzs7u97BX_4skim13fuzzy_matcher4skimNtB5_13SkimMatcherV2NtB7_12FuzzyMatcher13fuzzy_indices
FNDA:0,_RNvMsa_NtNtCs3Snzs7u97BX_4skim13fuzzy_matcher4skimNtB5_13SkimMatcherV212score_config
FNDA:0,_RNvMsa_NtNtCs3Snzs7u97BX_4skim13fuzzy_matcher4skimNtB5_13SkimMatcherV25debug
FNDA:0,_RNvMsa_NtNtCs3Snzs7u97BX_4skim13fuzzy_matcher4skimNtB5_13SkimMatcherV29use_cache
FNDA:0,_RNCNvMsa_NtNtCs2dRlemTKIe9_4skim13fuzzy_matcher4skimNtB7_13SkimMatcherV214contains_upper0Bb_
FNDA:0,_RNCNvMsa_NtNtCs2dRlemTKIe9_4skim13fuzzy_matcher4skimNtB7_13SkimMatcherV25fuzzy0Bb_
FNDA:0,_RNCNvMsa_NtNtCs2dRlemTKIe9_4skim13fuzzy_matcher4skimNtB7_13SkimMatcherV25fuzzys0_0Bb_
FNDA:0,_RNCNvMsa_NtNtCs2dRlemTKIe9_4skim13fuzzy_matcher4skimNtB7_13SkimMatcherV25fuzzys2_0Bb_
FNDA:0,_RNCNvMsa_NtNtCs2dRlemTKIe9_4skim13fuzzy_matcher4skimNtB7_13SkimMatcherV25fuzzys3_0Bb_
FNDA:0,_RNCNvMsa_NtNtCs2dRlemTKIe9_4skim13fuzzy_matcher4skimNtB7_13SkimMatcherV25fuzzys4_0Bb_
FNDA:0,_RNCNvMsa_NtNtCs2dRlemTKIe9_4skim13fuzzy_matcher4skimNtB7_13SkimMatcherV25fuzzys5_0Bb_
FNDA:0,_RNCNvMsa_NtNtCs2dRlemTKIe9_4skim13fuzzy_matcher4skimNtB7_13SkimMatcherV25fuzzys_0Bb_
FNDA:0,_RNCNvNtNtCs2dRlemTKIe9_4skim13fuzzy_matcher4skim11build_graph0B7_
FNDA:0,_RNCNvNtNtCs2dRlemTKIe9_4skim13fuzzy_matcher4skim11build_graphs0_0B7_
FNDA:0,_RNCNvNtNtCs2dRlemTKIe9_4skim13fuzzy_matcher4skim11build_graphs_0B7_
FNDA:0,_RNvMs2_NtNtCs2dRlemTKIe9_4skim13fuzzy_matcher4skimNtB5_10MatrixCell5reset
FNDA:0,_RNvMs3_NtNtCs2dRlemTKIe9_4skim13fuzzy_matcher4skimNtB5_11ScoreMatrix3new
FNDA:0,_RNvMs3_NtNtCs2dRlemTKIe9_4skim13fuzzy_matcher4skimNtB5_11ScoreMatrix7get_row
FNDA:0,_RNvMs3_NtNtCs2dRlemTKIe9_4skim13fuzzy_matcher4skimNtB5_11ScoreMatrix9get_index
FNDA:0,_RNvMs7_NtNtCs2dRlemTKIe9_4skim13fuzzy_matcher4skimNtB5_8CharType2of
FNDA:0,_RNvMs8_NtNtCs2dRlemTKIe9_4skim13fuzzy_matcher4skimNtB5_8CharRole2of
FNDA:0,_RNvMs8_NtNtCs2dRlemTKIe9_4skim13fuzzy_matcher4skimNtB5_8CharRole7of_type
FNDA:0,_RNvMsa_NtNtCs2dRlemTKIe9_4skim13fuzzy_matcher4skimNtB5_13SkimMatcherV210smart_case
FNDA:0,_RNvMsa_NtNtCs2dRlemTKIe9_4skim13fuzzy_matcher4skimNtB5_13SkimMatcherV211ignore_case
FNDA:0,_RNvMsa_NtNtCs2dRlemTKIe9_4skim13fuzzy_matcher4skimNtB5_13SkimMatcherV212respect_case
FNDA:0,_RNvMsa_NtNtCs2dRlemTKIe9_4skim13fuzzy_matcher4skimNtB5_13SkimMatcherV212simple_match
FNDA:0,_RNvMsa_NtNtCs2dRlemTKIe9_4skim13fuzzy_matcher4skimNtB5_13SkimMatcherV213element_limit
FNDA:0,_RNvMsa_NtNtCs2dRlemTKIe9_4skim13fuzzy_matcher4skimNtB5_13SkimMatcherV214adjust_row_idx
FNDA:0,_RNvMsa_NtNtCs2dRlemTKIe9_4skim13fuzzy_matcher4skimNtB5_13SkimMatcherV214contains_upper
FNDA:0,_RNvMsa_NtNtCs2dRlemTKIe9_4skim13fuzzy_matcher4skimNtB5_13SkimMatcherV214in_place_bonus
FNDA:0,_RNvMsa_NtNtCs2dRlemTKIe9_4skim13fuzzy_matcher4skimNtB5_13SkimMatcherV218build_score_matrix
FNDA:0,_RNvMsa_NtNtCs2dRlemTKIe9_4skim13fuzzy_matcher4skimNtB5_13SkimMatcherV220build_in_place_bonus
FNDA:0,_RNvMsa_NtNtCs2dRlemTKIe9_4skim13fuzzy_matcher4skimNtB5_13SkimMatcherV221calculate_match_score
FNDA:0,_RNvMsa_NtNtCs2dRlemTKIe9_4skim13fuzzy_matcher4skimNtB5_13SkimMatcherV224calculate_score_with_pos
FNDA:0,_RNvMsa_NtNtCs2dRlemTKIe9_4skim13fuzzy_matcher4skimNtB5_13SkimMatcherV25debug
FNDA:0,_RNvMsa_NtNtCs2dRlemTKIe9_4skim13fuzzy_matcher4skimNtB5_13SkimMatcherV25fuzzy
FNDA:0,_RNvNtNtCs2dRlemTKIe9_4skim13fuzzy_matcher4skim11build_graph
FNDA:0,_RNvNtNtCs2dRlemTKIe9_4skim13fuzzy_matcher4skim11fuzzy_match
FNDA:0,_RNvNtNtCs2dRlemTKIe9_4skim13fuzzy_matcher4skim11fuzzy_score
FNDA:0,_RNvNtNtCs2dRlemTKIe9_4skim13fuzzy_matcher4skim13fuzzy_indices
FNDA:0,_RNvXNtNtCs2dRlemTKIe9_4skim13fuzzy_matcher4skimNtB2_11SkimMatcherNtB4_12FuzzyMatcher11fuzzy_match
FNDA:0,_RNvXNtNtCs2dRlemTKIe9_4skim13fuzzy_matcher4skimNtB2_11SkimMatcherNtB4_12FuzzyMatcher13fuzzy_indices
FNDA:0,_RNvXs0_NtNtCs2dRlemTKIe9_4skim13fuzzy_matcher4skimNtB5_15SkimScoreConfigNtNtCs3IJltBbNwOJ_4core7default7Default7default
FNDA:0,_RNvXs1_NtNtCs2dRlemTKIe9_4skim13fuzzy_matcher4skimNtB5_10MatrixCellNtNtCs3IJltBbNwOJ_4core7default7Default7default
FNDA:0,_RNvXs4_NtNtCs2dRlemTKIe9_4skim13fuzzy_matcher4skimNtB5_11ScoreMatrixINtNtNtCs3IJltBbNwOJ_4core3ops5index5IndexTjjEE5index
FNDA:0,_RNvXs5_NtNtCs2dRlemTKIe9_4skim13fuzzy_matcher4skimNtB5_11ScoreMatrixINtNtNtCs3IJltBbNwOJ_4core3ops5index8IndexMutTjjEE9index_mut
FNDA:0,_RNvXs6_NtNtCs2dRlemTKIe9_4skim13fuzzy_matcher4skimNtB5_11ScoreMatrixNtNtCs3IJltBbNwOJ_4core3fmt5Debug3fmt
FNDA:0,_RNvXs9_NtNtCs2dRlemTKIe9_4skim13fuzzy_matcher4skimNtB5_13SkimMatcherV2NtNtCs3IJltBbNwOJ_4core7default7Default7default
FNDA:0,_RNvXs_NtNtCs2dRlemTKIe9_4skim13fuzzy_matcher4skimNtB4_14MatchingStatusNtNtCs3IJltBbNwOJ_4core7default7Default7default
FNDA:0,_RNvXsb_NtNtCs2dRlemTKIe9_4skim13fuzzy_matcher4skimNtB5_13SkimMatcherV2NtB7_12FuzzyMatcher11fuzzy_match
FNDA:0,_RNvXsb_NtNtCs2dRlemTKIe9_4skim13fuzzy_matcher4skimNtB5_13SkimMatcherV2NtB7_12FuzzyMatcher13fuzzy_indices
FNDA:0,_RNvMsa_NtNtCs2dRlemTKIe9_4skim13fuzzy_matcher4skimNtB5_13SkimMatcherV212score_config
FNDA:0,_RNvMsa_NtNtCs2dRlemTKIe9_4skim13fuzzy_matcher4skimNtB5_13SkimMatcherV29use_cache
FNF:49
FNH:0
DA:52,0
DA:53,0
DA:54,0
DA:56,0
DA:57,0
DA:58,0
DA:63,0
DA:64,0
DA:65,0
DA:66,0
DA:68,0
DA:70,0
DA:71,0
DA:72,0
DA:73,0
DA:74,0
DA:75,0
DA:76,0
DA:77,0
DA:81,0
DA:82,0
DA:83,0
DA:84,0
DA:86,0
DA:87,0
DA:89,0
DA:90,0
DA:91,0
DA:92,0
DA:93,0
DA:94,0
DA:95,0
DA:96,0
DA:97,0
DA:98,0
DA:99,0
DA:100,0
DA:101,0
DA:102,0
DA:103,0
DA:104,0
DA:116,0
DA:117,0
DA:118,0
DA:119,0
DA:120,0
DA:121,0
DA:122,0
DA:123,0
DA:124,0
DA:127,0
DA:128,0
DA:130,0
DA:131,0
DA:134,0
DA:135,0
DA:136,0
DA:137,0
DA:138,0
DA:139,0
DA:140,0
DA:141,0
DA:142,0
DA:143,0
DA:144,0
DA:145,0
DA:146,0
DA:147,0
DA:148,0
DA:149,0
DA:150,0
DA:151,0
DA:152,0
DA:153,0
DA:154,0
DA:155,0
DA:158,0
DA:160,0
DA:161,0
DA:162,0
DA:163,0
DA:164,0
DA:168,0
DA:169,0
DA:171,0
DA:172,0
DA:174,0
DA:175,0
DA:176,0
DA:177,0
DA:179,0
DA:182,0
DA:183,0
DA:184,0
DA:186,0
DA:187,0
DA:188,0
DA:189,0
DA:190,0
DA:191,0
DA:192,0
DA:193,0
DA:194,0
DA:195,0
DA:197,0
DA:199,0
DA:200,0
DA:201,0
DA:202,0
DA:204,0
DA:205,0
DA:206,0
DA:207,0
DA:208,0
DA:209,0
DA:210,0
DA:212,0
DA:213,0
DA:214,0
DA:215,0
DA:216,0
DA:217,0
DA:222,0
DA:223,0
DA:226,0
DA:227,0
DA:228,0
DA:229,0
DA:230,0
DA:231,0
DA:232,0
DA:233,0
DA:234,0
DA:236,0
DA:237,0
DA:239,0
DA:240,0
DA:241,0
DA:242,0
DA:243,0
DA:244,0
DA:245,0
DA:246,0
DA:247,0
DA:250,0
DA:251,0
DA:252,0
DA:255,0
DA:256,0
DA:257,0
DA:259,0
DA:260,0
DA:261,0
DA:263,0
DA:264,0
DA:311,0
DA:312,0
DA:313,0
DA:314,0
DA:315,0
DA:317,0
DA:318,0
DA:319,0
DA:320,0
DA:321,0
DA:322,0
DA:323,0
DA:324,0
DA:325,0
DA:326,0
DA:327,0
DA:328,0
DA:355,0
DA:356,0
DA:357,0
DA:358,0
DA:359,0
DA:360,0
DA:361,0
DA:362,0
DA:363,0
DA:364,0
DA:368,0
DA:369,0
DA:370,0
DA:371,0
DA:372,0
DA:373,0
DA:374,0
DA:375,0
DA:387,0
DA:388,0
DA:389,0
DA:390,0
DA:393,0
DA:394,0
DA:395,0
DA:397,0
DA:398,0
DA:399,0
DA:400,0
DA:406,0
DA:407,0
DA:408,0
DA:412,0
DA:413,0
DA:414,0
DA:418,0
DA:419,0
DA:420,0
DA:421,0
DA:422,0
DA:423,0
DA:424,0
DA:426,0
DA:427,0
DA:429,0
DA:431,0
DA:432,0
DA:433,0
DA:435,0
DA:437,0
DA:440,0
DA:441,0
DA:442,0
DA:443,0
DA:444,0
DA:445,0
DA:447,0
DA:448,0
DA:450,0
DA:452,0
DA:453,0
DA:454,0
DA:456,0
DA:458,0
DA:461,0
DA:462,0
DA:484,0
DA:485,0
DA:486,0
DA:487,0
DA:488,0
DA:489,0
DA:490,0
DA:491,0
DA:493,0
DA:523,0
DA:524,0
DA:525,0
DA:526,0
DA:527,0
DA:528,0
DA:529,0
DA:530,0
DA:531,0
DA:533,0
DA:608,0
DA:609,0
DA:610,0
DA:611,0
DA:612,0
DA:613,0
DA:614,0
DA:615,0
DA:616,0
DA:617,0
DA:618,0
DA:619,0
DA:620,0
DA:625,0
DA:626,0
DA:627,0
DA:628,0
DA:631,0
DA:632,0
DA:633,0
DA:634,0
DA:637,0
DA:638,0
DA:639,0
DA:640,0
DA:643,0
DA:644,0
DA:645,0
DA:646,0
DA:649,0
DA:650,0
DA:651,0
DA:652,0
DA:655,0
DA:656,0
DA:657,0
DA:658,0
DA:661,0
DA:662,0
DA:663,0
DA:664,0
DA:667,0
DA:668,0
DA:669,0
DA:670,0
DA:671,0
DA:672,0
DA:673,0
DA:674,0
DA:675,0
DA:676,0
DA:678,0
DA:681,0
DA:682,0
DA:683,0
DA:684,0
DA:686,0
DA:687,0
DA:688,0
DA:689,0
DA:690,0
DA:693,0
DA:694,0
DA:695,0
DA:696,0
DA:699,0
DA:700,0
DA:702,0
DA:703,0
DA:704,0
DA:707,0
DA:708,0
DA:709,0
DA:712,0
DA:716,0
DA:717,0
DA:718,0
DA:719,0
DA:721,0
DA:723,0
DA:724,0
DA:725,0
DA:727,0
DA:729,0
DA:730,0
DA:732,0
DA:733,0
DA:734,0
DA:735,0
DA:736,0
DA:737,0
DA:738,0
DA:739,0
DA:740,0
DA:741,0
DA:742,0
DA:743,0
DA:744,0
DA:745,0
DA:749,0
DA:750,0
DA:751,0
DA:752,0
DA:754,0
DA:755,0
DA:756,0
DA:757,0
DA:758,0
DA:759,0
DA:760,0
DA:761,0
DA:764,0
DA:767,0
DA:768,0
DA:769,0
DA:770,0
DA:771,0
DA:772,0
DA:773,0
DA:774,0
DA:776,0
DA:777,0
DA:778,0
DA:779,0
DA:783,0
DA:784,0
DA:785,0
DA:789,0
DA:790,0
DA:791,0
DA:792,0
DA:794,0
DA:795,0
DA:798,0
DA:799,0
DA:800,0
DA:802,0
DA:803,0
DA:806,0
DA:807,0
DA:808,0
DA:809,0
DA:810,0
DA:811,0
DA:813,0
DA:815,0
DA:816,0
DA:817,0
DA:820,0
DA:821,0
DA:822,0
DA:823,0
DA:825,0
DA:826,0
DA:827,0
DA:828,0
DA:831,0
DA:834,0
DA:835,0
DA:836,0
DA:838,0
DA:839,0
DA:840,0
DA:842,0
DA:843,0
DA:844,0
DA:846,0
DA:848,0
DA:849,0
DA:850,0
DA:852,0
DA:853,0
DA:854,0
DA:855,0
DA:856,0
DA:857,0
DA:858,0
DA:860,0
DA:862,0
DA:863,0
DA:864,0
DA:865,0
DA:866,0
DA:867,0
DA:868,0
DA:869,0
DA:871,0
DA:872,0
DA:873,0
DA:874,0
DA:875,0
DA:876,0
DA:877,0
DA:878,0
DA:880,0
DA:881,0
DA:883,0
DA:885,0
DA:886,0
DA:887,0
DA:888,0
DA:889,0
DA:890,0
DA:891,0
DA:892,0
DA:893,0
DA:894,0
DA:896,0
DA:897,0
DA:898,0
DA:899,0
DA:900,0
DA:902,0
DA:904,0
DA:905,0
DA:906,0
DA:909,0
DA:910,0
DA:912,0
DA:913,0
DA:914,0
DA:916,0
DA:918,0
DA:919,0
DA:920,0
DA:921,0
DA:923,0
DA:924,0
DA:927,0
DA:928,0
DA:929,0
DA:930,0
DA:931,0
DA:932,0
DA:933,0
DA:934,0
DA:935,0
DA:936,0
DA:937,0
DA:938,0
DA:939,0
DA:940,0
DA:941,0
DA:942,0
DA:943,0
DA:944,0
DA:946,0
DA:947,0
DA:949,0
DA:950,0
DA:951,0
DA:952,0
DA:953,0
DA:954,0
DA:955,0
DA:956,0
DA:958,0
DA:962,0
DA:963,0
DA:965,0
DA:966,0
DA:967,0
DA:968,0
DA:969,0
DA:970,0
DA:971,0
DA:972,0
DA:973,0
DA:974,0
DA:976,0
DA:977,0
DA:981,0
DA:983,0
DA:984,0
DA:985,0
DA:987,0
DA:988,0
DA:989,0
DA:990,0
DA:991,0
DA:993,0
DA:994,0
DA:995,0
DA:997,0
DA:999,0
DA:1000,0
DA:1001,0
DA:1002,0
DA:1004,0
DA:1006,0
DA:1007,0
DA:1008,0
DA:1010,0
DA:1012,0
DA:1013,0
DA:1014,0
DA:1016,0
DA:1017,0
DA:1019,0
DA:1020,0
DA:1021,0
DA:1023,0
DA:1024,0
DA:1025,0
DA:1028,0
DA:1031,0
DA:1032,0
DA:1036,0
DA:1037,0
DA:1038,0
DA:1040,0
DA:1041,0
DA:1042,0
BRF:0
BRH:0
LF:581
LH:0
end_of_record
SF:/home/loric/src/skim/src/fuzzy_matcher/util.rs
FN:29,_RNvNtNtCs3Snzs7u97BX_4skim13fuzzy_matcher4util10char_equal
FN:56,_RNvNtNtCs3Snzs7u97BX_4skim13fuzzy_matcher4util12char_type_of
FN:3,_RNvNtNtCs3Snzs7u97BX_4skim13fuzzy_matcher4util13cheap_matches
FN:89,_RNvNtNtCs3Snzs7u97BX_4skim13fuzzy_matcher4util9char_role
FN:121,_RNCNCNvNtNtCs3Snzs7u97BX_4skim13fuzzy_matcher4util15filter_and_sort00B9_
FN:121,_RNCNvNtNtCs3Snzs7u97BX_4skim13fuzzy_matcher4util15filter_and_sort0B7_
FN:123,_RNCNvNtNtCs3Snzs7u97BX_4skim13fuzzy_matcher4util15filter_and_sorts_0B7_
FN:99,_RNvNtNtCs3Snzs7u97BX_4skim13fuzzy_matcher4util12assert_order
FN:128,_RNvNtNtCs3Snzs7u97BX_4skim13fuzzy_matcher4util12wrap_matches
FN:118,_RNvNtNtCs3Snzs7u97BX_4skim13fuzzy_matcher4util15filter_and_sort
FN:121,_RNCNCNvNtNtCs2dRlemTKIe9_4skim13fuzzy_matcher4util15filter_and_sort00B9_
FN:121,_RNCNvNtNtCs2dRlemTKIe9_4skim13fuzzy_matcher4util15filter_and_sort0B7_
FN:123,_RNCNvNtNtCs2dRlemTKIe9_4skim13fuzzy_matcher4util15filter_and_sorts_0B7_
FN:29,_RNvNtNtCs2dRlemTKIe9_4skim13fuzzy_matcher4util10char_equal
FN:99,_RNvNtNtCs2dRlemTKIe9_4skim13fuzzy_matcher4util12assert_order
FN:56,_RNvNtNtCs2dRlemTKIe9_4skim13fuzzy_matcher4util12char_type_of
FN:128,_RNvNtNtCs2dRlemTKIe9_4skim13fuzzy_matcher4util12wrap_matches
FN:3,_RNvNtNtCs2dRlemTKIe9_4skim13fuzzy_matcher4util13cheap_matches
FN:118,_RNvNtNtCs2dRlemTKIe9_4skim13fuzzy_matcher4util15filter_and_sort
FN:89,_RNvNtNtCs2dRlemTKIe9_4skim13fuzzy_matcher4util9char_role
FNDA:0,_RNvNtNtCs3Snzs7u97BX_4skim13fuzzy_matcher4util10char_equal
FNDA:0,_RNvNtNtCs3Snzs7u97BX_4skim13fuzzy_matcher4util12char_type_of
FNDA:0,_RNvNtNtCs3Snzs7u97BX_4skim13fuzzy_matcher4util13cheap_matches
FNDA:0,_RNvNtNtCs3Snzs7u97BX_4skim13fuzzy_matcher4util9char_role
FNDA:0,_RNCNCNvNtNtCs3Snzs7u97BX_4skim13fuzzy_matcher4util15filter_and_sort00B9_
FNDA:0,_RNCNvNtNtCs3Snzs7u97BX_4skim13fuzzy_matcher4util15filter_and_sort0B7_
FNDA:0,_RNCNvNtNtCs3Snzs7u97BX_4skim13fuzzy_matcher4util15filter_and_sorts_0B7_
FNDA:0,_RNvNtNtCs3Snzs7u97BX_4skim13fuzzy_matcher4util12assert_order
FNDA:0,_RNvNtNtCs3Snzs7u97BX_4skim13fuzzy_matcher4util12wrap_matches
FNDA:0,_RNvNtNtCs3Snzs7u97BX_4skim13fuzzy_matcher4util15filter_and_sort
FNDA:0,_RNCNCNvNtNtCs2dRlemTKIe9_4skim13fuzzy_matcher4util15filter_and_sort00B9_
FNDA:0,_RNCNvNtNtCs2dRlemTKIe9_4skim13fuzzy_matcher4util15filter_and_sort0B7_
FNDA:0,_RNCNvNtNtCs2dRlemTKIe9_4skim13fuzzy_matcher4util15filter_and_sorts_0B7_
FNDA:0,_RNvNtNtCs2dRlemTKIe9_4skim13fuzzy_matcher4util10char_equal
FNDA:0,_RNvNtNtCs2dRlemTKIe9_4skim13fuzzy_matcher4util12assert_order
FNDA:0,_RNvNtNtCs2dRlemTKIe9_4skim13fuzzy_matcher4util12char_type_of
FNDA:0,_RNvNtNtCs2dRlemTKIe9_4skim13fuzzy_matcher4util12wrap_matches
FNDA:0,_RNvNtNtCs2dRlemTKIe9_4skim13fuzzy_matcher4util13cheap_matches
FNDA:0,_RNvNtNtCs2dRlemTKIe9_4skim13fuzzy_matcher4util15filter_and_sort
FNDA:0,_RNvNtNtCs2dRlemTKIe9_4skim13fuzzy_matcher4util9char_role
FNF:10
FNH:0
DA:3,0
DA:4,0
DA:5,0
DA:6,0
DA:7,0
DA:8,0
DA:9,0
DA:10,0
DA:11,0
DA:12,0
DA:14,0
DA:18,0
DA:19,0
DA:21,0
DA:23,0
DA:29,0
DA:30,0
DA:31,0
DA:33,0
DA:34,0
DA:35,0
DA:36,0
DA:37,0
DA:39,0
DA:40,0
DA:41,0
DA:43,0
DA:45,0
DA:56,0
DA:57,0
DA:58,0
DA:59,0
DA:60,0
DA:61,0
DA:62,0
DA:64,0
DA:66,0
DA:89,0
DA:92,0
DA:93,0
DA:94,0
DA:96,0
DA:99,0
DA:100,0
DA:102,0
DA:104,0
DA:105,0
DA:106,0
DA:107,0
DA:108,0
DA:109,0
DA:110,0
DA:112,0
DA:114,0
DA:115,0
DA:118,0
DA:119,0
DA:120,0
DA:121,0
DA:122,0
DA:123,0
DA:124,0
DA:125,0
DA:128,0
DA:129,0
DA:130,0
DA:131,0
DA:132,0
DA:133,0
DA:134,0
DA:135,0
DA:136,0
DA:137,0
DA:138,0
DA:141,0
DA:142,0
BRF:0
BRH:0
LF:79
LH:0
end_of_record
SF:/home/loric/src/skim/src/helper/item.rs
FN:193,_RNCNvXs0_NtNtCs3Snzs7u97BX_4skim6helper4itemNtB7_15DefaultSkimItemNtNtBb_9skim_item8SkimItem19get_matching_ranges0Csh7ZzE9tTlqq_4ansi
FN:475,_RNCNvNtNtCs3Snzs7u97BX_4skim6helper4item11escape_ansi0B7_
FN:193,_RNCNvXs0_NtNtCs3Snzs7u97BX_4skim6helper4itemNtB7_15DefaultSkimItemNtNtBb_9skim_item8SkimItem19get_matching_ranges0Bb_
FN:325,_RNCNvXs0_NtNtCs3Snzs7u97BX_4skim6helper4itemNtB7_15DefaultSkimItemNtNtBb_9skim_item8SkimItem7displays0_0Bb_
FN:322,_RNCNvXs0_NtNtCs3Snzs7u97BX_4skim6helper4itemNtB7_15DefaultSkimItemNtNtBb_9skim_item8SkimItem7displays_0Bb_
FN:50,_RNvMNtNtCs3Snzs7u97BX_4skim6helper4itemNtB2_15DefaultSkimItem3new
FN:404,_RNvNtNtCs3Snzs7u97BX_4skim6helper4item10strip_ansi
FN:474,_RNvNtNtCs3Snzs7u97BX_4skim6helper4item11escape_ansi
FN:192,_RNvXs0_NtNtCs3Snzs7u97BX_4skim6helper4itemNtB5_15DefaultSkimItemNtNtB9_9skim_item8SkimItem19get_matching_ranges
FN:175,_RNvXs0_NtNtCs3Snzs7u97BX_4skim6helper4itemNtB5_15DefaultSkimItemNtNtB9_9skim_item8SkimItem4text
FN:184,_RNvXs0_NtNtCs3Snzs7u97BX_4skim6helper4itemNtB5_15DefaultSkimItemNtNtB9_9skim_item8SkimItem6output
FN:196,_RNvXs0_NtNtCs3Snzs7u97BX_4skim6helper4itemNtB5_15DefaultSkimItemNtNtB9_9skim_item8SkimItem7display
FN:376,_RNvXs0_NtNtCs3Snzs7u97BX_4skim6helper4itemNtB5_15DefaultSkimItemNtNtB9_9skim_item8SkimItem9get_index
FN:380,_RNvXs0_NtNtCs3Snzs7u97BX_4skim6helper4itemNtB5_15DefaultSkimItemNtNtB9_9skim_item8SkimItem9set_index
FN:168,_RNvMs_NtNtCs3Snzs7u97BX_4skim6helper4itemNtB4_15DefaultSkimItem16get_display_text
FN:193,_RNCNvXs0_NtNtCs3Snzs7u97BX_4skim6helper4itemNtB7_15DefaultSkimItemNtNtBb_9skim_item8SkimItem19get_matching_ranges0CsjMtkzxvw6jX_5binds
FN:193,_RNCNvXs0_NtNtCs3Snzs7u97BX_4skim6helper4itemNtB7_15DefaultSkimItemNtNtBb_9skim_item8SkimItem19get_matching_ranges0CsjZxsXVxeWnR_4case
FN:193,_RNCNvXs0_NtNtCs3Snzs7u97BX_4skim6helper4itemNtB7_15DefaultSkimItemNtNtBb_9skim_item8SkimItem19get_matching_ranges0Cs7rs3rzKdeUa_8defaults
FN:193,_RNCNvXs0_NtNtCs3Snzs7u97BX_4skim6helper4itemNtB7_15DefaultSkimItemNtNtBb_9skim_item8SkimItem19get_matching_ranges0Cs8SL1o0vS7q8_6issues
FN:193,_RNCNvXs0_NtNtCs3Snzs7u97BX_4skim6helper4itemNtB7_15DefaultSkimItemNtNtBb_9skim_item8SkimItem19get_matching_ranges0Cs7QtiJHxqkfB_4keys
FN:193,_RNCNvXs0_NtNtCs3Snzs7u97BX_4skim6helper4itemNtB7_15DefaultSkimItemNtNtBb_9skim_item8SkimItem19get_matching_ranges0CscGCI3e7M0l9_16keys_interactive
FN:193,_RNCNvXs0_NtNtCs3Snzs7u97BX_4skim6helper4itemNtB7_15DefaultSkimItemNtNtBb_9skim_item8SkimItem19get_matching_ranges0CscYgvKuNiZ3L_6layout
FN:193,_RNCNvXs0_NtNtCs3Snzs7u97BX_4skim6helper4itemNtB7_15DefaultSkimItemNtNtBb_9skim_item8SkimItem19get_matching_ranges0CsajW3zP0EBjk_9normalize
FN:193,_RNCNvXs0_NtNtCs3Snzs7u97BX_4skim6helper4itemNtB7_15DefaultSkimItemNtNtBb_9skim_item8SkimItem19get_matching_ranges0Cs1KNxiT1fe8Y_7options
FN:193,_RNCNvXs0_NtNtCs3Snzs7u97BX_4skim6helper4itemNtB7_15DefaultSkimItemNtNtBb_9skim_item8SkimItem19get_matching_ranges0Cs38oDVg7bgx1_7preview
FN:193,_RNCNvXs0_NtNtCs3Snzs7u97BX_4skim6helper4itemNtB7_15DefaultSkimItemNtNtBb_9skim_item8SkimItem19get_matching_ranges0Cs7lWjSsce3cw_2sk
FN:475,_RNCNvNtNtCs2dRlemTKIe9_4skim6helper4item11escape_ansi0B7_
FN:193,_RNCNvXs0_NtNtCs2dRlemTKIe9_4skim6helper4itemNtB7_15DefaultSkimItemNtNtBb_9skim_item8SkimItem19get_matching_ranges0Bb_
FN:325,_RNCNvXs0_NtNtCs2dRlemTKIe9_4skim6helper4itemNtB7_15DefaultSkimItemNtNtBb_9skim_item8SkimItem7displays0_0Bb_
FN:322,_RNCNvXs0_NtNtCs2dRlemTKIe9_4skim6helper4itemNtB7_15DefaultSkimItemNtNtBb_9skim_item8SkimItem7displays_0Bb_
FN:50,_RNvMNtNtCs2dRlemTKIe9_4skim6helper4itemNtB2_15DefaultSkimItem3new
FN:404,_RNvNtNtCs2dRlemTKIe9_4skim6helper4item10strip_ansi
FN:474,_RNvNtNtCs2dRlemTKIe9_4skim6helper4item11escape_ansi
FN:192,_RNvXs0_NtNtCs2dRlemTKIe9_4skim6helper4itemNtB5_15DefaultSkimItemNtNtB9_9skim_item8SkimItem19get_matching_ranges
FN:175,_RNvXs0_NtNtCs2dRlemTKIe9_4skim6helper4itemNtB5_15DefaultSkimItemNtNtB9_9skim_item8SkimItem4text
FN:184,_RNvXs0_NtNtCs2dRlemTKIe9_4skim6helper4itemNtB5_15DefaultSkimItemNtNtB9_9skim_item8SkimItem6output
FN:196,_RNvXs0_NtNtCs2dRlemTKIe9_4skim6helper4itemNtB5_15DefaultSkimItemNtNtB9_9skim_item8SkimItem7display
FN:376,_RNvXs0_NtNtCs2dRlemTKIe9_4skim6helper4itemNtB5_15DefaultSkimItemNtNtB9_9skim_item8SkimItem9get_index
FN:380,_RNvXs0_NtNtCs2dRlemTKIe9_4skim6helper4itemNtB5_15DefaultSkimItemNtNtB9_9skim_item8SkimItem9set_index
FN:168,_RNvMs_NtNtCs2dRlemTKIe9_4skim6helper4itemNtB4_15DefaultSkimItem16get_display_text
FN:193,_RNCNvXs0_NtNtCs3Snzs7u97BX_4skim6helper4itemNtB7_15DefaultSkimItemNtNtBb_9skim_item8SkimItem19get_matching_ranges0CsdYHrDtgrOQb_11split_match
FN:193,_RNCNvXs0_NtNtCs3Snzs7u97BX_4skim6helper4itemNtB7_15DefaultSkimItemNtNtBb_9skim_item8SkimItem19get_matching_ranges0Cskazwg9rDpax_8tiebreak
FNDA:0,_RNCNvXs0_NtNtCs3Snzs7u97BX_4skim6helper4itemNtB7_15DefaultSkimItemNtNtBb_9skim_item8SkimItem19get_matching_ranges0Csh7ZzE9tTlqq_4ansi
FNDA:0,_RNCNvNtNtCs3Snzs7u97BX_4skim6helper4item11escape_ansi0B7_
FNDA:0,_RNCNvXs0_NtNtCs3Snzs7u97BX_4skim6helper4itemNtB7_15DefaultSkimItemNtNtBb_9skim_item8SkimItem19get_matching_ranges0Bb_
FNDA:0,_RNCNvXs0_NtNtCs3Snzs7u97BX_4skim6helper4itemNtB7_15DefaultSkimItemNtNtBb_9skim_item8SkimItem7displays0_0Bb_
FNDA:0,_RNCNvXs0_NtNtCs3Snzs7u97BX_4skim6helper4itemNtB7_15DefaultSkimItemNtNtBb_9skim_item8SkimItem7displays_0Bb_
FNDA:0,_RNvMNtNtCs3Snzs7u97BX_4skim6helper4itemNtB2_15DefaultSkimItem3new
FNDA:0,_RNvNtNtCs3Snzs7u97BX_4skim6helper4item10strip_ansi
FNDA:0,_RNvNtNtCs3Snzs7u97BX_4skim6helper4item11escape_ansi
FNDA:0,_RNvXs0_NtNtCs3Snzs7u97BX_4skim6helper4itemNtB5_15DefaultSkimItemNtNtB9_9skim_item8SkimItem19get_matching_ranges
FNDA:0,_RNvXs0_NtNtCs3Snzs7u97BX_4skim6helper4itemNtB5_15DefaultSkimItemNtNtB9_9skim_item8SkimItem4text
FNDA:0,_RNvXs0_NtNtCs3Snzs7u97BX_4skim6helper4itemNtB5_15DefaultSkimItemNtNtB9_9skim_item8SkimItem6output
FNDA:0,_RNvXs0_NtNtCs3Snzs7u97BX_4skim6helper4itemNtB5_15DefaultSkimItemNtNtB9_9skim_item8SkimItem7display
FNDA:0,_RNvXs0_NtNtCs3Snzs7u97BX_4skim6helper4itemNtB5_15DefaultSkimItemNtNtB9_9skim_item8SkimItem9get_index
FNDA:0,_RNvXs0_NtNtCs3Snzs7u97BX_4skim6helper4itemNtB5_15DefaultSkimItemNtNtB9_9skim_item8SkimItem9set_index
FNDA:0,_RNvMs_NtNtCs3Snzs7u97BX_4skim6helper4itemNtB4_15DefaultSkimItem16get_display_text
FNDA:0,_RNCNvXs0_NtNtCs3Snzs7u97BX_4skim6helper4itemNtB7_15DefaultSkimItemNtNtBb_9skim_item8SkimItem19get_matching_ranges0CsjMtkzxvw6jX_5binds
FNDA:0,_RNCNvXs0_NtNtCs3Snzs7u97BX_4skim6helper4itemNtB7_15DefaultSkimItemNtNtBb_9skim_item8SkimItem19get_matching_ranges0CsjZxsXVxeWnR_4case
FNDA:0,_RNCNvXs0_NtNtCs3Snzs7u97BX_4skim6helper4itemNtB7_15DefaultSkimItemNtNtBb_9skim_item8SkimItem19get_matching_ranges0Cs7rs3rzKdeUa_8defaults
FNDA:0,_RNCNvXs0_NtNtCs3Snzs7u97BX_4skim6helper4itemNtB7_15DefaultSkimItemNtNtBb_9skim_item8SkimItem19get_matching_ranges0Cs8SL1o0vS7q8_6issues
FNDA:0,_RNCNvXs0_NtNtCs3Snzs7u97BX_4skim6helper4itemNtB7_15DefaultSkimItemNtNtBb_9skim_item8SkimItem19get_matching_ranges0Cs7QtiJHxqkfB_4keys
FNDA:0,_RNCNvXs0_NtNtCs3Snzs7u97BX_4skim6helper4itemNtB7_15DefaultSkimItemNtNtBb_9skim_item8SkimItem19get_matching_ranges0CscGCI3e7M0l9_16keys_interactive
FNDA:0,_RNCNvXs0_NtNtCs3Snzs7u97BX_4skim6helper4itemNtB7_15DefaultSkimItemNtNtBb_9skim_item8SkimItem19get_matching_ranges0CscYgvKuNiZ3L_6layout
FNDA:0,_RNCNvXs0_NtNtCs3Snzs7u97BX_4skim6helper4itemNtB7_15DefaultSkimItemNtNtBb_9skim_item8SkimItem19get_matching_ranges0CsajW3zP0EBjk_9normalize
FNDA:0,_RNCNvXs0_NtNtCs3Snzs7u97BX_4skim6helper4itemNtB7_15DefaultSkimItemNtNtBb_9skim_item8SkimItem19get_matching_ranges0Cs1KNxiT1fe8Y_7options
FNDA:0,_RNCNvXs0_NtNtCs3Snzs7u97BX_4skim6helper4itemNtB7_15DefaultSkimItemNtNtBb_9skim_item8SkimItem19get_matching_ranges0Cs38oDVg7bgx1_7preview
FNDA:0,_RNCNvXs0_NtNtCs3Snzs7u97BX_4skim6helper4itemNtB7_15DefaultSkimItemNtNtBb_9skim_item8SkimItem19get_matching_ranges0Cs7lWjSsce3cw_2sk
FNDA:0,_RNCNvNtNtCs2dRlemTKIe9_4skim6helper4item11escape_ansi0B7_
FNDA:0,_RNCNvXs0_NtNtCs2dRlemTKIe9_4skim6helper4itemNtB7_15DefaultSkimItemNtNtBb_9skim_item8SkimItem19get_matching_ranges0Bb_
FNDA:0,_RNCNvXs0_NtNtCs2dRlemTKIe9_4skim6helper4itemNtB7_15DefaultSkimItemNtNtBb_9skim_item8SkimItem7displays0_0Bb_
FNDA:0,_RNCNvXs0_NtNtCs2dRlemTKIe9_4skim6helper4itemNtB7_15DefaultSkimItemNtNtBb_9skim_item8SkimItem7displays_0Bb_
FNDA:0,_RNvMNtNtCs2dRlemTKIe9_4skim6helper4itemNtB2_15DefaultSkimItem3new
FNDA:0,_RNvNtNtCs2dRlemTKIe9_4skim6helper4item10strip_ansi
FNDA:0,_RNvNtNtCs2dRlemTKIe9_4skim6helper4item11escape_ansi
FNDA:0,_RNvXs0_NtNtCs2dRlemTKIe9_4skim6helper4itemNtB5_15DefaultSkimItemNtNtB9_9skim_item8SkimItem19get_matching_ranges
FNDA:0,_RNvXs0_NtNtCs2dRlemTKIe9_4skim6helper4itemNtB5_15DefaultSkimItemNtNtB9_9skim_item8SkimItem4text
FNDA:0,_RNvXs0_NtNtCs2dRlemTKIe9_4skim6helper4itemNtB5_15DefaultSkimItemNtNtB9_9skim_item8SkimItem6output
FNDA:0,_RNvXs0_NtNtCs2dRlemTKIe9_4skim6helper4itemNtB5_15DefaultSkimItemNtNtB9_9skim_item8SkimItem7display
FNDA:0,_RNvXs0_NtNtCs2dRlemTKIe9_4skim6helper4itemNtB5_15DefaultSkimItemNtNtB9_9skim_item8SkimItem9get_index
FNDA:0,_RNvXs0_NtNtCs2dRlemTKIe9_4skim6helper4itemNtB5_15DefaultSkimItemNtNtB9_9skim_item8SkimItem9set_index
FNDA:0,_RNvMs_NtNtCs2dRlemTKIe9_4skim6helper4itemNtB4_15DefaultSkimItem16get_display_text
FNDA:0,_RNCNvXs0_NtNtCs3Snzs7u97BX_4skim6helper4itemNtB7_15DefaultSkimItemNtNtBb_9skim_item8SkimItem19get_matching_ranges0CsdYHrDtgrOQb_11split_match
FNDA:0,_RNCNvXs0_NtNtCs3Snzs7u97BX_4skim6helper4itemNtB7_15DefaultSkimItemNtNtBb_9skim_item8SkimItem19get_matching_ranges0Cskazwg9rDpax_8tiebreak
FNF:14
FNH:0
DA:50,0
DA:51,0
DA:52,0
DA:53,0
DA:54,0
DA:55,0
DA:56,0
DA:57,0
DA:58,0
DA:70,0
DA:72,0
DA:73,0
DA:76,0
DA:77,0
DA:79,0
DA:80,0
DA:84,0
DA:87,0
DA:88,0
DA:89,0
DA:94,0
DA:95,0
DA:96,0
DA:98,0
DA:99,0
DA:100,0
DA:102,0
DA:107,0
DA:109,0
DA:110,0
DA:112,0
DA:117,0
DA:118,0
DA:120,0
DA:123,0
DA:126,0
DA:128,0
DA:130,0
DA:133,0
DA:136,0
DA:137,0
DA:138,0
DA:139,0
DA:141,0
DA:143,0
DA:144,0
DA:145,0
DA:146,0
DA:147,0
DA:150,0
DA:153,0
DA:154,0
DA:155,0
DA:156,0
DA:157,0
DA:158,0
DA:159,0
DA:160,0
DA:161,0
DA:168,0
DA:169,0
DA:170,0
DA:175,0
DA:177,0
DA:178,0
DA:180,0
DA:182,0
DA:184,0
DA:185,0
DA:186,0
DA:188,0
DA:190,0
DA:192,0
DA:193,0
DA:194,0
DA:196,0
DA:198,0
DA:200,0
DA:201,0
DA:202,0
DA:205,0
DA:210,0
DA:214,0
DA:215,0
DA:218,0
DA:221,0
DA:222,0
DA:224,0
DA:225,0
DA:226,0
DA:227,0
DA:229,0
DA:230,0
DA:232,0
DA:233,0
DA:234,0
DA:235,0
DA:236,0
DA:237,0
DA:238,0
DA:239,0
DA:240,0
DA:243,0
DA:244,0
DA:245,0
DA:246,0
DA:247,0
DA:248,0
DA:249,0
DA:250,0
DA:251,0
DA:253,0
DA:257,0
DA:258,0
DA:259,0
DA:260,0
DA:261,0
DA:262,0
DA:263,0
DA:264,0
DA:265,0
DA:266,0
DA:267,0
DA:268,0
DA:269,0
DA:270,0
DA:273,0
DA:275,0
DA:280,0
DA:281,0
DA:283,0
DA:284,0
DA:285,0
DA:286,0
DA:287,0
DA:289,0
DA:290,0
DA:291,0
DA:292,0
DA:293,0
DA:294,0
DA:295,0
DA:296,0
DA:297,0
DA:300,0
DA:301,0
DA:302,0
DA:303,0
DA:304,0
DA:305,0
DA:306,0
DA:307,0
DA:308,0
DA:309,0
DA:310,0
DA:311,0
DA:312,0
DA:313,0
DA:314,0
DA:317,0
DA:319,0
DA:321,0
DA:322,0
DA:323,0
DA:324,0
DA:325,0
DA:326,0
DA:329,0
DA:330,0
DA:332,0
DA:333,0
DA:334,0
DA:335,0
DA:336,0
DA:338,0
DA:339,0
DA:340,0
DA:341,0
DA:342,0
DA:343,0
DA:344,0
DA:345,0
DA:346,0
DA:349,0
DA:350,0
DA:351,0
DA:352,0
DA:353,0
DA:354,0
DA:355,0
DA:356,0
DA:357,0
DA:358,0
DA:359,0
DA:360,0
DA:361,0
DA:362,0
DA:363,0
DA:366,0
DA:368,0
DA:372,0
DA:374,0
DA:376,0
DA:377,0
DA:378,0
DA:380,0
DA:381,0
DA:382,0
DA:404,0
DA:405,0
DA:406,0
DA:407,0
DA:408,0
DA:410,0
DA:411,0
DA:413,0
DA:414,0
DA:417,0
DA:418,0
DA:419,0
DA:420,0
DA:421,0
DA:422,0
DA:423,0
DA:424,0
DA:429,0
DA:430,0
DA:431,0
DA:432,0
DA:433,0
DA:435,0
DA:436,0
DA:437,0
DA:438,0
DA:440,0
DA:441,0
DA:442,0
DA:443,0
DA:446,0
DA:447,0
DA:448,0
DA:449,0
DA:450,0
DA:451,0
DA:452,0
DA:453,0
DA:454,0
DA:455,0
DA:456,0
DA:457,0
DA:459,0
DA:460,0
DA:461,0
DA:462,0
DA:463,0
DA:464,0
DA:467,0
DA:468,0
DA:474,0
DA:475,0
DA:476,0
BRF:0
BRH:0
LF:265
LH:0
end_of_record
SF:/home/loric/src/skim/src/helper/item_reader.rs
FN:198,_RINvMs2_NtNtCs3Snzs7u97BX_4skim6helper11item_readerNtB6_14SkimItemReader21read_lines_into_itemsINtNtCshYl8hDvVEcY_5alloc5boxed3BoxDNtNtCs5U62srxYbFV_3std2io7BufReadNtNtCs3IJltBbNwOJ_4core6marker4SendEL_EEBa_
FN:318,_RNCNCNCNvMs2_NtNtCs3Snzs7u97BX_4skim6helper11item_readerNtBb_14SkimItemReader29read_and_collect_from_command000Bf_
FN:318,_RNCNCNvMs2_NtNtCs3Snzs7u97BX_4skim6helper11item_readerNtB9_14SkimItemReader29read_and_collect_from_command00Bd_
FN:326,_RNCNCNvMs2_NtNtCs3Snzs7u97BX_4skim6helper11item_readerNtB9_14SkimItemReader29read_and_collect_from_command0s_0Bd_
FN:304,_RNCNvMs2_NtNtCs3Snzs7u97BX_4skim6helper11item_readerNtB7_14SkimItemReader29read_and_collect_from_command0Bb_
FN:357,_RNCNvMs2_NtNtCs3Snzs7u97BX_4skim6helper11item_readerNtB7_14SkimItemReader29read_and_collect_from_commands_0Bb_
FN:64,_RNCNvMs_NtNtCs3Snzs7u97BX_4skim6helper11item_readerNtB6_20SkimItemReaderOption12from_options0Ba_
FN:69,_RNCNvMs_NtNtCs3Snzs7u97BX_4skim6helper11item_readerNtB6_20SkimItemReaderOption12from_optionss_0Ba_
FN:172,_RNvMs1_NtNtCs3Snzs7u97BX_4skim6helper11item_readerNtB5_14SkimItemReader3new
FN:179,_RNvMs1_NtNtCs3Snzs7u97BX_4skim6helper11item_readerNtB5_14SkimItemReader6option
FN:285,_RNvMs2_NtNtCs3Snzs7u97BX_4skim6helper11item_readerNtB5_14SkimItemReader29read_and_collect_from_command
FN:56,_RNvMs_NtNtCs3Snzs7u97BX_4skim6helper11item_readerNtB4_20SkimItemReaderOption12from_options
FN:125,_RNvMs_NtNtCs3Snzs7u97BX_4skim6helper11item_readerNtB4_20SkimItemReaderOption15matching_fields
FN:110,_RNvMs_NtNtCs3Snzs7u97BX_4skim6helper11item_readerNtB4_20SkimItemReaderOption16transform_fields
FN:95,_RNvMs_NtNtCs3Snzs7u97BX_4skim6helper11item_readerNtB4_20SkimItemReaderOption9delimiter
FN:389,_RNvNtNtCs3Snzs7u97BX_4skim6helper11item_reader18get_command_output
FN:41,_RNvXNtNtCs3Snzs7u97BX_4skim6helper11item_readerNtB2_20SkimItemReaderOptionNtNtCs3IJltBbNwOJ_4core7default7Default7default
FN:163,_RNvXs0_NtNtCs3Snzs7u97BX_4skim6helper11item_readerNtB5_14SkimItemReaderNtNtCs3IJltBbNwOJ_4core7default7Default7default
FN:378,_RNvXs3_NtNtCs3Snzs7u97BX_4skim6helper11item_readerNtB5_14SkimItemReaderNtNtB9_6reader16CommandCollector6invoke
FN:187,_RINvMs2_NtNtCs3Snzs7u97BX_4skim6helper11item_readerNtB6_14SkimItemReader10of_bufreadpEBa_
FN:272,_RINvMs2_NtNtCs3Snzs7u97BX_4skim6helper11item_readerNtB6_14SkimItemReader11raw_bufreadpEBa_
FN:116,_RINvMs_NtNtCs3Snzs7u97BX_4skim6helper11item_readerNtB5_20SkimItemReaderOption3nthpEB9_
FN:101,_RINvMs_NtNtCs3Snzs7u97BX_4skim6helper11item_readerNtB5_20SkimItemReaderOption8with_nthpEB9_
FN:276,_RNCINvMs2_NtNtCs3Snzs7u97BX_4skim6helper11item_readerNtB8_14SkimItemReader11raw_bufreadpE0Bc_
FN:141,_RNvMs_NtNtCs3Snzs7u97BX_4skim6helper11item_readerNtB4_20SkimItemReaderOption10show_error
FN:83,_RNvMs_NtNtCs3Snzs7u97BX_4skim6helper11item_readerNtB4_20SkimItemReaderOption11line_ending
FN:89,_RNvMs_NtNtCs3Snzs7u97BX_4skim6helper11item_readerNtB4_20SkimItemReaderOption4ansi
FN:147,_RNvMs_NtNtCs3Snzs7u97BX_4skim6helper11item_readerNtB4_20SkimItemReaderOption5build
FN:131,_RNvMs_NtNtCs3Snzs7u97BX_4skim6helper11item_readerNtB4_20SkimItemReaderOption5read0
FN:77,_RNvMs_NtNtCs3Snzs7u97BX_4skim6helper11item_readerNtB4_20SkimItemReaderOption8buf_size
FN:152,_RNvMs_NtNtCs3Snzs7u97BX_4skim6helper11item_readerNtB4_20SkimItemReaderOption9is_simple
FN:187,_RINvMs2_NtNtCs3Snzs7u97BX_4skim6helper11item_readerNtB6_14SkimItemReader10of_bufreadINtNtNtNtCs5U62srxYbFV_3std2io8buffered9bufreader9BufReaderNtNtB1r_5stdio5StdinEECs7lWjSsce3cw_2sk
FN:272,_RINvMs2_NtNtCs3Snzs7u97BX_4skim6helper11item_readerNtB6_14SkimItemReader11raw_bufreadINtNtNtNtCs5U62srxYbFV_3std2io8buffered9bufreader9BufReaderNtNtB1s_5stdio5StdinEECs7lWjSsce3cw_2sk
FN:198,_RINvMs2_NtNtCs3Snzs7u97BX_4skim6helper11item_readerNtB6_14SkimItemReader21read_lines_into_itemsINtNtNtNtCs5U62srxYbFV_3std2io8buffered9bufreader9BufReaderNtNtB1C_5stdio5StdinEECs7lWjSsce3cw_2sk
FN:276,_RNCINvMs2_NtNtCs3Snzs7u97BX_4skim6helper11item_readerNtB8_14SkimItemReader11raw_bufreadINtNtNtNtCs5U62srxYbFV_3std2io8buffered9bufreader9BufReaderNtNtB1u_5stdio5StdinEE0Cs7lWjSsce3cw_2sk
FN:198,_RINvMs2_NtNtCs2dRlemTKIe9_4skim6helper11item_readerNtB6_14SkimItemReader21read_lines_into_itemsINtNtCshYl8hDvVEcY_5alloc5boxed3BoxDNtNtCs5U62srxYbFV_3std2io7BufReadNtNtCs3IJltBbNwOJ_4core6marker4SendEL_EEBa_
FN:318,_RNCNCNCNvMs2_NtNtCs2dRlemTKIe9_4skim6helper11item_readerNtBb_14SkimItemReader29read_and_collect_from_command000Bf_
FN:318,_RNCNCNvMs2_NtNtCs2dRlemTKIe9_4skim6helper11item_readerNtB9_14SkimItemReader29read_and_collect_from_command00Bd_
FN:326,_RNCNCNvMs2_NtNtCs2dRlemTKIe9_4skim6helper11item_readerNtB9_14SkimItemReader29read_and_collect_from_command0s_0Bd_
FN:304,_RNCNvMs2_NtNtCs2dRlemTKIe9_4skim6helper11item_readerNtB7_14SkimItemReader29read_and_collect_from_command0Bb_
FN:357,_RNCNvMs2_NtNtCs2dRlemTKIe9_4skim6helper11item_readerNtB7_14SkimItemReader29read_and_collect_from_commands_0Bb_
FN:285,_RNvMs2_NtNtCs2dRlemTKIe9_4skim6helper11item_readerNtB5_14SkimItemReader29read_and_collect_from_command
FN:389,_RNvNtNtCs2dRlemTKIe9_4skim6helper11item_reader18get_command_output
FN:41,_RNvXNtNtCs2dRlemTKIe9_4skim6helper11item_readerNtB2_20SkimItemReaderOptionNtNtCs3IJltBbNwOJ_4core7default7Default7default
FN:163,_RNvXs0_NtNtCs2dRlemTKIe9_4skim6helper11item_readerNtB5_14SkimItemReaderNtNtCs3IJltBbNwOJ_4core7default7Default7default
FN:378,_RNvXs3_NtNtCs2dRlemTKIe9_4skim6helper11item_readerNtB5_14SkimItemReaderNtNtB9_6reader16CommandCollector6invoke
FN:187,_RINvMs2_NtNtCs2dRlemTKIe9_4skim6helper11item_readerNtB6_14SkimItemReader10of_bufreadpEBa_
FN:272,_RINvMs2_NtNtCs2dRlemTKIe9_4skim6helper11item_readerNtB6_14SkimItemReader11raw_bufreadpEBa_
FN:116,_RINvMs_NtNtCs2dRlemTKIe9_4skim6helper11item_readerNtB5_20SkimItemReaderOption3nthpEB9_
FN:101,_RINvMs_NtNtCs2dRlemTKIe9_4skim6helper11item_readerNtB5_20SkimItemReaderOption8with_nthpEB9_
FN:276,_RNCINvMs2_NtNtCs2dRlemTKIe9_4skim6helper11item_readerNtB8_14SkimItemReader11raw_bufreadpE0Bc_
FN:64,_RNCNvMs_NtNtCs2dRlemTKIe9_4skim6helper11item_readerNtB6_20SkimItemReaderOption12from_options0Ba_
FN:69,_RNCNvMs_NtNtCs2dRlemTKIe9_4skim6helper11item_readerNtB6_20SkimItemReaderOption12from_optionss_0Ba_
FN:172,_RNvMs1_NtNtCs2dRlemTKIe9_4skim6helper11item_readerNtB5_14SkimItemReader3new
FN:179,_RNvMs1_NtNtCs2dRlemTKIe9_4skim6helper11item_readerNtB5_14SkimItemReader6option
FN:141,_RNvMs_NtNtCs2dRlemTKIe9_4skim6helper11item_readerNtB4_20SkimItemReaderOption10show_error
FN:83,_RNvMs_NtNtCs2dRlemTKIe9_4skim6helper11item_readerNtB4_20SkimItemReaderOption11line_ending
FN:56,_RNvMs_NtNtCs2dRlemTKIe9_4skim6helper11item_readerNtB4_20SkimItemReaderOption12from_options
FN:125,_RNvMs_NtNtCs2dRlemTKIe9_4skim6helper11item_readerNtB4_20SkimItemReaderOption15matching_fields
FN:110,_RNvMs_NtNtCs2dRlemTKIe9_4skim6helper11item_readerNtB4_20SkimItemReaderOption16transform_fields
FN:89,_RNvMs_NtNtCs2dRlemTKIe9_4skim6helper11item_readerNtB4_20SkimItemReaderOption4ansi
FN:147,_RNvMs_NtNtCs2dRlemTKIe9_4skim6helper11item_readerNtB4_20SkimItemReaderOption5build
FN:131,_RNvMs_NtNtCs2dRlemTKIe9_4skim6helper11item_readerNtB4_20SkimItemReaderOption5read0
FN:77,_RNvMs_NtNtCs2dRlemTKIe9_4skim6helper11item_readerNtB4_20SkimItemReaderOption8buf_size
FN:95,_RNvMs_NtNtCs2dRlemTKIe9_4skim6helper11item_readerNtB4_20SkimItemReaderOption9delimiter
FN:152,_RNvMs_NtNtCs2dRlemTKIe9_4skim6helper11item_readerNtB4_20SkimItemReaderOption9is_simple
FNDA:0,_RINvMs2_NtNtCs3Snzs7u97BX_4skim6helper11item_readerNtB6_14SkimItemReader21read_lines_into_itemsINtNtCshYl8hDvVEcY_5alloc5boxed3BoxDNtNtCs5U62srxYbFV_3std2io7BufReadNtNtCs3IJltBbNwOJ_4core6marker4SendEL_EEBa_
FNDA:0,_RNCNCNCNvMs2_NtNtCs3Snzs7u97BX_4skim6helper11item_readerNtBb_14SkimItemReader29read_and_collect_from_command000Bf_
FNDA:0,_RNCNCNvMs2_NtNtCs3Snzs7u97BX_4skim6helper11item_readerNtB9_14SkimItemReader29read_and_collect_from_command00Bd_
FNDA:0,_RNCNCNvMs2_NtNtCs3Snzs7u97BX_4skim6helper11item_readerNtB9_14SkimItemReader29read_and_collect_from_command0s_0Bd_
FNDA:0,_RNCNvMs2_NtNtCs3Snzs7u97BX_4skim6helper11item_readerNtB7_14SkimItemReader29read_and_collect_from_command0Bb_
FNDA:0,_RNCNvMs2_NtNtCs3Snzs7u97BX_4skim6helper11item_readerNtB7_14SkimItemReader29read_and_collect_from_commands_0Bb_
FNDA:0,_RNCNvMs_NtNtCs3Snzs7u97BX_4skim6helper11item_readerNtB6_20SkimItemReaderOption12from_options0Ba_
FNDA:0,_RNCNvMs_NtNtCs3Snzs7u97BX_4skim6helper11item_readerNtB6_20SkimItemReaderOption12from_optionss_0Ba_
FNDA:0,_RNvMs1_NtNtCs3Snzs7u97BX_4skim6helper11item_readerNtB5_14SkimItemReader3new
FNDA:0,_RNvMs1_NtNtCs3Snzs7u97BX_4skim6helper11item_readerNtB5_14SkimItemReader6option
FNDA:0,_RNvMs2_NtNtCs3Snzs7u97BX_4skim6helper11item_readerNtB5_14SkimItemReader29read_and_collect_from_command
FNDA:0,_RNvMs_NtNtCs3Snzs7u97BX_4skim6helper11item_readerNtB4_20SkimItemReaderOption12from_options
FNDA:0,_RNvMs_NtNtCs3Snzs7u97BX_4skim6helper11item_readerNtB4_20SkimItemReaderOption15matching_fields
FNDA:0,_RNvMs_NtNtCs3Snzs7u97BX_4skim6helper11item_readerNtB4_20SkimItemReaderOption16transform_fields
FNDA:0,_RNvMs_NtNtCs3Snzs7u97BX_4skim6helper11item_readerNtB4_20SkimItemReaderOption9delimiter
FNDA:0,_RNvNtNtCs3Snzs7u97BX_4skim6helper11item_reader18get_command_output
FNDA:0,_RNvXNtNtCs3Snzs7u97BX_4skim6helper11item_readerNtB2_20SkimItemReaderOptionNtNtCs3IJltBbNwOJ_4core7default7Default7default
FNDA:0,_RNvXs0_NtNtCs3Snzs7u97BX_4skim6helper11item_readerNtB5_14SkimItemReaderNtNtCs3IJltBbNwOJ_4core7default7Default7default
FNDA:0,_RNvXs3_NtNtCs3Snzs7u97BX_4skim6helper11item_readerNtB5_14SkimItemReaderNtNtB9_6reader16CommandCollector6invoke
FNDA:0,_RINvMs2_NtNtCs3Snzs7u97BX_4skim6helper11item_readerNtB6_14SkimItemReader10of_bufreadpEBa_
FNDA:0,_RINvMs2_NtNtCs3Snzs7u97BX_4skim6helper11item_readerNtB6_14SkimItemReader11raw_bufreadpEBa_
FNDA:0,_RINvMs_NtNtCs3Snzs7u97BX_4skim6helper11item_readerNtB5_20SkimItemReaderOption3nthpEB9_
FNDA:0,_RINvMs_NtNtCs3Snzs7u97BX_4skim6helper11item_readerNtB5_20SkimItemReaderOption8with_nthpEB9_
FNDA:0,_RNCINvMs2_NtNtCs3Snzs7u97BX_4skim6helper11item_readerNtB8_14SkimItemReader11raw_bufreadpE0Bc_
FNDA:0,_RNvMs_NtNtCs3Snzs7u97BX_4skim6helper11item_readerNtB4_20SkimItemReaderOption10show_error
FNDA:0,_RNvMs_NtNtCs3Snzs7u97BX_4skim6helper11item_readerNtB4_20SkimItemReaderOption11line_ending
FNDA:0,_RNvMs_NtNtCs3Snzs7u97BX_4skim6helper11item_readerNtB4_20SkimItemReaderOption4ansi
FNDA:0,_RNvMs_NtNtCs3Snzs7u97BX_4skim6helper11item_readerNtB4_20SkimItemReaderOption5build
FNDA:0,_RNvMs_NtNtCs3Snzs7u97BX_4skim6helper11item_readerNtB4_20SkimItemReaderOption5read0
FNDA:0,_RNvMs_NtNtCs3Snzs7u97BX_4skim6helper11item_readerNtB4_20SkimItemReaderOption8buf_size
FNDA:0,_RNvMs_NtNtCs3Snzs7u97BX_4skim6helper11item_readerNtB4_20SkimItemReaderOption9is_simple
FNDA:0,_RINvMs2_NtNtCs3Snzs7u97BX_4skim6helper11item_readerNtB6_14SkimItemReader10of_bufreadINtNtNtNtCs5U62srxYbFV_3std2io8buffered9bufreader9BufReaderNtNtB1r_5stdio5StdinEECs7lWjSsce3cw_2sk
FNDA:0,_RINvMs2_NtNtCs3Snzs7u97BX_4skim6helper11item_readerNtB6_14SkimItemReader11raw_bufreadINtNtNtNtCs5U62srxYbFV_3std2io8buffered9bufreader9BufReaderNtNtB1s_5stdio5StdinEECs7lWjSsce3cw_2sk
FNDA:0,_RINvMs2_NtNtCs3Snzs7u97BX_4skim6helper11item_readerNtB6_14SkimItemReader21read_lines_into_itemsINtNtNtNtCs5U62srxYbFV_3std2io8buffered9bufreader9BufReaderNtNtB1C_5stdio5StdinEECs7lWjSsce3cw_2sk
FNDA:0,_RNCINvMs2_NtNtCs3Snzs7u97BX_4skim6helper11item_readerNtB8_14SkimItemReader11raw_bufreadINtNtNtNtCs5U62srxYbFV_3std2io8buffered9bufreader9BufReaderNtNtB1u_5stdio5StdinEE0Cs7lWjSsce3cw_2sk
FNDA:0,_RINvMs2_NtNtCs2dRlemTKIe9_4skim6helper11item_readerNtB6_14SkimItemReader21read_lines_into_itemsINtNtCshYl8hDvVEcY_5alloc5boxed3BoxDNtNtCs5U62srxYbFV_3std2io7BufReadNtNtCs3IJltBbNwOJ_4core6marker4SendEL_EEBa_
FNDA:0,_RNCNCNCNvMs2_NtNtCs2dRlemTKIe9_4skim6helper11item_readerNtBb_14SkimItemReader29read_and_collect_from_command000Bf_
FNDA:0,_RNCNCNvMs2_NtNtCs2dRlemTKIe9_4skim6helper11item_readerNtB9_14SkimItemReader29read_and_collect_from_command00Bd_
FNDA:0,_RNCNCNvMs2_NtNtCs2dRlemTKIe9_4skim6helper11item_readerNtB9_14SkimItemReader29read_and_collect_from_command0s_0Bd_
FNDA:0,_RNCNvMs2_NtNtCs2dRlemTKIe9_4skim6helper11item_readerNtB7_14SkimItemReader29read_and_collect_from_command0Bb_
FNDA:0,_RNCNvMs2_NtNtCs2dRlemTKIe9_4skim6helper11item_readerNtB7_14SkimItemReader29read_and_collect_from_commands_0Bb_
FNDA:0,_RNvMs2_NtNtCs2dRlemTKIe9_4skim6helper11item_readerNtB5_14SkimItemReader29read_and_collect_from_command
FNDA:0,_RNvNtNtCs2dRlemTKIe9_4skim6helper11item_reader18get_command_output
FNDA:0,_RNvXNtNtCs2dRlemTKIe9_4skim6helper11item_readerNtB2_20SkimItemReaderOptionNtNtCs3IJltBbNwOJ_4core7default7Default7default
FNDA:0,_RNvXs0_NtNtCs2dRlemTKIe9_4skim6helper11item_readerNtB5_14SkimItemReaderNtNtCs3IJltBbNwOJ_4core7default7Default7default
FNDA:0,_RNvXs3_NtNtCs2dRlemTKIe9_4skim6helper11item_readerNtB5_14SkimItemReaderNtNtB9_6reader16CommandCollector6invoke
FNDA:0,_RINvMs2_NtNtCs2dRlemTKIe9_4skim6helper11item_readerNtB6_14SkimItemReader10of_bufreadpEBa_
FNDA:0,_RINvMs2_NtNtCs2dRlemTKIe9_4skim6helper11item_readerNtB6_14SkimItemReader11raw_bufreadpEBa_
FNDA:0,_RINvMs_NtNtCs2dRlemTKIe9_4skim6helper11item_readerNtB5_20SkimItemReaderOption3nthpEB9_
FNDA:0,_RINvMs_NtNtCs2dRlemTKIe9_4skim6helper11item_readerNtB5_20SkimItemReaderOption8with_nthpEB9_
FNDA:0,_RNCINvMs2_NtNtCs2dRlemTKIe9_4skim6helper11item_readerNtB8_14SkimItemReader11raw_bufreadpE0Bc_
FNDA:0,_RNCNvMs_NtNtCs2dRlemTKIe9_4skim6helper11item_readerNtB6_20SkimItemReaderOption12from_options0Ba_
FNDA:0,_RNCNvMs_NtNtCs2dRlemTKIe9_4skim6helper11item_readerNtB6_20SkimItemReaderOption12from_optionss_0Ba_
FNDA:0,_RNvMs1_NtNtCs2dRlemTKIe9_4skim6helper11item_readerNtB5_14SkimItemReader3new
FNDA:0,_RNvMs1_NtNtCs2dRlemTKIe9_4skim6helper11item_readerNtB5_14SkimItemReader6option
FNDA:0,_RNvMs_NtNtCs2dRlemTKIe9_4skim6helper11item_readerNtB4_20SkimItemReaderOption10show_error
FNDA:0,_RNvMs_NtNtCs2dRlemTKIe9_4skim6helper11item_readerNtB4_20SkimItemReaderOption11line_ending
FNDA:0,_RNvMs_NtNtCs2dRlemTKIe9_4skim6helper11item_readerNtB4_20SkimItemReaderOption12from_options
FNDA:0,_RNvMs_NtNtCs2dRlemTKIe9_4skim6helper11item_readerNtB4_20SkimItemReaderOption15matching_fields
FNDA:0,_RNvMs_NtNtCs2dRlemTKIe9_4skim6helper11item_readerNtB4_20SkimItemReaderOption16transform_fields
FNDA:0,_RNvMs_NtNtCs2dRlemTKIe9_4skim6helper11item_readerNtB4_20SkimItemReaderOption4ansi
FNDA:0,_RNvMs_NtNtCs2dRlemTKIe9_4skim6helper11item_readerNtB4_20SkimItemReaderOption5build
FNDA:0,_RNvMs_NtNtCs2dRlemTKIe9_4skim6helper11item_readerNtB4_20SkimItemReaderOption5read0
FNDA:0,_RNvMs_NtNtCs2dRlemTKIe9_4skim6helper11item_readerNtB4_20SkimItemReaderOption8buf_size
FNDA:0,_RNvMs_NtNtCs2dRlemTKIe9_4skim6helper11item_readerNtB4_20SkimItemReaderOption9delimiter
FNDA:0,_RNvMs_NtNtCs2dRlemTKIe9_4skim6helper11item_readerNtB4_20SkimItemReaderOption9is_simple
FNF:31
FNH:0
DA:41,0
DA:42,0
DA:43,0
DA:44,0
DA:45,0
DA:46,0
DA:47,0
DA:48,0
DA:49,0
DA:50,0
DA:51,0
DA:56,0
DA:59,0
DA:60,0
DA:61,0
DA:62,0
DA:63,0
DA:64,0
DA:65,0
DA:66,0
DA:67,0
DA:68,0
DA:69,0
DA:70,0
DA:71,0
DA:72,0
DA:74,0
DA:77,0
DA:78,0
DA:79,0
DA:80,0
DA:83,0
DA:84,0
DA:85,0
DA:86,0
DA:89,0
DA:90,0
DA:91,0
DA:92,0
DA:95,0
DA:96,0
DA:97,0
DA:98,0
DA:101,0
DA:102,0
DA:103,0
DA:105,0
DA:106,0
DA:107,0
DA:110,0
DA:111,0
DA:112,0
DA:113,0
DA:116,0
DA:117,0
DA:118,0
DA:120,0
DA:121,0
DA:122,0
DA:125,0
DA:126,0
DA:127,0
DA:128,0
DA:131,0
DA:132,0
DA:133,0
DA:134,0
DA:135,0
DA:136,0
DA:137,0
DA:138,0
DA:141,0
DA:142,0
DA:143,0
DA:144,0
DA:147,0
DA:148,0
DA:149,0
DA:152,0
DA:153,0
DA:154,0
DA:163,0
DA:164,0
DA:165,0
DA:166,0
DA:167,0
DA:172,0
DA:173,0
DA:174,0
DA:175,0
DA:176,0
DA:179,0
DA:180,0
DA:181,0
DA:182,0
DA:187,0
DA:188,0
DA:189,0
DA:191,0
DA:192,0
DA:194,0
DA:198,0
DA:199,0
DA:200,0
DA:201,0
DA:202,0
DA:203,0
DA:204,0
DA:205,0
DA:206,0
DA:207,0
DA:208,0
DA:209,0
DA:212,0
DA:215,0
DA:216,0
DA:219,0
DA:220,0
DA:221,0
DA:222,0
DA:223,0
DA:224,0
DA:226,0
DA:228,0
DA:230,0
DA:231,0
DA:232,0
DA:233,0
DA:234,0
DA:235,0
DA:236,0
DA:238,0
DA:240,0
DA:242,0
DA:243,0
DA:248,0
DA:249,0
DA:251,0
DA:252,0
DA:253,0
DA:254,0
DA:255,0
DA:256,0
DA:257,0
DA:258,0
DA:259,0
DA:262,0
DA:266,0
DA:267,0
DA:268,0
DA:269,0
DA:272,0
DA:273,0
DA:274,0
DA:276,0
DA:277,0
DA:278,0
DA:280,0
DA:281,0
DA:285,0
DA:286,0
DA:287,0
DA:288,0
DA:289,0
DA:290,0
DA:291,0
DA:292,0
DA:293,0
DA:296,0
DA:297,0
DA:299,0
DA:300,0
DA:301,0
DA:302,0
DA:304,0
DA:305,0
DA:306,0
DA:307,0
DA:309,0
DA:310,0
DA:312,0
DA:313,0
DA:315,0
DA:316,0
DA:317,0
DA:318,0
DA:319,0
DA:320,0
DA:321,0
DA:322,0
DA:323,0
DA:324,0
DA:325,0
DA:326,0
DA:327,0
DA:328,0
DA:329,0
DA:330,0
DA:331,0
DA:332,0
DA:333,0
DA:334,0
DA:335,0
DA:336,0
DA:337,0
DA:338,0
DA:339,0
DA:340,0
DA:342,0
DA:343,0
DA:344,0
DA:346,0
DA:347,0
DA:348,0
DA:350,0
DA:351,0
DA:352,0
DA:353,0
DA:354,0
DA:355,0
DA:357,0
DA:358,0
DA:359,0
DA:360,0
DA:362,0
DA:364,0
DA:365,0
DA:366,0
DA:367,0
DA:369,0
DA:370,0
DA:371,0
DA:373,0
DA:374,0
DA:378,0
DA:379,0
DA:380,0
DA:381,0
DA:382,0
DA:383,0
DA:384,0
DA:389,0
DA:390,0
DA:391,0
DA:392,0
DA:393,0
DA:394,0
DA:395,0
DA:396,0
DA:397,0
DA:398,0
DA:400,0
DA:401,0
BRF:0
BRH:0
LF:261
LH:0
end_of_record
SF:/home/loric/src/skim/src/helper/selector.rs
FN:24,_RINvMNtNtCs3Snzs7u97BX_4skim6helper8selectorNtB3_19DefaultSkimSelector6presetINtNtCshYl8hDvVEcY_5alloc3vec3VecNtNtB1i_6string6StringEEB7_
FN:55,_RNCNvXs_NtNtCs3Snzs7u97BX_4skim6helper8selectorNtB6_19DefaultSkimSelectorNtBa_8Selector13should_select0Ba_
FN:61,_RNCNvXs_NtNtCs3Snzs7u97BX_4skim6helper8selectorNtB6_19DefaultSkimSelectorNtBa_8Selector13should_selects_0Ba_
FN:36,_RNvMNtNtCs3Snzs7u97BX_4skim6helper8selectorNtB2_19DefaultSkimSelector5regex
FN:17,_RNvMNtNtCs3Snzs7u97BX_4skim6helper8selectorNtB2_19DefaultSkimSelector7first_n
FN:46,_RNvXs_NtNtCs3Snzs7u97BX_4skim6helper8selectorNtB4_19DefaultSkimSelectorNtB8_8Selector13should_select
FN:24,_RINvMNtNtCs2dRlemTKIe9_4skim6helper8selectorNtB3_19DefaultSkimSelector6presetINtNtCshYl8hDvVEcY_5alloc3vec3VecNtNtB1i_6string6StringEEB7_
FN:55,_RNCNvXs_NtNtCs2dRlemTKIe9_4skim6helper8selectorNtB6_19DefaultSkimSelectorNtBa_8Selector13should_select0Ba_
FN:61,_RNCNvXs_NtNtCs2dRlemTKIe9_4skim6helper8selectorNtB6_19DefaultSkimSelectorNtBa_8Selector13should_selects_0Ba_
FN:36,_RNvMNtNtCs2dRlemTKIe9_4skim6helper8selectorNtB2_19DefaultSkimSelector5regex
FN:17,_RNvMNtNtCs2dRlemTKIe9_4skim6helper8selectorNtB2_19DefaultSkimSelector7first_n
FN:46,_RNvXs_NtNtCs2dRlemTKIe9_4skim6helper8selectorNtB4_19DefaultSkimSelectorNtB8_8Selector13should_select
FNDA:0,_RINvMNtNtCs3Snzs7u97BX_4skim6helper8selectorNtB3_19DefaultSkimSelector6presetINtNtCshYl8hDvVEcY_5alloc3vec3VecNtNtB1i_6string6StringEEB7_
FNDA:0,_RNCNvXs_NtNtCs3Snzs7u97BX_4skim6helper8selectorNtB6_19DefaultSkimSelectorNtBa_8Selector13should_select0Ba_
FNDA:0,_RNCNvXs_NtNtCs3Snzs7u97BX_4skim6helper8selectorNtB6_19DefaultSkimSelectorNtBa_8Selector13should_selects_0Ba_
FNDA:0,_RNvMNtNtCs3Snzs7u97BX_4skim6helper8selectorNtB2_19DefaultSkimSelector5regex
FNDA:0,_RNvMNtNtCs3Snzs7u97BX_4skim6helper8selectorNtB2_19DefaultSkimSelector7first_n
FNDA:0,_RNvXs_NtNtCs3Snzs7u97BX_4skim6helper8selectorNtB4_19DefaultSkimSelectorNtB8_8Selector13should_select
FNDA:0,_RINvMNtNtCs2dRlemTKIe9_4skim6helper8selectorNtB3_19DefaultSkimSelector6presetINtNtCshYl8hDvVEcY_5alloc3vec3VecNtNtB1i_6string6StringEEB7_
FNDA:0,_RNCNvXs_NtNtCs2dRlemTKIe9_4skim6helper8selectorNtB6_19DefaultSkimSelectorNtBa_8Selector13should_select0Ba_
FNDA:0,_RNCNvXs_NtNtCs2dRlemTKIe9_4skim6helper8selectorNtB6_19DefaultSkimSelectorNtBa_8Selector13should_selects_0Ba_
FNDA:0,_RNvMNtNtCs2dRlemTKIe9_4skim6helper8selectorNtB2_19DefaultSkimSelector5regex
FNDA:0,_RNvMNtNtCs2dRlemTKIe9_4skim6helper8selectorNtB2_19DefaultSkimSelector7first_n
FNDA:0,_RNvXs_NtNtCs2dRlemTKIe9_4skim6helper8selectorNtB4_19DefaultSkimSelectorNtB8_8Selector13should_select
FNF:6
FNH:0
DA:17,0
DA:18,0
DA:19,0
DA:20,0
DA:21,0
DA:24,0
DA:25,0
DA:26,0
DA:27,0
DA:29,0
DA:30,0
DA:31,0
DA:32,0
DA:33,0
DA:36,0
DA:37,0
DA:38,0
DA:39,0
DA:40,0
DA:41,0
DA:42,0
DA:46,0
DA:47,0
DA:48,0
DA:49,0
DA:51,0
DA:52,0
DA:53,0
DA:54,0
DA:55,0
DA:56,0
DA:58,0
DA:59,0
DA:61,0
DA:62,0
DA:63,0
DA:65,0
DA:66,0
BRF:0
BRH:0
LF:40
LH:0
end_of_record
SF:/home/loric/src/skim/src/item.rs
FN:98,_RINvXs1_NtCs3Snzs7u97BX_4skim4itemNtB6_11MatchedItemNtNtCs3IJltBbNwOJ_4core4hash4Hash4hashNtNtNtCs5U62srxYbFV_3std4hash6random13DefaultHasherEB8_
FN:176,_RNvMs9_NtCs3Snzs7u97BX_4skim4itemNtB5_8ItemPool12from_options
FN:198,_RNvMs9_NtCs3Snzs7u97BX_4skim4itemNtB5_8ItemPool13num_not_taken
FN:188,_RNvMs9_NtCs3Snzs7u97BX_4skim4itemNtB5_8ItemPool3len
FN:171,_RNvMs9_NtCs3Snzs7u97BX_4skim4itemNtB5_8ItemPool3new
FN:263,_RNvMs9_NtCs3Snzs7u97BX_4skim4itemNtB5_8ItemPool4take
FN:208,_RNvMs9_NtCs3Snzs7u97BX_4skim4itemNtB5_8ItemPool5clear
FN:218,_RNvMs9_NtCs3Snzs7u97BX_4skim4itemNtB5_8ItemPool5reset
FN:226,_RNvMs9_NtCs3Snzs7u97BX_4skim4itemNtB5_8ItemPool6append
FN:193,_RNvMs9_NtCs3Snzs7u97BX_4skim4itemNtB5_8ItemPool8is_empty
FN:273,_RNvMs9_NtCs3Snzs7u97BX_4skim4itemNtB5_8ItemPool8reserved
FN:203,_RNvMs9_NtCs3Snzs7u97BX_4skim4itemNtB5_8ItemPool9num_taken
FN:48,_RNvMs_NtCs3Snzs7u97BX_4skim4itemNtB4_11RankBuilder10build_rank
FN:38,_RNvMs_NtCs3Snzs7u97BX_4skim4itemNtB4_11RankBuilder3new
FN:29,_RNvXNtCs3Snzs7u97BX_4skim4itemNtB2_11RankBuilderNtNtCs3IJltBbNwOJ_4core7default7Default7default
FN:88,_RNvXs0_NtCs3Snzs7u97BX_4skim4itemNtB5_11MatchedItemNtNtCs3IJltBbNwOJ_4core3fmt5Debug3fmt
FN:107,_RNvXs2_NtCs3Snzs7u97BX_4skim4itemNtB5_11MatchedItemNtNtNtCs3IJltBbNwOJ_4core3ops5deref5Deref5deref
FN:117,_RNvXs4_NtCs3Snzs7u97BX_4skim4itemNtB5_11MatchedItemNtNtCs3IJltBbNwOJ_4core3cmp9PartialEq2eq
FN:125,_RNvXs6_NtCs3Snzs7u97BX_4skim4itemNtB5_11MatchedItemNtNtCs3IJltBbNwOJ_4core3cmp10PartialOrd11partial_cmp
FN:131,_RNvXs7_NtCs3Snzs7u97BX_4skim4itemNtB5_11MatchedItemNtNtCs3IJltBbNwOJ_4core3cmp3Ord3cmp
FN:157,_RNvXs8_NtCs3Snzs7u97BX_4skim4itemNtB5_8ItemPoolNtNtCs3IJltBbNwOJ_4core7default7Default7default
FN:321,_RNvXsb_NtCs3Snzs7u97BX_4skim4itemNtB5_12RankCriteriaNtNtCs6o9uXgfffF5_12clap_builder6derive9ValueEnum14value_variants
FN:328,_RNvXsb_NtCs3Snzs7u97BX_4skim4itemNtB5_12RankCriteriaNtNtCs6o9uXgfffF5_12clap_builder6derive9ValueEnum17to_possible_value
FN:288,_RNvXININtCs3Snzs7u97BX_4skim4itemsa_0pEINtB5_13ItemPoolGuardpENtNtNtCs3IJltBbNwOJ_4core3ops5deref5Deref5derefB7_
FN:48,_RNvMs_NtCs2dRlemTKIe9_4skim4itemNtB4_11RankBuilder10build_rank
FN:29,_RNvXNtCs2dRlemTKIe9_4skim4itemNtB2_11RankBuilderNtNtCs3IJltBbNwOJ_4core7default7Default7default
FN:98,_RINvXs1_NtCs2dRlemTKIe9_4skim4itemNtB6_11MatchedItemNtNtCs3IJltBbNwOJ_4core4hash4Hash4hashpEB8_
FN:176,_RNvMs9_NtCs2dRlemTKIe9_4skim4itemNtB5_8ItemPool12from_options
FN:198,_RNvMs9_NtCs2dRlemTKIe9_4skim4itemNtB5_8ItemPool13num_not_taken
FN:188,_RNvMs9_NtCs2dRlemTKIe9_4skim4itemNtB5_8ItemPool3len
FN:171,_RNvMs9_NtCs2dRlemTKIe9_4skim4itemNtB5_8ItemPool3new
FN:263,_RNvMs9_NtCs2dRlemTKIe9_4skim4itemNtB5_8ItemPool4take
FN:208,_RNvMs9_NtCs2dRlemTKIe9_4skim4itemNtB5_8ItemPool5clear
FN:218,_RNvMs9_NtCs2dRlemTKIe9_4skim4itemNtB5_8ItemPool5reset
FN:226,_RNvMs9_NtCs2dRlemTKIe9_4skim4itemNtB5_8ItemPool6append
FN:193,_RNvMs9_NtCs2dRlemTKIe9_4skim4itemNtB5_8ItemPool8is_empty
FN:273,_RNvMs9_NtCs2dRlemTKIe9_4skim4itemNtB5_8ItemPool8reserved
FN:203,_RNvMs9_NtCs2dRlemTKIe9_4skim4itemNtB5_8ItemPool9num_taken
FN:38,_RNvMs_NtCs2dRlemTKIe9_4skim4itemNtB4_11RankBuilder3new
FN:288,_RNvXININtCs2dRlemTKIe9_4skim4itemsa_0pEINtB5_13ItemPoolGuardpENtNtNtCs3IJltBbNwOJ_4core3ops5deref5Deref5derefB7_
FN:88,_RNvXs0_NtCs2dRlemTKIe9_4skim4itemNtB5_11MatchedItemNtNtCs3IJltBbNwOJ_4core3fmt5Debug3fmt
FN:107,_RNvXs2_NtCs2dRlemTKIe9_4skim4itemNtB5_11MatchedItemNtNtNtCs3IJltBbNwOJ_4core3ops5deref5Deref5deref
FN:117,_RNvXs4_NtCs2dRlemTKIe9_4skim4itemNtB5_11MatchedItemNtNtCs3IJltBbNwOJ_4core3cmp9PartialEq2eq
FN:125,_RNvXs6_NtCs2dRlemTKIe9_4skim4itemNtB5_11MatchedItemNtNtCs3IJltBbNwOJ_4core3cmp10PartialOrd11partial_cmp
FN:131,_RNvXs7_NtCs2dRlemTKIe9_4skim4itemNtB5_11MatchedItemNtNtCs3IJltBbNwOJ_4core3cmp3Ord3cmp
FN:157,_RNvXs8_NtCs2dRlemTKIe9_4skim4itemNtB5_8ItemPoolNtNtCs3IJltBbNwOJ_4core7default7Default7default
FN:321,_RNvXsb_NtCs2dRlemTKIe9_4skim4itemNtB5_12RankCriteriaNtNtCs6o9uXgfffF5_12clap_builder6derive9ValueEnum14value_variants
FN:328,_RNvXsb_NtCs2dRlemTKIe9_4skim4itemNtB5_12RankCriteriaNtNtCs6o9uXgfffF5_12clap_builder6derive9ValueEnum17to_possible_value
FNDA:0,_RINvXs1_NtCs3Snzs7u97BX_4skim4itemNtB6_11MatchedItemNtNtCs3IJltBbNwOJ_4core4hash4Hash4hashNtNtNtCs5U62srxYbFV_3std4hash6random13DefaultHasherEB8_
FNDA:0,_RNvMs9_NtCs3Snzs7u97BX_4skim4itemNtB5_8ItemPool12from_options
FNDA:0,_RNvMs9_NtCs3Snzs7u97BX_4skim4itemNtB5_8ItemPool13num_not_taken
FNDA:0,_RNvMs9_NtCs3Snzs7u97BX_4skim4itemNtB5_8ItemPool3len
FNDA:0,_RNvMs9_NtCs3Snzs7u97BX_4skim4itemNtB5_8ItemPool3new
FNDA:0,_RNvMs9_NtCs3Snzs7u97BX_4skim4itemNtB5_8ItemPool4take
FNDA:0,_RNvMs9_NtCs3Snzs7u97BX_4skim4itemNtB5_8ItemPool5clear
FNDA:0,_RNvMs9_NtCs3Snzs7u97BX_4skim4itemNtB5_8ItemPool5reset
FNDA:0,_RNvMs9_NtCs3Snzs7u97BX_4skim4itemNtB5_8ItemPool6append
FNDA:0,_RNvMs9_NtCs3Snzs7u97BX_4skim4itemNtB5_8ItemPool8is_empty
FNDA:0,_RNvMs9_NtCs3Snzs7u97BX_4skim4itemNtB5_8ItemPool8reserved
FNDA:0,_RNvMs9_NtCs3Snzs7u97BX_4skim4itemNtB5_8ItemPool9num_taken
FNDA:0,_RNvMs_NtCs3Snzs7u97BX_4skim4itemNtB4_11RankBuilder10build_rank
FNDA:0,_RNvMs_NtCs3Snzs7u97BX_4skim4itemNtB4_11RankBuilder3new
FNDA:0,_RNvXNtCs3Snzs7u97BX_4skim4itemNtB2_11RankBuilderNtNtCs3IJltBbNwOJ_4core7default7Default7default
FNDA:0,_RNvXs0_NtCs3Snzs7u97BX_4skim4itemNtB5_11MatchedItemNtNtCs3IJltBbNwOJ_4core3fmt5Debug3fmt
FNDA:0,_RNvXs2_NtCs3Snzs7u97BX_4skim4itemNtB5_11MatchedItemNtNtNtCs3IJltBbNwOJ_4core3ops5deref5Deref5deref
FNDA:0,_RNvXs4_NtCs3Snzs7u97BX_4skim4itemNtB5_11MatchedItemNtNtCs3IJltBbNwOJ_4core3cmp9PartialEq2eq
FNDA:0,_RNvXs6_NtCs3Snzs7u97BX_4skim4itemNtB5_11MatchedItemNtNtCs3IJltBbNwOJ_4core3cmp10PartialOrd11partial_cmp
FNDA:0,_RNvXs7_NtCs3Snzs7u97BX_4skim4itemNtB5_11MatchedItemNtNtCs3IJltBbNwOJ_4core3cmp3Ord3cmp
FNDA:0,_RNvXs8_NtCs3Snzs7u97BX_4skim4itemNtB5_8ItemPoolNtNtCs3IJltBbNwOJ_4core7default7Default7default
FNDA:0,_RNvXsb_NtCs3Snzs7u97BX_4skim4itemNtB5_12RankCriteriaNtNtCs6o9uXgfffF5_12clap_builder6derive9ValueEnum14value_variants
FNDA:0,_RNvXsb_NtCs3Snzs7u97BX_4skim4itemNtB5_12RankCriteriaNtNtCs6o9uXgfffF5_12clap_builder6derive9ValueEnum17to_possible_value
FNDA:0,_RNvXININtCs3Snzs7u97BX_4skim4itemsa_0pEINtB5_13ItemPoolGuardpENtNtNtCs3IJltBbNwOJ_4core3ops5deref5Deref5derefB7_
FNDA:0,_RNvMs_NtCs2dRlemTKIe9_4skim4itemNtB4_11RankBuilder10build_rank
FNDA:0,_RNvXNtCs2dRlemTKIe9_4skim4itemNtB2_11RankBuilderNtNtCs3IJltBbNwOJ_4core7default7Default7default
FNDA:0,_RINvXs1_NtCs2dRlemTKIe9_4skim4itemNtB6_11MatchedItemNtNtCs3IJltBbNwOJ_4core4hash4Hash4hashpEB8_
FNDA:0,_RNvMs9_NtCs2dRlemTKIe9_4skim4itemNtB5_8ItemPool12from_options
FNDA:0,_RNvMs9_NtCs2dRlemTKIe9_4skim4itemNtB5_8ItemPool13num_not_taken
FNDA:0,_RNvMs9_NtCs2dRlemTKIe9_4skim4itemNtB5_8ItemPool3len
FNDA:0,_RNvMs9_NtCs2dRlemTKIe9_4skim4itemNtB5_8ItemPool3new
FNDA:0,_RNvMs9_NtCs2dRlemTKIe9_4skim4itemNtB5_8ItemPool4take
FNDA:0,_RNvMs9_NtCs2dRlemTKIe9_4skim4itemNtB5_8ItemPool5clear
FNDA:0,_RNvMs9_NtCs2dRlemTKIe9_4skim4itemNtB5_8ItemPool5reset
FNDA:0,_RNvMs9_NtCs2dRlemTKIe9_4skim4itemNtB5_8ItemPool6append
FNDA:0,_RNvMs9_NtCs2dRlemTKIe9_4skim4itemNtB5_8ItemPool8is_empty
FNDA:0,_RNvMs9_NtCs2dRlemTKIe9_4skim4itemNtB5_8ItemPool8reserved
FNDA:0,_RNvMs9_NtCs2dRlemTKIe9_4skim4itemNtB5_8ItemPool9num_taken
FNDA:0,_RNvMs_NtCs2dRlemTKIe9_4skim4itemNtB4_11RankBuilder3new
FNDA:0,_RNvXININtCs2dRlemTKIe9_4skim4itemsa_0pEINtB5_13ItemPoolGuardpENtNtNtCs3IJltBbNwOJ_4core3ops5deref5Deref5derefB7_
FNDA:0,_RNvXs0_NtCs2dRlemTKIe9_4skim4itemNtB5_11MatchedItemNtNtCs3IJltBbNwOJ_4core3fmt5Debug3fmt
FNDA:0,_RNvXs2_NtCs2dRlemTKIe9_4skim4itemNtB5_11MatchedItemNtNtNtCs3IJltBbNwOJ_4core3ops5deref5Deref5deref
FNDA:0,_RNvXs4_NtCs2dRlemTKIe9_4skim4itemNtB5_11MatchedItemNtNtCs3IJltBbNwOJ_4core3cmp9PartialEq2eq
FNDA:0,_RNvXs6_NtCs2dRlemTKIe9_4skim4itemNtB5_11MatchedItemNtNtCs3IJltBbNwOJ_4core3cmp10PartialOrd11partial_cmp
FNDA:0,_RNvXs7_NtCs2dRlemTKIe9_4skim4itemNtB5_11MatchedItemNtNtCs3IJltBbNwOJ_4core3cmp3Ord3cmp
FNDA:0,_RNvXs8_NtCs2dRlemTKIe9_4skim4itemNtB5_8ItemPoolNtNtCs3IJltBbNwOJ_4core7default7Default7default
FNDA:0,_RNvXsb_NtCs2dRlemTKIe9_4skim4itemNtB5_12RankCriteriaNtNtCs6o9uXgfffF5_12clap_builder6derive9ValueEnum14value_variants
FNDA:0,_RNvXsb_NtCs2dRlemTKIe9_4skim4itemNtB5_12RankCriteriaNtNtCs6o9uXgfffF5_12clap_builder6derive9ValueEnum17to_possible_value
FNF:24
FNH:0
DA:29,0
DA:30,0
DA:31,0
DA:32,0
DA:33,0
DA:38,0
DA:39,0
DA:40,0
DA:41,0
DA:43,0
DA:44,0
DA:45,0
DA:48,0
DA:49,0
DA:50,0
DA:51,0
DA:52,0
DA:53,0
DA:55,0
DA:56,0
DA:57,0
DA:58,0
DA:59,0
DA:60,0
DA:61,0
DA:62,0
DA:63,0
DA:64,0
DA:65,0
DA:66,0
DA:69,0
DA:71,0
DA:72,0
DA:88,0
DA:89,0
DA:90,0
DA:91,0
DA:92,0
DA:93,0
DA:94,0
DA:98,0
DA:99,0
DA:100,0
DA:101,0
DA:107,0
DA:108,0
DA:109,0
DA:117,0
DA:118,0
DA:119,0
DA:125,0
DA:126,0
DA:127,0
DA:131,0
DA:132,0
DA:133,0
DA:157,0
DA:158,0
DA:159,0
DA:160,0
DA:161,0
DA:162,0
DA:163,0
DA:164,0
DA:165,0
DA:166,0
DA:171,0
DA:172,0
DA:173,0
DA:176,0
DA:177,0
DA:178,0
DA:179,0
DA:180,0
DA:181,0
DA:182,0
DA:183,0
DA:184,0
DA:185,0
DA:188,0
DA:189,0
DA:190,0
DA:193,0
DA:194,0
DA:195,0
DA:198,0
DA:199,0
DA:200,0
DA:203,0
DA:204,0
DA:205,0
DA:208,0
DA:209,0
DA:210,0
DA:211,0
DA:212,0
DA:213,0
DA:214,0
DA:215,0
DA:218,0
DA:220,0
DA:222,0
DA:223,0
DA:226,0
DA:227,0
DA:228,0
DA:229,0
DA:230,0
DA:232,0
DA:233,0
DA:234,0
DA:236,0
DA:239,0
DA:241,0
DA:243,0
DA:244,0
DA:245,0
DA:246,0
DA:247,0
DA:248,0
DA:249,0
DA:251,0
DA:252,0
DA:253,0
DA:254,0
DA:255,0
DA:256,0
DA:257,0
DA:258,0
DA:259,0
DA:260,0
DA:263,0
DA:264,0
DA:265,0
DA:267,0
DA:268,0
DA:269,0
DA:270,0
DA:273,0
DA:274,0
DA:275,0
DA:276,0
DA:288,0
DA:289,0
DA:290,0
DA:321,0
DA:323,0
DA:324,0
DA:325,0
DA:326,0
DA:328,0
DA:330,0
DA:331,0
DA:332,0
DA:333,0
DA:334,0
DA:335,0
DA:336,0
DA:337,0
DA:338,0
DA:339,0
DA:340,0
DA:342,0
BRF:0
BRH:0
LF:163
LH:0
end_of_record
SF:/home/loric/src/skim/src/lib.rs
FN:97,_RNvXCs3Snzs7u97BX_4skimNtNtNtB2_6helper4item15DefaultSkimItemNtB2_5AsAny10as_any_mutCsh7ZzE9tTlqq_4ansi
FN:93,_RNvXCs3Snzs7u97BX_4skimNtNtNtB2_6helper4item15DefaultSkimItemNtB2_5AsAny6as_anyCsh7ZzE9tTlqq_4ansi
FN:403,_RNCNCNvMs1_Cs3Snzs7u97BX_4skimNtB9_4Skim8run_with00B9_
FN:450,_RNCNCNvMs1_Cs3Snzs7u97BX_4skimNtB9_4Skim8run_with0s1_0B9_
FN:443,_RNCNCNvMs1_Cs3Snzs7u97BX_4skimNtB9_4Skim8run_with0s_0B9_
FN:563,_RNCNvMs1_Cs3Snzs7u97BX_4skimNtB7_4Skim13init_listeners_0B7_
FN:402,_RNCNvMs1_Cs3Snzs7u97BX_4skimNtB7_4Skim8run_with0B7_
FN:291,_RNvMs0_Cs3Snzs7u97BX_4skimNtB5_11MatchResult18range_char_indices
FN:504,_RNvMs1_Cs3Snzs7u97BX_4skimNtB5_4Skim12should_enter
FN:553,_RNvMs1_Cs3Snzs7u97BX_4skimNtB5_4Skim13init_listener
FN:352,_RNvMs1_Cs3Snzs7u97BX_4skimNtB5_4Skim8run_with
FN:135,_RNvMs_Cs3Snzs7u97BX_4skimNtB4_14DisplayContext7to_line
FN:97,_RNvXCs3Snzs7u97BX_4skimNtNtB2_4tmux14SkimTmuxOutputNtB2_5AsAny10as_any_mutB2_
FN:93,_RNvXCs3Snzs7u97BX_4skimNtNtB2_4tmux14SkimTmuxOutputNtB2_5AsAny6as_anyB2_
FN:97,_RNvXCs3Snzs7u97BX_4skimNtNtCshYl8hDvVEcY_5alloc6string6StringNtB2_5AsAny10as_any_mutB2_
FN:93,_RNvXCs3Snzs7u97BX_4skimNtNtCshYl8hDvVEcY_5alloc6string6StringNtB2_5AsAny6as_anyB2_
FN:97,_RNvXCs3Snzs7u97BX_4skimNtNtNtB2_6engine10normalized14NormalizedItemNtB2_5AsAny10as_any_mutB2_
FN:93,_RNvXCs3Snzs7u97BX_4skimNtNtNtB2_6engine10normalized14NormalizedItemNtB2_5AsAny6as_anyB2_
FN:97,_RNvXCs3Snzs7u97BX_4skimNtNtNtB2_6engine5split10StringItemNtB2_5AsAny10as_any_mutB2_
FN:93,_RNvXCs3Snzs7u97BX_4skimNtNtNtB2_6engine5split10StringItemNtB2_5AsAny6as_anyB2_
FN:97,_RNvXCs3Snzs7u97BX_4skimNtNtNtB2_6helper4item15DefaultSkimItemNtB2_5AsAny10as_any_mutB2_
FN:93,_RNvXCs3Snzs7u97BX_4skimNtNtNtB2_6helper4item15DefaultSkimItemNtB2_5AsAny6as_anyB2_
FN:314,_RNvYNtNtNtCs3Snzs7u97BX_4skim6engine10normalized23NormalizedEngineFactoryNtB8_18MatchEngineFactory13create_engineB8_
FN:314,_RNvYNtNtNtCs3Snzs7u97BX_4skim6engine5split23SplitMatchEngineFactoryNtB8_18MatchEngineFactory13create_engineB8_
FN:314,_RNvYNtNtNtCs3Snzs7u97BX_4skim6engine7factory18AndOrEngineFactoryNtB8_18MatchEngineFactory13create_engineB8_
FN:314,_RNvYNtNtNtCs3Snzs7u97BX_4skim6engine7factory18RegexEngineFactoryNtB8_18MatchEngineFactory13create_engineB8_
FN:314,_RNvYNtNtNtCs3Snzs7u97BX_4skim6engine7factory25ExactOrFuzzyEngineFactoryNtB8_18MatchEngineFactory13create_engineB8_
FN:560,_RNCNvMs1_Cs3Snzs7u97BX_4skimNtB7_4Skim13init_listener0B7_
FN:97,_RNvXCs3Snzs7u97BX_4skimNtNtNtB2_6helper4item15DefaultSkimItemNtB2_5AsAny10as_any_mutCsjMtkzxvw6jX_5binds
FN:93,_RNvXCs3Snzs7u97BX_4skimNtNtNtB2_6helper4item15DefaultSkimItemNtB2_5AsAny6as_anyCsjMtkzxvw6jX_5binds
FN:97,_RNvXCs3Snzs7u97BX_4skimNtNtNtB2_6helper4item15DefaultSkimItemNtB2_5AsAny10as_any_mutCsjZxsXVxeWnR_4case
FN:93,_RNvXCs3Snzs7u97BX_4skimNtNtNtB2_6helper4item15DefaultSkimItemNtB2_5AsAny6as_anyCsjZxsXVxeWnR_4case
FN:97,_RNvXCs3Snzs7u97BX_4skimNtNtNtB2_6helper4item15DefaultSkimItemNtB2_5AsAny10as_any_mutCs7rs3rzKdeUa_8defaults
FN:93,_RNvXCs3Snzs7u97BX_4skimNtNtNtB2_6helper4item15DefaultSkimItemNtB2_5AsAny6as_anyCs7rs3rzKdeUa_8defaults
FN:97,_RNvXCs3Snzs7u97BX_4skimNtNtNtB2_6helper4item15DefaultSkimItemNtB2_5AsAny10as_any_mutCs8SL1o0vS7q8_6issues
FN:93,_RNvXCs3Snzs7u97BX_4skimNtNtNtB2_6helper4item15DefaultSkimItemNtB2_5AsAny6as_anyCs8SL1o0vS7q8_6issues
FN:97,_RNvXCs3Snzs7u97BX_4skimNtNtNtB2_6helper4item15DefaultSkimItemNtB2_5AsAny10as_any_mutCs7QtiJHxqkfB_4keys
FN:93,_RNvXCs3Snzs7u97BX_4skimNtNtNtB2_6helper4item15DefaultSkimItemNtB2_5AsAny6as_anyCs7QtiJHxqkfB_4keys
FN:97,_RNvXCs3Snzs7u97BX_4skimNtNtNtB2_6helper4item15DefaultSkimItemNtB2_5AsAny10as_any_mutCscGCI3e7M0l9_16keys_interactive
FN:93,_RNvXCs3Snzs7u97BX_4skimNtNtNtB2_6helper4item15DefaultSkimItemNtB2_5AsAny6as_anyCscGCI3e7M0l9_16keys_interactive
FN:97,_RNvXCs3Snzs7u97BX_4skimNtNtNtB2_6helper4item15DefaultSkimItemNtB2_5AsAny10as_any_mutCscYgvKuNiZ3L_6layout
FN:93,_RNvXCs3Snzs7u97BX_4skimNtNtNtB2_6helper4item15DefaultSkimItemNtB2_5AsAny6as_anyCscYgvKuNiZ3L_6layout
FN:97,_RNvXCs3Snzs7u97BX_4skimNtNtNtB2_6helper4item15DefaultSkimItemNtB2_5AsAny10as_any_mutCsajW3zP0EBjk_9normalize
FN:93,_RNvXCs3Snzs7u97BX_4skimNtNtNtB2_6helper4item15DefaultSkimItemNtB2_5AsAny6as_anyCsajW3zP0EBjk_9normalize
FN:97,_RNvXCs3Snzs7u97BX_4skimNtNtNtB2_6helper4item15DefaultSkimItemNtB2_5AsAny10as_any_mutCs1KNxiT1fe8Y_7options
FN:93,_RNvXCs3Snzs7u97BX_4skimNtNtNtB2_6helper4item15DefaultSkimItemNtB2_5AsAny6as_anyCs1KNxiT1fe8Y_7options
FN:97,_RNvXCs3Snzs7u97BX_4skimNtNtNtB2_6helper4item15DefaultSkimItemNtB2_5AsAny10as_any_mutCs38oDVg7bgx1_7preview
FN:93,_RNvXCs3Snzs7u97BX_4skimNtNtNtB2_6helper4item15DefaultSkimItemNtB2_5AsAny6as_anyCs38oDVg7bgx1_7preview
FN:97,_RNvXCs3Snzs7u97BX_4skimNtNtNtB2_6helper4item15DefaultSkimItemNtB2_5AsAny10as_any_mutCs7lWjSsce3cw_2sk
FN:93,_RNvXCs3Snzs7u97BX_4skimNtNtNtB2_6helper4item15DefaultSkimItemNtB2_5AsAny6as_anyCs7lWjSsce3cw_2sk
FN:291,_RNvMs0_Cs2dRlemTKIe9_4skimNtB5_11MatchResult18range_char_indices
FN:135,_RNvMs_Cs2dRlemTKIe9_4skimNtB4_14DisplayContext7to_line
FN:97,_RNvXCs2dRlemTKIe9_4skimNtNtNtB2_6helper4item15DefaultSkimItemNtB2_5AsAny10as_any_mutB2_
FN:93,_RNvXCs2dRlemTKIe9_4skimNtNtNtB2_6helper4item15DefaultSkimItemNtB2_5AsAny6as_anyB2_
FN:97,_RNvXCs2dRlemTKIe9_4skimReNtB2_5AsAny10as_any_mutB2_
FN:93,_RNvXCs2dRlemTKIe9_4skimReNtB2_5AsAny6as_anyB2_
FN:314,_RNvYNtNtNtCs2dRlemTKIe9_4skim6engine7factory18AndOrEngineFactoryNtB8_18MatchEngineFactory13create_engineB8_
FN:314,_RNvYNtNtNtCs2dRlemTKIe9_4skim6engine7factory18RegexEngineFactoryNtB8_18MatchEngineFactory13create_engineB8_
FN:314,_RNvYNtNtNtCs2dRlemTKIe9_4skim6engine7factory25ExactOrFuzzyEngineFactoryNtB8_18MatchEngineFactory13create_engineB8_
FN:403,_RNCNCNvMs1_Cs2dRlemTKIe9_4skimNtB9_4Skim8run_with00B9_
FN:450,_RNCNCNvMs1_Cs2dRlemTKIe9_4skimNtB9_4Skim8run_with0s1_0B9_
FN:443,_RNCNCNvMs1_Cs2dRlemTKIe9_4skimNtB9_4Skim8run_with0s_0B9_
FN:560,_RNCNvMs1_Cs2dRlemTKIe9_4skimNtB7_4Skim13init_listener0B7_
FN:563,_RNCNvMs1_Cs2dRlemTKIe9_4skimNtB7_4Skim13init_listeners_0B7_
FN:402,_RNCNvMs1_Cs2dRlemTKIe9_4skimNtB7_4Skim8run_with0B7_
FN:504,_RNvMs1_Cs2dRlemTKIe9_4skimNtB5_4Skim12should_enter
FN:553,_RNvMs1_Cs2dRlemTKIe9_4skimNtB5_4Skim13init_listener
FN:352,_RNvMs1_Cs2dRlemTKIe9_4skimNtB5_4Skim8run_with
FN:97,_RNvXCs3Snzs7u97BX_4skimNtNtNtB2_6helper4item15DefaultSkimItemNtB2_5AsAny10as_any_mutCsdYHrDtgrOQb_11split_match
FN:93,_RNvXCs3Snzs7u97BX_4skimNtNtNtB2_6helper4item15DefaultSkimItemNtB2_5AsAny6as_anyCsdYHrDtgrOQb_11split_match
FN:97,_RNvXCs3Snzs7u97BX_4skimNtNtNtB2_6helper4item15DefaultSkimItemNtB2_5AsAny10as_any_mutCskazwg9rDpax_8tiebreak
FN:93,_RNvXCs3Snzs7u97BX_4skimNtNtNtB2_6helper4item15DefaultSkimItemNtB2_5AsAny6as_anyCskazwg9rDpax_8tiebreak
FNDA:0,_RNvXCs3Snzs7u97BX_4skimNtNtNtB2_6helper4item15DefaultSkimItemNtB2_5AsAny10as_any_mutCsh7ZzE9tTlqq_4ansi
FNDA:0,_RNvXCs3Snzs7u97BX_4skimNtNtNtB2_6helper4item15DefaultSkimItemNtB2_5AsAny6as_anyCsh7ZzE9tTlqq_4ansi
FNDA:0,_RNCNCNvMs1_Cs3Snzs7u97BX_4skimNtB9_4Skim8run_with00B9_
FNDA:0,_RNCNCNvMs1_Cs3Snzs7u97BX_4skimNtB9_4Skim8run_with0s1_0B9_
FNDA:0,_RNCNCNvMs1_Cs3Snzs7u97BX_4skimNtB9_4Skim8run_with0s_0B9_
FNDA:0,_RNCNvMs1_Cs3Snzs7u97BX_4skimNtB7_4Skim13init_listeners_0B7_
FNDA:0,_RNCNvMs1_Cs3Snzs7u97BX_4skimNtB7_4Skim8run_with0B7_
FNDA:0,_RNvMs0_Cs3Snzs7u97BX_4skimNtB5_11MatchResult18range_char_indices
FNDA:0,_RNvMs1_Cs3Snzs7u97BX_4skimNtB5_4Skim12should_enter
FNDA:0,_RNvMs1_Cs3Snzs7u97BX_4skimNtB5_4Skim13init_listener
FNDA:0,_RNvMs1_Cs3Snzs7u97BX_4skimNtB5_4Skim8run_with
FNDA:0,_RNvMs_Cs3Snzs7u97BX_4skimNtB4_14DisplayContext7to_line
FNDA:0,_RNvXCs3Snzs7u97BX_4skimNtNtB2_4tmux14SkimTmuxOutputNtB2_5AsAny10as_any_mutB2_
FNDA:0,_RNvXCs3Snzs7u97BX_4skimNtNtB2_4tmux14SkimTmuxOutputNtB2_5AsAny6as_anyB2_
FNDA:0,_RNvXCs3Snzs7u97BX_4skimNtNtCshYl8hDvVEcY_5alloc6string6StringNtB2_5AsAny10as_any_mutB2_
FNDA:0,_RNvXCs3Snzs7u97BX_4skimNtNtCshYl8hDvVEcY_5alloc6string6StringNtB2_5AsAny6as_anyB2_
FNDA:0,_RNvXCs3Snzs7u97BX_4skimNtNtNtB2_6engine10normalized14NormalizedItemNtB2_5AsAny10as_any_mutB2_
FNDA:0,_RNvXCs3Snzs7u97BX_4skimNtNtNtB2_6engine10normalized14NormalizedItemNtB2_5AsAny6as_anyB2_
FNDA:0,_RNvXCs3Snzs7u97BX_4skimNtNtNtB2_6engine5split10StringItemNtB2_5AsAny10as_any_mutB2_
FNDA:0,_RNvXCs3Snzs7u97BX_4skimNtNtNtB2_6engine5split10StringItemNtB2_5AsAny6as_anyB2_
FNDA:0,_RNvXCs3Snzs7u97BX_4skimNtNtNtB2_6helper4item15DefaultSkimItemNtB2_5AsAny10as_any_mutB2_
FNDA:0,_RNvXCs3Snzs7u97BX_4skimNtNtNtB2_6helper4item15DefaultSkimItemNtB2_5AsAny6as_anyB2_
FNDA:0,_RNvYNtNtNtCs3Snzs7u97BX_4skim6engine10normalized23NormalizedEngineFactoryNtB8_18MatchEngineFactory13create_engineB8_
FNDA:0,_RNvYNtNtNtCs3Snzs7u97BX_4skim6engine5split23SplitMatchEngineFactoryNtB8_18MatchEngineFactory13create_engineB8_
FNDA:0,_RNvYNtNtNtCs3Snzs7u97BX_4skim6engine7factory18AndOrEngineFactoryNtB8_18MatchEngineFactory13create_engineB8_
FNDA:0,_RNvYNtNtNtCs3Snzs7u97BX_4skim6engine7factory18RegexEngineFactoryNtB8_18MatchEngineFactory13create_engineB8_
FNDA:0,_RNvYNtNtNtCs3Snzs7u97BX_4skim6engine7factory25ExactOrFuzzyEngineFactoryNtB8_18MatchEngineFactory13create_engineB8_
FNDA:0,_RNCNvMs1_Cs3Snzs7u97BX_4skimNtB7_4Skim13init_listener0B7_
FNDA:0,_RNvXCs3Snzs7u97BX_4skimNtNtNtB2_6helper4item15DefaultSkimItemNtB2_5AsAny10as_any_mutCsjMtkzxvw6jX_5binds
FNDA:0,_RNvXCs3Snzs7u97BX_4skimNtNtNtB2_6helper4item15DefaultSkimItemNtB2_5AsAny6as_anyCsjMtkzxvw6jX_5binds
FNDA:0,_RNvXCs3Snzs7u97BX_4skimNtNtNtB2_6helper4item15DefaultSkimItemNtB2_5AsAny10as_any_mutCsjZxsXVxeWnR_4case
FNDA:0,_RNvXCs3Snzs7u97BX_4skimNtNtNtB2_6helper4item15DefaultSkimItemNtB2_5AsAny6as_anyCsjZxsXVxeWnR_4case
FNDA:0,_RNvXCs3Snzs7u97BX_4skimNtNtNtB2_6helper4item15DefaultSkimItemNtB2_5AsAny10as_any_mutCs7rs3rzKdeUa_8defaults
FNDA:0,_RNvXCs3Snzs7u97BX_4skimNtNtNtB2_6helper4item15DefaultSkimItemNtB2_5AsAny6as_anyCs7rs3rzKdeUa_8defaults
FNDA:0,_RNvXCs3Snzs7u97BX_4skimNtNtNtB2_6helper4item15DefaultSkimItemNtB2_5AsAny10as_any_mutCs8SL1o0vS7q8_6issues
FNDA:0,_RNvXCs3Snzs7u97BX_4skimNtNtNtB2_6helper4item15DefaultSkimItemNtB2_5AsAny6as_anyCs8SL1o0vS7q8_6issues
FNDA:0,_RNvXCs3Snzs7u97BX_4skimNtNtNtB2_6helper4item15DefaultSkimItemNtB2_5AsAny10as_any_mutCs7QtiJHxqkfB_4keys
FNDA:0,_RNvXCs3Snzs7u97BX_4skimNtNtNtB2_6helper4item15DefaultSkimItemNtB2_5AsAny6as_anyCs7QtiJHxqkfB_4keys
FNDA:0,_RNvXCs3Snzs7u97BX_4skimNtNtNtB2_6helper4item15DefaultSkimItemNtB2_5AsAny10as_any_mutCscGCI3e7M0l9_16keys_interactive
FNDA:0,_RNvXCs3Snzs7u97BX_4skimNtNtNtB2_6helper4item15DefaultSkimItemNtB2_5AsAny6as_anyCscGCI3e7M0l9_16keys_interactive
FNDA:0,_RNvXCs3Snzs7u97BX_4skimNtNtNtB2_6helper4item15DefaultSkimItemNtB2_5AsAny10as_any_mutCscYgvKuNiZ3L_6layout
FNDA:0,_RNvXCs3Snzs7u97BX_4skimNtNtNtB2_6helper4item15DefaultSkimItemNtB2_5AsAny6as_anyCscYgvKuNiZ3L_6layout
FNDA:0,_RNvXCs3Snzs7u97BX_4skimNtNtNtB2_6helper4item15DefaultSkimItemNtB2_5AsAny10as_any_mutCsajW3zP0EBjk_9normalize
FNDA:0,_RNvXCs3Snzs7u97BX_4skimNtNtNtB2_6helper4item15DefaultSkimItemNtB2_5AsAny6as_anyCsajW3zP0EBjk_9normalize
FNDA:0,_RNvXCs3Snzs7u97BX_4skimNtNtNtB2_6helper4item15DefaultSkimItemNtB2_5AsAny10as_any_mutCs1KNxiT1fe8Y_7options
FNDA:0,_RNvXCs3Snzs7u97BX_4skimNtNtNtB2_6helper4item15DefaultSkimItemNtB2_5AsAny6as_anyCs1KNxiT1fe8Y_7options
FNDA:0,_RNvXCs3Snzs7u97BX_4skimNtNtNtB2_6helper4item15DefaultSkimItemNtB2_5AsAny10as_any_mutCs38oDVg7bgx1_7preview
FNDA:0,_RNvXCs3Snzs7u97BX_4skimNtNtNtB2_6helper4item15DefaultSkimItemNtB2_5AsAny6as_anyCs38oDVg7bgx1_7preview
FNDA:0,_RNvXCs3Snzs7u97BX_4skimNtNtNtB2_6helper4item15DefaultSkimItemNtB2_5AsAny10as_any_mutCs7lWjSsce3cw_2sk
FNDA:0,_RNvXCs3Snzs7u97BX_4skimNtNtNtB2_6helper4item15DefaultSkimItemNtB2_5AsAny6as_anyCs7lWjSsce3cw_2sk
FNDA:0,_RNvMs0_Cs2dRlemTKIe9_4skimNtB5_11MatchResult18range_char_indices
FNDA:0,_RNvMs_Cs2dRlemTKIe9_4skimNtB4_14DisplayContext7to_line
FNDA:0,_RNvXCs2dRlemTKIe9_4skimNtNtNtB2_6helper4item15DefaultSkimItemNtB2_5AsAny10as_any_mutB2_
FNDA:0,_RNvXCs2dRlemTKIe9_4skimNtNtNtB2_6helper4item15DefaultSkimItemNtB2_5AsAny6as_anyB2_
FNDA:0,_RNvXCs2dRlemTKIe9_4skimReNtB2_5AsAny10as_any_mutB2_
FNDA:0,_RNvXCs2dRlemTKIe9_4skimReNtB2_5AsAny6as_anyB2_
FNDA:0,_RNvYNtNtNtCs2dRlemTKIe9_4skim6engine7factory18AndOrEngineFactoryNtB8_18MatchEngineFactory13create_engineB8_
FNDA:0,_RNvYNtNtNtCs2dRlemTKIe9_4skim6engine7factory18RegexEngineFactoryNtB8_18MatchEngineFactory13create_engineB8_
FNDA:0,_RNvYNtNtNtCs2dRlemTKIe9_4skim6engine7factory25ExactOrFuzzyEngineFactoryNtB8_18MatchEngineFactory13create_engineB8_
FNDA:0,_RNCNCNvMs1_Cs2dRlemTKIe9_4skimNtB9_4Skim8run_with00B9_
FNDA:0,_RNCNCNvMs1_Cs2dRlemTKIe9_4skimNtB9_4Skim8run_with0s1_0B9_
FNDA:0,_RNCNCNvMs1_Cs2dRlemTKIe9_4skimNtB9_4Skim8run_with0s_0B9_
FNDA:0,_RNCNvMs1_Cs2dRlemTKIe9_4skimNtB7_4Skim13init_listener0B7_
FNDA:0,_RNCNvMs1_Cs2dRlemTKIe9_4skimNtB7_4Skim13init_listeners_0B7_
FNDA:0,_RNCNvMs1_Cs2dRlemTKIe9_4skimNtB7_4Skim8run_with0B7_
FNDA:0,_RNvMs1_Cs2dRlemTKIe9_4skimNtB5_4Skim12should_enter
FNDA:0,_RNvMs1_Cs2dRlemTKIe9_4skimNtB5_4Skim13init_listener
FNDA:0,_RNvMs1_Cs2dRlemTKIe9_4skimNtB5_4Skim8run_with
FNDA:0,_RNvXCs3Snzs7u97BX_4skimNtNtNtB2_6helper4item15DefaultSkimItemNtB2_5AsAny10as_any_mutCsdYHrDtgrOQb_11split_match
FNDA:0,_RNvXCs3Snzs7u97BX_4skimNtNtNtB2_6helper4item15DefaultSkimItemNtB2_5AsAny6as_anyCsdYHrDtgrOQb_11split_match
FNDA:0,_RNvXCs3Snzs7u97BX_4skimNtNtNtB2_6helper4item15DefaultSkimItemNtB2_5AsAny10as_any_mutCskazwg9rDpax_8tiebreak
FNDA:0,_RNvXCs3Snzs7u97BX_4skimNtNtNtB2_6helper4item15DefaultSkimItemNtB2_5AsAny6as_anyCskazwg9rDpax_8tiebreak
FNF:14
FNH:0
DA:93,0
DA:94,0
DA:95,0
DA:97,0
DA:98,0
DA:99,0
DA:135,0
DA:136,0
DA:140,0
DA:141,0
DA:142,0
DA:143,0
DA:144,0
DA:145,0
DA:146,0
DA:147,0
DA:148,0
DA:149,0
DA:150,0
DA:151,0
DA:152,0
DA:153,0
DA:154,0
DA:158,0
DA:159,0
DA:160,0
DA:161,0
DA:162,0
DA:163,0
DA:165,0
DA:167,0
DA:168,0
DA:169,0
DA:171,0
DA:172,0
DA:173,0
DA:174,0
DA:175,0
DA:176,0
DA:178,0
DA:179,0
DA:181,0
DA:182,0
DA:183,0
DA:184,0
DA:186,0
DA:188,0
DA:190,0
DA:291,0
DA:292,0
DA:293,0
DA:294,0
DA:295,0
DA:296,0
DA:298,0
DA:300,0
DA:314,0
DA:315,0
DA:316,0
DA:352,0
DA:353,0
DA:357,0
DA:358,0
DA:360,0
DA:361,0
DA:362,0
DA:364,0
DA:365,0
DA:367,0
DA:369,0
DA:370,0
DA:371,0
DA:376,0
DA:377,0
DA:378,0
DA:383,0
DA:385,0
DA:387,0
DA:389,0
DA:395,0
DA:397,0
DA:398,0
DA:399,0
DA:400,0
DA:401,0
DA:402,0
DA:403,0
DA:404,0
DA:405,0
DA:407,0
DA:408,0
DA:409,0
DA:412,0
DA:413,0
DA:415,0
DA:417,0
DA:420,0
DA:421,0
DA:422,0
DA:423,0
DA:425,0
DA:426,0
DA:427,0
DA:428,0
DA:429,0
DA:430,0
DA:431,0
DA:432,0
DA:435,0
DA:436,0
DA:437,0
DA:438,0
DA:440,0
DA:441,0
DA:442,0
DA:443,0
DA:444,0
DA:445,0
DA:446,0
DA:448,0
DA:449,0
DA:450,0
DA:452,0
DA:453,0
DA:454,0
DA:455,0
DA:456,0
DA:457,0
DA:458,0
DA:459,0
DA:460,0
DA:462,0
DA:466,0
DA:467,0
DA:468,0
DA:470,0
DA:471,0
DA:472,0
DA:473,0
DA:474,0
DA:475,0
DA:476,0
DA:478,0
DA:480,0
DA:481,0
DA:483,0
DA:484,0
DA:486,0
DA:489,0
DA:491,0
DA:492,0
DA:493,0
DA:494,0
DA:495,0
DA:496,0
DA:499,0
DA:501,0
DA:502,0
DA:504,0
DA:506,0
DA:507,0
DA:508,0
DA:509,0
DA:511,0
DA:513,0
DA:514,0
DA:516,0
DA:517,0
DA:518,0
DA:520,0
DA:522,0
DA:524,0
DA:525,0
DA:527,0
DA:528,0
DA:529,0
DA:531,0
DA:533,0
DA:534,0
DA:535,0
DA:537,0
DA:539,0
DA:541,0
DA:543,0
DA:544,0
DA:545,0
DA:546,0
DA:547,0
DA:548,0
DA:549,0
DA:550,0
DA:553,0
DA:554,0
DA:555,0
DA:556,0
DA:557,0
DA:558,0
DA:560,0
DA:562,0
DA:563,0
DA:564,0
BRF:0
BRH:0
LF:208
LH:0
end_of_record
SF:/home/loric/src/skim/src/matcher.rs
FN:149,_RINvMs1_NtCs3Snzs7u97BX_4skim7matcherNtB6_7Matcher3runNCNvMs1_NtNtB8_3tui3appNtBY_3App15restart_matcher0EB8_
FN:163,_RNCINvMs1_NtCs3Snzs7u97BX_4skim7matcherNtB8_7Matcher3runNCNvMs1_NtNtBa_3tui3appNtB10_3App15restart_matcher0E0Ba_
FN:175,_RNCNCINvMs1_NtCs3Snzs7u97BX_4skim7matcherNtBa_7Matcher3runNCNvMs1_NtNtBc_3tui3appNtB12_3App15restart_matcher0E00Bc_
FN:130,_RNvMs1_NtCs3Snzs7u97BX_4skim7matcherNtB5_7Matcher12from_options
FN:94,_RNvMs1_NtCs3Snzs7u97BX_4skim7matcherNtB5_7Matcher21create_engine_factory
FN:80,_RNvMs1_NtCs3Snzs7u97BX_4skim7matcherNtB5_7Matcher4case
FN:86,_RNvMs1_NtCs3Snzs7u97BX_4skim7matcherNtB5_7Matcher5build
FN:72,_RNvMs1_NtCs3Snzs7u97BX_4skim7matcherNtB5_7Matcher7builder
FN:42,_RNvMs_NtCs3Snzs7u97BX_4skim7matcherNtB4_14MatcherControl15get_num_matched
FN:37,_RNvMs_NtCs3Snzs7u97BX_4skim7matcherNtB4_14MatcherControl17get_num_processed
FN:47,_RNvMs_NtCs3Snzs7u97BX_4skim7matcherNtB4_14MatcherControl4kill
FN:52,_RNvMs_NtCs3Snzs7u97BX_4skim7matcherNtB4_14MatcherControl7stopped
FN:26,_RNvXNtCs3Snzs7u97BX_4skim7matcherNtB2_14MatcherControlNtNtCs3IJltBbNwOJ_4core7default7Default7default
FN:58,_RNvXs0_NtCs3Snzs7u97BX_4skim7matcherNtB5_14MatcherControlNtNtNtCs3IJltBbNwOJ_4core3ops4drop4Drop4drop
FN:136,_RNvMs1_NtCs3Snzs7u97BX_4skim7matcherNtB5_7Matcher13case_matching
FN:141,_RNvMs1_NtCs3Snzs7u97BX_4skim7matcherNtB5_7Matcher14engine_factory
FN:149,_RINvMs1_NtCs2dRlemTKIe9_4skim7matcherNtB6_7Matcher3runpEB8_
FN:163,_RNCINvMs1_NtCs2dRlemTKIe9_4skim7matcherNtB8_7Matcher3runpE0Ba_
FN:175,_RNCNCINvMs1_NtCs2dRlemTKIe9_4skim7matcherNtBa_7Matcher3runpE00Bc_
FN:130,_RNvMs1_NtCs2dRlemTKIe9_4skim7matcherNtB5_7Matcher12from_options
FN:136,_RNvMs1_NtCs2dRlemTKIe9_4skim7matcherNtB5_7Matcher13case_matching
FN:141,_RNvMs1_NtCs2dRlemTKIe9_4skim7matcherNtB5_7Matcher14engine_factory
FN:94,_RNvMs1_NtCs2dRlemTKIe9_4skim7matcherNtB5_7Matcher21create_engine_factory
FN:80,_RNvMs1_NtCs2dRlemTKIe9_4skim7matcherNtB5_7Matcher4case
FN:86,_RNvMs1_NtCs2dRlemTKIe9_4skim7matcherNtB5_7Matcher5build
FN:72,_RNvMs1_NtCs2dRlemTKIe9_4skim7matcherNtB5_7Matcher7builder
FN:42,_RNvMs_NtCs2dRlemTKIe9_4skim7matcherNtB4_14MatcherControl15get_num_matched
FN:37,_RNvMs_NtCs2dRlemTKIe9_4skim7matcherNtB4_14MatcherControl17get_num_processed
FN:47,_RNvMs_NtCs2dRlemTKIe9_4skim7matcherNtB4_14MatcherControl4kill
FN:52,_RNvMs_NtCs2dRlemTKIe9_4skim7matcherNtB4_14MatcherControl7stopped
FN:26,_RNvXNtCs2dRlemTKIe9_4skim7matcherNtB2_14MatcherControlNtNtCs3IJltBbNwOJ_4core7default7Default7default
FN:58,_RNvXs0_NtCs2dRlemTKIe9_4skim7matcherNtB5_14MatcherControlNtNtNtCs3IJltBbNwOJ_4core3ops4drop4Drop4drop
FNDA:0,_RINvMs1_NtCs3Snzs7u97BX_4skim7matcherNtB6_7Matcher3runNCNvMs1_NtNtB8_3tui3appNtBY_3App15restart_matcher0EB8_
FNDA:0,_RNCINvMs1_NtCs3Snzs7u97BX_4skim7matcherNtB8_7Matcher3runNCNvMs1_NtNtBa_3tui3appNtB10_3App15restart_matcher0E0Ba_
FNDA:0,_RNCNCINvMs1_NtCs3Snzs7u97BX_4skim7matcherNtBa_7Matcher3runNCNvMs1_NtNtBc_3tui3appNtB12_3App15restart_matcher0E00Bc_
FNDA:0,_RNvMs1_NtCs3Snzs7u97BX_4skim7matcherNtB5_7Matcher12from_options
FNDA:0,_RNvMs1_NtCs3Snzs7u97BX_4skim7matcherNtB5_7Matcher21create_engine_factory
FNDA:0,_RNvMs1_NtCs3Snzs7u97BX_4skim7matcherNtB5_7Matcher4case
FNDA:0,_RNvMs1_NtCs3Snzs7u97BX_4skim7matcherNtB5_7Matcher5build
FNDA:0,_RNvMs1_NtCs3Snzs7u97BX_4skim7matcherNtB5_7Matcher7builder
FNDA:0,_RNvMs_NtCs3Snzs7u97BX_4skim7matcherNtB4_14MatcherControl15get_num_matched
FNDA:0,_RNvMs_NtCs3Snzs7u97BX_4skim7matcherNtB4_14MatcherControl17get_num_processed
FNDA:0,_RNvMs_NtCs3Snzs7u97BX_4skim7matcherNtB4_14MatcherControl4kill
FNDA:0,_RNvMs_NtCs3Snzs7u97BX_4skim7matcherNtB4_14MatcherControl7stopped
FNDA:0,_RNvXNtCs3Snzs7u97BX_4skim7matcherNtB2_14MatcherControlNtNtCs3IJltBbNwOJ_4core7default7Default7default
FNDA:0,_RNvXs0_NtCs3Snzs7u97BX_4skim7matcherNtB5_14MatcherControlNtNtNtCs3IJltBbNwOJ_4core3ops4drop4Drop4drop
FNDA:0,_RNvMs1_NtCs3Snzs7u97BX_4skim7matcherNtB5_7Matcher13case_matching
FNDA:0,_RNvMs1_NtCs3Snzs7u97BX_4skim7matcherNtB5_7Matcher14engine_factory
FNDA:0,_RINvMs1_NtCs2dRlemTKIe9_4skim7matcherNtB6_7Matcher3runpEB8_
FNDA:0,_RNCINvMs1_NtCs2dRlemTKIe9_4skim7matcherNtB8_7Matcher3runpE0Ba_
FNDA:0,_RNCNCINvMs1_NtCs2dRlemTKIe9_4skim7matcherNtBa_7Matcher3runpE00Bc_
FNDA:0,_RNvMs1_NtCs2dRlemTKIe9_4skim7matcherNtB5_7Matcher12from_options
FNDA:0,_RNvMs1_NtCs2dRlemTKIe9_4skim7matcherNtB5_7Matcher13case_matching
FNDA:0,_RNvMs1_NtCs2dRlemTKIe9_4skim7matcherNtB5_7Matcher14engine_factory
FNDA:0,_RNvMs1_NtCs2dRlemTKIe9_4skim7matcherNtB5_7Matcher21create_engine_factory
FNDA:0,_RNvMs1_NtCs2dRlemTKIe9_4skim7matcherNtB5_7Matcher4case
FNDA:0,_RNvMs1_NtCs2dRlemTKIe9_4skim7matcherNtB5_7Matcher5build
FNDA:0,_RNvMs1_NtCs2dRlemTKIe9_4skim7matcherNtB5_7Matcher7builder
FNDA:0,_RNvMs_NtCs2dRlemTKIe9_4skim7matcherNtB4_14MatcherControl15get_num_matched
FNDA:0,_RNvMs_NtCs2dRlemTKIe9_4skim7matcherNtB4_14MatcherControl17get_num_processed
FNDA:0,_RNvMs_NtCs2dRlemTKIe9_4skim7matcherNtB4_14MatcherControl4kill
FNDA:0,_RNvMs_NtCs2dRlemTKIe9_4skim7matcherNtB4_14MatcherControl7stopped
FNDA:0,_RNvXNtCs2dRlemTKIe9_4skim7matcherNtB2_14MatcherControlNtNtCs3IJltBbNwOJ_4core7default7Default7default
FNDA:0,_RNvXs0_NtCs2dRlemTKIe9_4skim7matcherNtB5_14MatcherControlNtNtNtCs3IJltBbNwOJ_4core3ops4drop4Drop4drop
FNF:16
FNH:0
DA:26,0
DA:27,0
DA:28,0
DA:29,0
DA:30,0
DA:31,0
DA:32,0
DA:37,0
DA:38,0
DA:39,0
DA:42,0
DA:43,0
DA:44,0
DA:47,0
DA:48,0
DA:49,0
DA:52,0
DA:53,0
DA:54,0
DA:58,0
DA:59,0
DA:60,0
DA:72,0
DA:73,0
DA:74,0
DA:75,0
DA:76,0
DA:77,0
DA:80,0
DA:81,0
DA:82,0
DA:83,0
DA:86,0
DA:87,0
DA:88,0
DA:94,0
DA:95,0
DA:96,0
DA:97,0
DA:98,0
DA:100,0
DA:103,0
DA:104,0
DA:105,0
DA:106,0
DA:107,0
DA:108,0
DA:109,0
DA:113,0
DA:114,0
DA:115,0
DA:117,0
DA:121,0
DA:122,0
DA:124,0
DA:127,0
DA:130,0
DA:131,0
DA:132,0
DA:133,0
DA:136,0
DA:137,0
DA:138,0
DA:141,0
DA:142,0
DA:143,0
DA:149,0
DA:150,0
DA:151,0
DA:153,0
DA:154,0
DA:155,0
DA:156,0
DA:157,0
DA:158,0
DA:159,0
DA:160,0
DA:161,0
DA:163,0
DA:164,0
DA:165,0
DA:171,0
DA:172,0
DA:173,0
DA:174,0
DA:175,0
DA:176,0
DA:177,0
DA:178,0
DA:179,0
DA:180,0
DA:182,0
DA:183,0
DA:184,0
DA:185,0
DA:186,0
DA:188,0
DA:190,0
DA:191,0
DA:193,0
DA:194,0
DA:195,0
DA:196,0
DA:198,0
DA:199,0
DA:200,0
DA:201,0
DA:202,0
DA:204,0
DA:205,0
DA:206,0
DA:207,0
DA:208,0
DA:209,0
BRF:0
BRH:0
LF:116
LH:0
end_of_record
SF:/home/loric/src/skim/src/options.rs
FN:891,_RNCNvMs0_NtCs3Snzs7u97BX_4skim7optionsNtB7_11SkimOptions5build0B9_
FN:880,_RNCNvMs_NtCs3Snzs7u97BX_4skim7optionsNtB6_18SkimOptionsBuilder5build0B8_
FN:29,_RNCNvNtCs3Snzs7u97BX_4skim7options21parse_delimiter_value0B5_
FN:943,_RNCNvXs4_NtNtCs3Snzs7u97BX_4skim3tui7previewNtB7_7PreviewNtNtB9_6widget10SkimWidget12from_options0Bb_
FN:920,_RNvMs0_NtCs3Snzs7u97BX_4skim7optionsNtB5_11SkimOptions14init_histories
FN:886,_RNvMs0_NtCs3Snzs7u97BX_4skim7optionsNtB5_11SkimOptions5build
FN:879,_RNvMs_NtCs3Snzs7u97BX_4skim7optionsNtB4_18SkimOptionsBuilder5build
FN:27,_RNvNtCs3Snzs7u97BX_4skim7options21parse_delimiter_value
FN:774,_RNvXNtCs3Snzs7u97BX_4skim7optionsNtB2_11SkimOptionsNtNtCs3IJltBbNwOJ_4core7default7Default7default
FN:891,_RNCNvMs0_NtCs2dRlemTKIe9_4skim7optionsNtB7_11SkimOptions5build0B9_
FN:880,_RNCNvMs_NtCs2dRlemTKIe9_4skim7optionsNtB6_18SkimOptionsBuilder5build0B8_
FN:920,_RNvMs0_NtCs2dRlemTKIe9_4skim7optionsNtB5_11SkimOptions14init_histories
FN:886,_RNvMs0_NtCs2dRlemTKIe9_4skim7optionsNtB5_11SkimOptions5build
FN:879,_RNvMs_NtCs2dRlemTKIe9_4skim7optionsNtB4_18SkimOptionsBuilder5build
FN:774,_RNvXNtCs2dRlemTKIe9_4skim7optionsNtB2_11SkimOptionsNtNtCs3IJltBbNwOJ_4core7default7Default7default
FN:29,_RNCNvNtCs2dRlemTKIe9_4skim7options21parse_delimiter_value0B5_
FN:943,_RNCNvXs4_NtNtCs2dRlemTKIe9_4skim3tui7previewNtB7_7PreviewNtNtB9_6widget10SkimWidget12from_options0Bb_
FN:27,_RNvNtCs2dRlemTKIe9_4skim7options21parse_delimiter_value
FNDA:0,_RNCNvMs0_NtCs3Snzs7u97BX_4skim7optionsNtB7_11SkimOptions5build0B9_
FNDA:0,_RNCNvMs_NtCs3Snzs7u97BX_4skim7optionsNtB6_18SkimOptionsBuilder5build0B8_
FNDA:0,_RNCNvNtCs3Snzs7u97BX_4skim7options21parse_delimiter_value0B5_
FNDA:0,_RNCNvXs4_NtNtCs3Snzs7u97BX_4skim3tui7previewNtB7_7PreviewNtNtB9_6widget10SkimWidget12from_options0Bb_
FNDA:0,_RNvMs0_NtCs3Snzs7u97BX_4skim7optionsNtB5_11SkimOptions14init_histories
FNDA:0,_RNvMs0_NtCs3Snzs7u97BX_4skim7optionsNtB5_11SkimOptions5build
FNDA:0,_RNvMs_NtCs3Snzs7u97BX_4skim7optionsNtB4_18SkimOptionsBuilder5build
FNDA:0,_RNvNtCs3Snzs7u97BX_4skim7options21parse_delimiter_value
FNDA:0,_RNvXNtCs3Snzs7u97BX_4skim7optionsNtB2_11SkimOptionsNtNtCs3IJltBbNwOJ_4core7default7Default7default
FNDA:0,_RNCNvMs0_NtCs2dRlemTKIe9_4skim7optionsNtB7_11SkimOptions5build0B9_
FNDA:0,_RNCNvMs_NtCs2dRlemTKIe9_4skim7optionsNtB6_18SkimOptionsBuilder5build0B8_
FNDA:0,_RNvMs0_NtCs2dRlemTKIe9_4skim7optionsNtB5_11SkimOptions14init_histories
FNDA:0,_RNvMs0_NtCs2dRlemTKIe9_4skim7optionsNtB5_11SkimOptions5build
FNDA:0,_RNvMs_NtCs2dRlemTKIe9_4skim7optionsNtB4_18SkimOptionsBuilder5build
FNDA:0,_RNvXNtCs2dRlemTKIe9_4skim7optionsNtB2_11SkimOptionsNtNtCs3IJltBbNwOJ_4core7default7Default7default
FNDA:0,_RNCNvNtCs2dRlemTKIe9_4skim7options21parse_delimiter_value0B5_
FNDA:0,_RNCNvXs4_NtNtCs2dRlemTKIe9_4skim3tui7previewNtB7_7PreviewNtNtB9_6widget10SkimWidget12from_options0Bb_
FNDA:0,_RNvNtCs2dRlemTKIe9_4skim7options21parse_delimiter_value
FNF:9
FNH:0
DA:27,0
DA:28,0
DA:29,0
DA:30,0
DA:774,0
DA:775,0
DA:776,0
DA:777,0
DA:778,0
DA:779,0
DA:780,0
DA:781,0
DA:782,0
DA:783,0
DA:784,0
DA:785,0
DA:786,0
DA:787,0
DA:788,0
DA:789,0
DA:790,0
DA:791,0
DA:792,0
DA:793,0
DA:794,0
DA:795,0
DA:796,0
DA:797,0
DA:798,0
DA:799,0
DA:800,0
DA:801,0
DA:802,0
DA:803,0
DA:804,0
DA:805,0
DA:806,0
DA:807,0
DA:808,0
DA:809,0
DA:810,0
DA:811,0
DA:812,0
DA:813,0
DA:814,0
DA:815,0
DA:816,0
DA:817,0
DA:818,0
DA:819,0
DA:820,0
DA:821,0
DA:822,0
DA:823,0
DA:824,0
DA:825,0
DA:826,0
DA:827,0
DA:828,0
DA:829,0
DA:830,0
DA:831,0
DA:832,0
DA:833,0
DA:834,0
DA:835,0
DA:836,0
DA:837,0
DA:838,0
DA:839,0
DA:840,0
DA:841,0
DA:842,0
DA:843,0
DA:844,0
DA:845,0
DA:846,0
DA:847,0
DA:848,0
DA:849,0
DA:850,0
DA:851,0
DA:852,0
DA:853,0
DA:854,0
DA:855,0
DA:856,0
DA:857,0
DA:858,0
DA:859,0
DA:860,0
DA:861,0
DA:862,0
DA:863,0
DA:864,0
DA:865,0
DA:866,0
DA:867,0
DA:868,0
DA:869,0
DA:870,0
DA:871,0
DA:872,0
DA:873,0
DA:874,0
DA:879,0
DA:880,0
DA:881,0
DA:886,0
DA:887,0
DA:888,0
DA:889,0
DA:891,0
DA:892,0
DA:893,0
DA:894,0
DA:896,0
DA:897,0
DA:898,0
DA:899,0
DA:900,0
DA:901,0
DA:902,0
DA:903,0
DA:904,0
DA:905,0
DA:906,0
DA:907,0
DA:908,0
DA:909,0
DA:910,0
DA:911,0
DA:912,0
DA:913,0
DA:914,0
DA:915,0
DA:917,0
DA:918,0
DA:920,0
DA:921,0
DA:922,0
DA:923,0
DA:925,0
DA:926,0
DA:927,0
DA:928,0
DA:929,0
DA:943,0
BRF:0
BRH:0
LF:151
LH:0
end_of_record
SF:/home/loric/src/skim/src/reader.rs
FN:142,_RINvNtCs3Snzs7u97BX_4skim6reader13collect_itemsNCNvMs0_B2_NtB2_6Reader3runs0_0EB4_
FN:142,_RINvNtCs3Snzs7u97BX_4skim6reader13collect_itemsNCNvMs0_B2_NtB2_6Reader7collects0_0EB4_
FN:150,_RNCINvNtCs3Snzs7u97BX_4skim6reader13collect_itemsNCNvMs0_B4_NtB4_6Reader3runs0_0E0B6_
FN:150,_RNCINvNtCs3Snzs7u97BX_4skim6reader13collect_itemsNCNvMs0_B4_NtB4_6Reader7collects0_0E0B6_
FN:46,_RNCNvMNtCs3Snzs7u97BX_4skim6readerNtB4_13ReaderControl4kill0B6_
FN:98,_RNCNvMs0_NtCs3Snzs7u97BX_4skim6readerNtB7_6Reader3run0B9_
FN:105,_RNCNvMs0_NtCs3Snzs7u97BX_4skim6readerNtB7_6Reader3runs0_0B9_
FN:98,_RNCNvMs0_NtCs3Snzs7u97BX_4skim6readerNtB7_6Reader3runs_0B9_
FN:121,_RNCNvMs0_NtCs3Snzs7u97BX_4skim6readerNtB7_6Reader7collect0B9_
FN:128,_RNCNvMs0_NtCs3Snzs7u97BX_4skim6readerNtB7_6Reader7collects0_0B9_
FN:121,_RNCNvMs0_NtCs3Snzs7u97BX_4skim6readerNtB7_6Reader7collects_0B9_
FN:40,_RNvMNtCs3Snzs7u97BX_4skim6readerNtB2_13ReaderControl4kill
FN:52,_RNvMNtCs3Snzs7u97BX_4skim6readerNtB2_13ReaderControl4take
FN:60,_RNvMNtCs3Snzs7u97BX_4skim6readerNtB2_13ReaderControl7is_done
FN:80,_RNvMs0_NtCs3Snzs7u97BX_4skim6readerNtB5_6Reader12from_options
FN:94,_RNvMs0_NtCs3Snzs7u97BX_4skim6readerNtB5_6Reader3run
FN:88,_RNvMs0_NtCs3Snzs7u97BX_4skim6readerNtB5_6Reader6source
FN:117,_RNvMs0_NtCs3Snzs7u97BX_4skim6readerNtB5_6Reader7collect
FN:67,_RNvXs_NtCs3Snzs7u97BX_4skim6readerNtB4_13ReaderControlNtNtNtCs3IJltBbNwOJ_4core3ops4drop4Drop4drop
FN:142,_RINvNtCs2dRlemTKIe9_4skim6reader13collect_itemspEB4_
FN:150,_RNCINvNtCs2dRlemTKIe9_4skim6reader13collect_itemspE0B6_
FN:46,_RNCNvMNtCs2dRlemTKIe9_4skim6readerNtB4_13ReaderControl4kill0B6_
FN:98,_RNCNvMs0_NtCs2dRlemTKIe9_4skim6readerNtB7_6Reader3run0B9_
FN:105,_RNCNvMs0_NtCs2dRlemTKIe9_4skim6readerNtB7_6Reader3runs0_0B9_
FN:98,_RNCNvMs0_NtCs2dRlemTKIe9_4skim6readerNtB7_6Reader3runs_0B9_
FN:121,_RNCNvMs0_NtCs2dRlemTKIe9_4skim6readerNtB7_6Reader7collect0B9_
FN:128,_RNCNvMs0_NtCs2dRlemTKIe9_4skim6readerNtB7_6Reader7collects0_0B9_
FN:121,_RNCNvMs0_NtCs2dRlemTKIe9_4skim6readerNtB7_6Reader7collects_0B9_
FN:40,_RNvMNtCs2dRlemTKIe9_4skim6readerNtB2_13ReaderControl4kill
FN:52,_RNvMNtCs2dRlemTKIe9_4skim6readerNtB2_13ReaderControl4take
FN:60,_RNvMNtCs2dRlemTKIe9_4skim6readerNtB2_13ReaderControl7is_done
FN:80,_RNvMs0_NtCs2dRlemTKIe9_4skim6readerNtB5_6Reader12from_options
FN:94,_RNvMs0_NtCs2dRlemTKIe9_4skim6readerNtB5_6Reader3run
FN:88,_RNvMs0_NtCs2dRlemTKIe9_4skim6readerNtB5_6Reader6source
FN:117,_RNvMs0_NtCs2dRlemTKIe9_4skim6readerNtB5_6Reader7collect
FN:67,_RNvXs_NtCs2dRlemTKIe9_4skim6readerNtB4_13ReaderControlNtNtNtCs3IJltBbNwOJ_4core3ops4drop4Drop4drop
FNDA:0,_RINvNtCs3Snzs7u97BX_4skim6reader13collect_itemsNCNvMs0_B2_NtB2_6Reader3runs0_0EB4_
FNDA:0,_RINvNtCs3Snzs7u97BX_4skim6reader13collect_itemsNCNvMs0_B2_NtB2_6Reader7collects0_0EB4_
FNDA:0,_RNCINvNtCs3Snzs7u97BX_4skim6reader13collect_itemsNCNvMs0_B4_NtB4_6Reader3runs0_0E0B6_
FNDA:0,_RNCINvNtCs3Snzs7u97BX_4skim6reader13collect_itemsNCNvMs0_B4_NtB4_6Reader7collects0_0E0B6_
FNDA:0,_RNCNvMNtCs3Snzs7u97BX_4skim6readerNtB4_13ReaderControl4kill0B6_
FNDA:0,_RNCNvMs0_NtCs3Snzs7u97BX_4skim6readerNtB7_6Reader3run0B9_
FNDA:0,_RNCNvMs0_NtCs3Snzs7u97BX_4skim6readerNtB7_6Reader3runs0_0B9_
FNDA:0,_RNCNvMs0_NtCs3Snzs7u97BX_4skim6readerNtB7_6Reader3runs_0B9_
FNDA:0,_RNCNvMs0_NtCs3Snzs7u97BX_4skim6readerNtB7_6Reader7collect0B9_
FNDA:0,_RNCNvMs0_NtCs3Snzs7u97BX_4skim6readerNtB7_6Reader7collects0_0B9_
FNDA:0,_RNCNvMs0_NtCs3Snzs7u97BX_4skim6readerNtB7_6Reader7collects_0B9_
FNDA:0,_RNvMNtCs3Snzs7u97BX_4skim6readerNtB2_13ReaderControl4kill
FNDA:0,_RNvMNtCs3Snzs7u97BX_4skim6readerNtB2_13ReaderControl4take
FNDA:0,_RNvMNtCs3Snzs7u97BX_4skim6readerNtB2_13ReaderControl7is_done
FNDA:0,_RNvMs0_NtCs3Snzs7u97BX_4skim6readerNtB5_6Reader12from_options
FNDA:0,_RNvMs0_NtCs3Snzs7u97BX_4skim6readerNtB5_6Reader3run
FNDA:0,_RNvMs0_NtCs3Snzs7u97BX_4skim6readerNtB5_6Reader6source
FNDA:0,_RNvMs0_NtCs3Snzs7u97BX_4skim6readerNtB5_6Reader7collect
FNDA:0,_RNvXs_NtCs3Snzs7u97BX_4skim6readerNtB4_13ReaderControlNtNtNtCs3IJltBbNwOJ_4core3ops4drop4Drop4drop
FNDA:0,_RINvNtCs2dRlemTKIe9_4skim6reader13collect_itemspEB4_
FNDA:0,_RNCINvNtCs2dRlemTKIe9_4skim6reader13collect_itemspE0B6_
FNDA:0,_RNCNvMNtCs2dRlemTKIe9_4skim6readerNtB4_13ReaderControl4kill0B6_
FNDA:0,_RNCNvMs0_NtCs2dRlemTKIe9_4skim6readerNtB7_6Reader3run0B9_
FNDA:0,_RNCNvMs0_NtCs2dRlemTKIe9_4skim6readerNtB7_6Reader3runs0_0B9_
FNDA:0,_RNCNvMs0_NtCs2dRlemTKIe9_4skim6readerNtB7_6Reader3runs_0B9_
FNDA:0,_RNCNvMs0_NtCs2dRlemTKIe9_4skim6readerNtB7_6Reader7collect0B9_
FNDA:0,_RNCNvMs0_NtCs2dRlemTKIe9_4skim6readerNtB7_6Reader7collects0_0B9_
FNDA:0,_RNCNvMs0_NtCs2dRlemTKIe9_4skim6readerNtB7_6Reader7collects_0B9_
FNDA:0,_RNvMNtCs2dRlemTKIe9_4skim6readerNtB2_13ReaderControl4kill
FNDA:0,_RNvMNtCs2dRlemTKIe9_4skim6readerNtB2_13ReaderControl4take
FNDA:0,_RNvMNtCs2dRlemTKIe9_4skim6readerNtB2_13ReaderControl7is_done
FNDA:0,_RNvMs0_NtCs2dRlemTKIe9_4skim6readerNtB5_6Reader12from_options
FNDA:0,_RNvMs0_NtCs2dRlemTKIe9_4skim6readerNtB5_6Reader3run
FNDA:0,_RNvMs0_NtCs2dRlemTKIe9_4skim6readerNtB5_6Reader6source
FNDA:0,_RNvMs0_NtCs2dRlemTKIe9_4skim6readerNtB5_6Reader7collect
FNDA:0,_RNvXs_NtCs2dRlemTKIe9_4skim6readerNtB4_13ReaderControlNtNtNtCs3IJltBbNwOJ_4core3ops4drop4Drop4drop
FNF:17
FNH:0
DA:40,0
DA:41,0
DA:43,0
DA:46,0
DA:47,0
DA:48,0
DA:49,0
DA:52,0
DA:53,0
DA:54,0
DA:55,0
DA:56,0
DA:57,0
DA:60,0
DA:61,0
DA:62,0
DA:63,0
DA:67,0
DA:68,0
DA:69,0
DA:80,0
DA:81,0
DA:82,0
DA:83,0
DA:84,0
DA:85,0
DA:88,0
DA:89,0
DA:90,0
DA:91,0
DA:94,0
DA:95,0
DA:96,0
DA:98,0
DA:99,0
DA:100,0
DA:101,0
DA:102,0
DA:104,0
DA:105,0
DA:107,0
DA:108,0
DA:109,0
DA:110,0
DA:111,0
DA:112,0
DA:113,0
DA:117,0
DA:118,0
DA:119,0
DA:121,0
DA:122,0
DA:123,0
DA:124,0
DA:125,0
DA:127,0
DA:128,0
DA:129,0
DA:130,0
DA:131,0
DA:133,0
DA:134,0
DA:135,0
DA:136,0
DA:137,0
DA:138,0
DA:139,0
DA:142,0
DA:143,0
DA:144,0
DA:146,0
DA:148,0
DA:149,0
DA:150,0
DA:151,0
DA:152,0
DA:153,0
DA:156,0
DA:157,0
DA:158,0
DA:159,0
DA:160,0
DA:161,0
DA:162,0
DA:163,0
DA:165,0
DA:166,0
DA:167,0
DA:169,0
DA:174,0
DA:175,0
DA:176,0
DA:178,0
DA:179,0
DA:180,0
DA:182,0
DA:183,0
BRF:0
BRH:0
LF:105
LH:0
end_of_record
SF:/home/loric/src/skim/src/skim_item.rs
FN:57,_RNvYNtNtNtCs3Snzs7u97BX_4skim6helper4item15DefaultSkimItemNtNtB8_9skim_item8SkimItem7previewCsh7ZzE9tTlqq_4ansi
FN:92,_RNvXNtCs3Snzs7u97BX_4skim9skim_itemNtNtCshYl8hDvVEcY_5alloc6string6StringNtB2_8SkimItem4textB4_
FN:72,_RNvYNtNtCs3Snzs7u97BX_4skim4tmux14SkimTmuxOutputNtNtB6_9skim_item8SkimItem19get_matching_rangesB6_
FN:66,_RNvYNtNtCs3Snzs7u97BX_4skim4tmux14SkimTmuxOutputNtNtB6_9skim_item8SkimItem6outputB6_
FN:51,_RNvYNtNtCs3Snzs7u97BX_4skim4tmux14SkimTmuxOutputNtNtB6_9skim_item8SkimItem7displayB6_
FN:57,_RNvYNtNtCs3Snzs7u97BX_4skim4tmux14SkimTmuxOutputNtNtB6_9skim_item8SkimItem7previewB6_
FN:79,_RNvYNtNtCs3Snzs7u97BX_4skim4tmux14SkimTmuxOutputNtNtB6_9skim_item8SkimItem9get_indexB6_
FN:85,_RNvYNtNtCs3Snzs7u97BX_4skim4tmux14SkimTmuxOutputNtNtB6_9skim_item8SkimItem9set_indexB6_
FN:72,_RNvYNtNtCshYl8hDvVEcY_5alloc6string6StringNtNtCs3Snzs7u97BX_4skim9skim_item8SkimItem19get_matching_rangesBI_
FN:66,_RNvYNtNtCshYl8hDvVEcY_5alloc6string6StringNtNtCs3Snzs7u97BX_4skim9skim_item8SkimItem6outputBI_
FN:51,_RNvYNtNtCshYl8hDvVEcY_5alloc6string6StringNtNtCs3Snzs7u97BX_4skim9skim_item8SkimItem7displayBI_
FN:57,_RNvYNtNtCshYl8hDvVEcY_5alloc6string6StringNtNtCs3Snzs7u97BX_4skim9skim_item8SkimItem7previewBI_
FN:79,_RNvYNtNtCshYl8hDvVEcY_5alloc6string6StringNtNtCs3Snzs7u97BX_4skim9skim_item8SkimItem9get_indexBI_
FN:85,_RNvYNtNtCshYl8hDvVEcY_5alloc6string6StringNtNtCs3Snzs7u97BX_4skim9skim_item8SkimItem9set_indexBI_
FN:72,_RNvYNtNtNtCs3Snzs7u97BX_4skim6engine10normalized14NormalizedItemNtNtB8_9skim_item8SkimItem19get_matching_rangesB8_
FN:66,_RNvYNtNtNtCs3Snzs7u97BX_4skim6engine10normalized14NormalizedItemNtNtB8_9skim_item8SkimItem6outputB8_
FN:51,_RNvYNtNtNtCs3Snzs7u97BX_4skim6engine10normalized14NormalizedItemNtNtB8_9skim_item8SkimItem7displayB8_
FN:57,_RNvYNtNtNtCs3Snzs7u97BX_4skim6engine10normalized14NormalizedItemNtNtB8_9skim_item8SkimItem7previewB8_
FN:79,_RNvYNtNtNtCs3Snzs7u97BX_4skim6engine10normalized14NormalizedItemNtNtB8_9skim_item8SkimItem9get_indexB8_
FN:85,_RNvYNtNtNtCs3Snzs7u97BX_4skim6engine10normalized14NormalizedItemNtNtB8_9skim_item8SkimItem9set_indexB8_
FN:72,_RNvYNtNtNtCs3Snzs7u97BX_4skim6engine5split10StringItemNtNtB8_9skim_item8SkimItem19get_matching_rangesB8_
FN:66,_RNvYNtNtNtCs3Snzs7u97BX_4skim6engine5split10StringItemNtNtB8_9skim_item8SkimItem6outputB8_
FN:51,_RNvYNtNtNtCs3Snzs7u97BX_4skim6engine5split10StringItemNtNtB8_9skim_item8SkimItem7displayB8_
FN:57,_RNvYNtNtNtCs3Snzs7u97BX_4skim6engine5split10StringItemNtNtB8_9skim_item8SkimItem7previewB8_
FN:79,_RNvYNtNtNtCs3Snzs7u97BX_4skim6engine5split10StringItemNtNtB8_9skim_item8SkimItem9get_indexB8_
FN:85,_RNvYNtNtNtCs3Snzs7u97BX_4skim6engine5split10StringItemNtNtB8_9skim_item8SkimItem9set_indexB8_
FN:57,_RNvYNtNtNtCs3Snzs7u97BX_4skim6helper4item15DefaultSkimItemNtNtB8_9skim_item8SkimItem7previewB8_
FN:57,_RNvYNtNtNtCs3Snzs7u97BX_4skim6helper4item15DefaultSkimItemNtNtB8_9skim_item8SkimItem7previewCsjMtkzxvw6jX_5binds
FN:57,_RNvYNtNtNtCs3Snzs7u97BX_4skim6helper4item15DefaultSkimItemNtNtB8_9skim_item8SkimItem7previewCsjZxsXVxeWnR_4case
FN:57,_RNvYNtNtNtCs3Snzs7u97BX_4skim6helper4item15DefaultSkimItemNtNtB8_9skim_item8SkimItem7previewCs7rs3rzKdeUa_8defaults
FN:57,_RNvYNtNtNtCs3Snzs7u97BX_4skim6helper4item15DefaultSkimItemNtNtB8_9skim_item8SkimItem7previewCs8SL1o0vS7q8_6issues
FN:57,_RNvYNtNtNtCs3Snzs7u97BX_4skim6helper4item15DefaultSkimItemNtNtB8_9skim_item8SkimItem7previewCs7QtiJHxqkfB_4keys
FN:57,_RNvYNtNtNtCs3Snzs7u97BX_4skim6helper4item15DefaultSkimItemNtNtB8_9skim_item8SkimItem7previewCscGCI3e7M0l9_16keys_interactive
FN:57,_RNvYNtNtNtCs3Snzs7u97BX_4skim6helper4item15DefaultSkimItemNtNtB8_9skim_item8SkimItem7previewCscYgvKuNiZ3L_6layout
FN:57,_RNvYNtNtNtCs3Snzs7u97BX_4skim6helper4item15DefaultSkimItemNtNtB8_9skim_item8SkimItem7previewCsajW3zP0EBjk_9normalize
FN:57,_RNvYNtNtNtCs3Snzs7u97BX_4skim6helper4item15DefaultSkimItemNtNtB8_9skim_item8SkimItem7previewCs1KNxiT1fe8Y_7options
FN:57,_RNvYNtNtNtCs3Snzs7u97BX_4skim6helper4item15DefaultSkimItemNtNtB8_9skim_item8SkimItem7previewCs38oDVg7bgx1_7preview
FN:57,_RNvYNtNtNtCs3Snzs7u97BX_4skim6helper4item15DefaultSkimItemNtNtB8_9skim_item8SkimItem7previewCs7lWjSsce3cw_2sk
FN:92,_RNvXNtCs2dRlemTKIe9_4skim9skim_itemReNtB2_8SkimItem4textB4_
FN:57,_RNvYNtNtNtCs2dRlemTKIe9_4skim6helper4item15DefaultSkimItemNtNtB8_9skim_item8SkimItem7previewB8_
FN:72,_RNvYReNtNtCs2dRlemTKIe9_4skim9skim_item8SkimItem19get_matching_rangesB8_
FN:66,_RNvYReNtNtCs2dRlemTKIe9_4skim9skim_item8SkimItem6outputB8_
FN:51,_RNvYReNtNtCs2dRlemTKIe9_4skim9skim_item8SkimItem7displayB8_
FN:57,_RNvYReNtNtCs2dRlemTKIe9_4skim9skim_item8SkimItem7previewB8_
FN:79,_RNvYReNtNtCs2dRlemTKIe9_4skim9skim_item8SkimItem9get_indexB8_
FN:85,_RNvYReNtNtCs2dRlemTKIe9_4skim9skim_item8SkimItem9set_indexB8_
FN:57,_RNvYNtNtNtCs3Snzs7u97BX_4skim6helper4item15DefaultSkimItemNtNtB8_9skim_item8SkimItem7previewCsdYHrDtgrOQb_11split_match
FN:57,_RNvYNtNtNtCs3Snzs7u97BX_4skim6helper4item15DefaultSkimItemNtNtB8_9skim_item8SkimItem7previewCskazwg9rDpax_8tiebreak
FNDA:0,_RNvYNtNtNtCs3Snzs7u97BX_4skim6helper4item15DefaultSkimItemNtNtB8_9skim_item8SkimItem7previewCsh7ZzE9tTlqq_4ansi
FNDA:0,_RNvXNtCs3Snzs7u97BX_4skim9skim_itemNtNtCshYl8hDvVEcY_5alloc6string6StringNtB2_8SkimItem4textB4_
FNDA:0,_RNvYNtNtCs3Snzs7u97BX_4skim4tmux14SkimTmuxOutputNtNtB6_9skim_item8SkimItem19get_matching_rangesB6_
FNDA:0,_RNvYNtNtCs3Snzs7u97BX_4skim4tmux14SkimTmuxOutputNtNtB6_9skim_item8SkimItem6outputB6_
FNDA:0,_RNvYNtNtCs3Snzs7u97BX_4skim4tmux14SkimTmuxOutputNtNtB6_9skim_item8SkimItem7displayB6_
FNDA:0,_RNvYNtNtCs3Snzs7u97BX_4skim4tmux14SkimTmuxOutputNtNtB6_9skim_item8SkimItem7previewB6_
FNDA:0,_RNvYNtNtCs3Snzs7u97BX_4skim4tmux14SkimTmuxOutputNtNtB6_9skim_item8SkimItem9get_indexB6_
FNDA:0,_RNvYNtNtCs3Snzs7u97BX_4skim4tmux14SkimTmuxOutputNtNtB6_9skim_item8SkimItem9set_indexB6_
FNDA:0,_RNvYNtNtCshYl8hDvVEcY_5alloc6string6StringNtNtCs3Snzs7u97BX_4skim9skim_item8SkimItem19get_matching_rangesBI_
FNDA:0,_RNvYNtNtCshYl8hDvVEcY_5alloc6string6StringNtNtCs3Snzs7u97BX_4skim9skim_item8SkimItem6outputBI_
FNDA:0,_RNvYNtNtCshYl8hDvVEcY_5alloc6string6StringNtNtCs3Snzs7u97BX_4skim9skim_item8SkimItem7displayBI_
FNDA:0,_RNvYNtNtCshYl8hDvVEcY_5alloc6string6StringNtNtCs3Snzs7u97BX_4skim9skim_item8SkimItem7previewBI_
FNDA:0,_RNvYNtNtCshYl8hDvVEcY_5alloc6string6StringNtNtCs3Snzs7u97BX_4skim9skim_item8SkimItem9get_indexBI_
FNDA:0,_RNvYNtNtCshYl8hDvVEcY_5alloc6string6StringNtNtCs3Snzs7u97BX_4skim9skim_item8SkimItem9set_indexBI_
FNDA:0,_RNvYNtNtNtCs3Snzs7u97BX_4skim6engine10normalized14NormalizedItemNtNtB8_9skim_item8SkimItem19get_matching_rangesB8_
FNDA:0,_RNvYNtNtNtCs3Snzs7u97BX_4skim6engine10normalized14NormalizedItemNtNtB8_9skim_item8SkimItem6outputB8_
FNDA:0,_RNvYNtNtNtCs3Snzs7u97BX_4skim6engine10normalized14NormalizedItemNtNtB8_9skim_item8SkimItem7displayB8_
FNDA:0,_RNvYNtNtNtCs3Snzs7u97BX_4skim6engine10normalized14NormalizedItemNtNtB8_9skim_item8SkimItem7previewB8_
FNDA:0,_RNvYNtNtNtCs3Snzs7u97BX_4skim6engine10normalized14NormalizedItemNtNtB8_9skim_item8SkimItem9get_indexB8_
FNDA:0,_RNvYNtNtNtCs3Snzs7u97BX_4skim6engine10normalized14NormalizedItemNtNtB8_9skim_item8SkimItem9set_indexB8_
FNDA:0,_RNvYNtNtNtCs3Snzs7u97BX_4skim6engine5split10StringItemNtNtB8_9skim_item8SkimItem19get_matching_rangesB8_
FNDA:0,_RNvYNtNtNtCs3Snzs7u97BX_4skim6engine5split10StringItemNtNtB8_9skim_item8SkimItem6outputB8_
FNDA:0,_RNvYNtNtNtCs3Snzs7u97BX_4skim6engine5split10StringItemNtNtB8_9skim_item8SkimItem7displayB8_
FNDA:0,_RNvYNtNtNtCs3Snzs7u97BX_4skim6engine5split10StringItemNtNtB8_9skim_item8SkimItem7previewB8_
FNDA:0,_RNvYNtNtNtCs3Snzs7u97BX_4skim6engine5split10StringItemNtNtB8_9skim_item8SkimItem9get_indexB8_
FNDA:0,_RNvYNtNtNtCs3Snzs7u97BX_4skim6engine5split10StringItemNtNtB8_9skim_item8SkimItem9set_indexB8_
FNDA:0,_RNvYNtNtNtCs3Snzs7u97BX_4skim6helper4item15DefaultSkimItemNtNtB8_9skim_item8SkimItem7previewB8_
FNDA:0,_RNvYNtNtNtCs3Snzs7u97BX_4skim6helper4item15DefaultSkimItemNtNtB8_9skim_item8SkimItem7previewCsjMtkzxvw6jX_5binds
FNDA:0,_RNvYNtNtNtCs3Snzs7u97BX_4skim6helper4item15DefaultSkimItemNtNtB8_9skim_item8SkimItem7previewCsjZxsXVxeWnR_4case
FNDA:0,_RNvYNtNtNtCs3Snzs7u97BX_4skim6helper4item15DefaultSkimItemNtNtB8_9skim_item8SkimItem7previewCs7rs3rzKdeUa_8defaults
FNDA:0,_RNvYNtNtNtCs3Snzs7u97BX_4skim6helper4item15DefaultSkimItemNtNtB8_9skim_item8SkimItem7previewCs8SL1o0vS7q8_6issues
FNDA:0,_RNvYNtNtNtCs3Snzs7u97BX_4skim6helper4item15DefaultSkimItemNtNtB8_9skim_item8SkimItem7previewCs7QtiJHxqkfB_4keys
FNDA:0,_RNvYNtNtNtCs3Snzs7u97BX_4skim6helper4item15DefaultSkimItemNtNtB8_9skim_item8SkimItem7previewCscGCI3e7M0l9_16keys_interactive
FNDA:0,_RNvYNtNtNtCs3Snzs7u97BX_4skim6helper4item15DefaultSkimItemNtNtB8_9skim_item8SkimItem7previewCscYgvKuNiZ3L_6layout
FNDA:0,_RNvYNtNtNtCs3Snzs7u97BX_4skim6helper4item15DefaultSkimItemNtNtB8_9skim_item8SkimItem7previewCsajW3zP0EBjk_9normalize
FNDA:0,_RNvYNtNtNtCs3Snzs7u97BX_4skim6helper4item15DefaultSkimItemNtNtB8_9skim_item8SkimItem7previewCs1KNxiT1fe8Y_7options
FNDA:0,_RNvYNtNtNtCs3Snzs7u97BX_4skim6helper4item15DefaultSkimItemNtNtB8_9skim_item8SkimItem7previewCs38oDVg7bgx1_7preview
FNDA:0,_RNvYNtNtNtCs3Snzs7u97BX_4skim6helper4item15DefaultSkimItemNtNtB8_9skim_item8SkimItem7previewCs7lWjSsce3cw_2sk
FNDA:0,_RNvXNtCs2dRlemTKIe9_4skim9skim_itemReNtB2_8SkimItem4textB4_
FNDA:0,_RNvYNtNtNtCs2dRlemTKIe9_4skim6helper4item15DefaultSkimItemNtNtB8_9skim_item8SkimItem7previewB8_
FNDA:0,_RNvYReNtNtCs2dRlemTKIe9_4skim9skim_item8SkimItem19get_matching_rangesB8_
FNDA:0,_RNvYReNtNtCs2dRlemTKIe9_4skim9skim_item8SkimItem6outputB8_
FNDA:0,_RNvYReNtNtCs2dRlemTKIe9_4skim9skim_item8SkimItem7displayB8_
FNDA:0,_RNvYReNtNtCs2dRlemTKIe9_4skim9skim_item8SkimItem7previewB8_
FNDA:0,_RNvYReNtNtCs2dRlemTKIe9_4skim9skim_item8SkimItem9get_indexB8_
FNDA:0,_RNvYReNtNtCs2dRlemTKIe9_4skim9skim_item8SkimItem9set_indexB8_
FNDA:0,_RNvYNtNtNtCs3Snzs7u97BX_4skim6helper4item15DefaultSkimItemNtNtB8_9skim_item8SkimItem7previewCsdYHrDtgrOQb_11split_match
FNDA:0,_RNvYNtNtNtCs3Snzs7u97BX_4skim6helper4item15DefaultSkimItemNtNtB8_9skim_item8SkimItem7previewCskazwg9rDpax_8tiebreak
FNF:7
FNH:0
DA:51,0
DA:52,0
DA:53,0
DA:57,0
DA:58,0
DA:59,0
DA:66,0
DA:67,0
DA:68,0
DA:72,0
DA:73,0
DA:74,0
DA:79,0
DA:80,0
DA:81,0
DA:85,0
DA:92,0
DA:93,0
DA:94,0
BRF:0
BRH:0
LF:19
LH:0
end_of_record
SF:/home/loric/src/skim/src/spinlock.rs
FN:32,_RNvMs0_NtCs3Snzs7u97BX_4skim8spinlockINtB5_13SpinLockGuardINtNtCs3IJltBbNwOJ_4core6option6OptionNtNtNtB7_3tui9item_list14ProcessedItemsEE3newB7_
FN:32,_RNvMs0_NtCs3Snzs7u97BX_4skim8spinlockINtB5_13SpinLockGuardINtNtCshYl8hDvVEcY_5alloc3vec3VecINtNtBZ_4sync3ArcDNtNtB7_9skim_item8SkimItemEL_EEE3newB7_
FN:41,_RNvMs2_NtCs3Snzs7u97BX_4skim8spinlockINtB5_8SpinLockINtNtCs3IJltBbNwOJ_4core6option6OptionNtNtNtB7_3tui9item_list14ProcessedItemsEE3newB7_
FN:41,_RNvMs2_NtCs3Snzs7u97BX_4skim8spinlockINtB5_8SpinLockINtNtCshYl8hDvVEcY_5alloc3vec3VecINtNtBT_4sync3ArcDNtNtB7_9skim_item8SkimItemEL_EEE3newB7_
FN:51,_RNvMs3_NtCs3Snzs7u97BX_4skim8spinlockINtB5_8SpinLockINtNtCs3IJltBbNwOJ_4core6option6OptionNtNtNtB7_3tui9item_list14ProcessedItemsEE4lockB7_
FN:51,_RNvMs3_NtCs3Snzs7u97BX_4skim8spinlockINtB5_8SpinLockINtNtCshYl8hDvVEcY_5alloc3vec3VecINtNtBT_4sync3ArcDNtNtB7_9skim_item8SkimItemEL_EEE4lockB7_
FN:64,_RNvXs4_NtCs3Snzs7u97BX_4skim8spinlockINtB5_13SpinLockGuardINtNtCshYl8hDvVEcY_5alloc3vec3VecINtNtBZ_4sync3ArcDNtNtB7_9skim_item8SkimItemEL_EEENtNtNtCs3IJltBbNwOJ_4core3ops5deref5Deref5derefB7_
FN:70,_RNvXs5_NtCs3Snzs7u97BX_4skim8spinlockINtB5_13SpinLockGuardINtNtCs3IJltBbNwOJ_4core6option6OptionNtNtNtB7_3tui9item_list14ProcessedItemsEENtNtNtBZ_3ops5deref8DerefMut9deref_mutB7_
FN:70,_RNvXs5_NtCs3Snzs7u97BX_4skim8spinlockINtB5_13SpinLockGuardINtNtCshYl8hDvVEcY_5alloc3vec3VecINtNtBZ_4sync3ArcDNtNtB7_9skim_item8SkimItemEL_EEENtNtNtCs3IJltBbNwOJ_4core3ops5deref8DerefMut9deref_mutB7_
FN:77,_RNvXs6_NtCs3Snzs7u97BX_4skim8spinlockINtB5_13SpinLockGuardINtNtCs3IJltBbNwOJ_4core6option6OptionNtNtNtB7_3tui9item_list14ProcessedItemsEENtNtNtBZ_3ops4drop4Drop4dropB7_
FN:77,_RNvXs6_NtCs3Snzs7u97BX_4skim8spinlockINtB5_13SpinLockGuardINtNtCshYl8hDvVEcY_5alloc3vec3VecINtNtBZ_4sync3ArcDNtNtB7_9skim_item8SkimItemEL_EEENtNtNtCs3IJltBbNwOJ_4core3ops4drop4Drop4dropB7_
FN:32,_RNvMs0_NtCs2dRlemTKIe9_4skim8spinlockINtB5_13SpinLockGuardAlj3_E3newB7_
FN:32,_RNvMs0_NtCs2dRlemTKIe9_4skim8spinlockINtB5_13SpinLockGuardmE3newB7_
FN:32,_RNvMs0_NtCs2dRlemTKIe9_4skim8spinlockINtB5_13SpinLockGuarduE3newB7_
FN:41,_RNvMs2_NtCs2dRlemTKIe9_4skim8spinlockINtB5_8SpinLockAlj3_E3newB7_
FN:41,_RNvMs2_NtCs2dRlemTKIe9_4skim8spinlockINtB5_8SpinLockmE3newB7_
FN:41,_RNvMs2_NtCs2dRlemTKIe9_4skim8spinlockINtB5_8SpinLockuE3newB7_
FN:51,_RNvMs3_NtCs2dRlemTKIe9_4skim8spinlockINtB5_8SpinLockAlj3_E4lockB7_
FN:51,_RNvMs3_NtCs2dRlemTKIe9_4skim8spinlockINtB5_8SpinLockmE4lockB7_
FN:51,_RNvMs3_NtCs2dRlemTKIe9_4skim8spinlockINtB5_8SpinLockuE4lockB7_
FN:64,_RNvXs4_NtCs2dRlemTKIe9_4skim8spinlockINtB5_13SpinLockGuardAlj3_ENtNtNtCs3IJltBbNwOJ_4core3ops5deref5Deref5derefB7_
FN:64,_RNvXs4_NtCs2dRlemTKIe9_4skim8spinlockINtB5_13SpinLockGuardmENtNtNtCs3IJltBbNwOJ_4core3ops5deref5Deref5derefB7_
FN:70,_RNvXs5_NtCs2dRlemTKIe9_4skim8spinlockINtB5_13SpinLockGuardAlj3_ENtNtNtCs3IJltBbNwOJ_4core3ops5deref8DerefMut9deref_mutB7_
FN:70,_RNvXs5_NtCs2dRlemTKIe9_4skim8spinlockINtB5_13SpinLockGuardmENtNtNtCs3IJltBbNwOJ_4core3ops5deref8DerefMut9deref_mutB7_
FN:77,_RNvXs6_NtCs2dRlemTKIe9_4skim8spinlockINtB5_13SpinLockGuardAlj3_ENtNtNtCs3IJltBbNwOJ_4core3ops4drop4Drop4dropB7_
FN:77,_RNvXs6_NtCs2dRlemTKIe9_4skim8spinlockINtB5_13SpinLockGuardmENtNtNtCs3IJltBbNwOJ_4core3ops4drop4Drop4dropB7_
FN:77,_RNvXs6_NtCs2dRlemTKIe9_4skim8spinlockINtB5_13SpinLockGuarduENtNtNtCs3IJltBbNwOJ_4core3ops4drop4Drop4dropB7_
FNDA:0,_RNvMs0_NtCs3Snzs7u97BX_4skim8spinlockINtB5_13SpinLockGuardINtNtCs3IJltBbNwOJ_4core6option6OptionNtNtNtB7_3tui9item_list14ProcessedItemsEE3newB7_
FNDA:0,_RNvMs0_NtCs3Snzs7u97BX_4skim8spinlockINtB5_13SpinLockGuardINtNtCshYl8hDvVEcY_5alloc3vec3VecINtNtBZ_4sync3ArcDNtNtB7_9skim_item8SkimItemEL_EEE3newB7_
FNDA:0,_RNvMs2_NtCs3Snzs7u97BX_4skim8spinlockINtB5_8SpinLockINtNtCs3IJltBbNwOJ_4core6option6OptionNtNtNtB7_3tui9item_list14ProcessedItemsEE3newB7_
FNDA:0,_RNvMs2_NtCs3Snzs7u97BX_4skim8spinlockINtB5_8SpinLockINtNtCshYl8hDvVEcY_5alloc3vec3VecINtNtBT_4sync3ArcDNtNtB7_9skim_item8SkimItemEL_EEE3newB7_
FNDA:0,_RNvMs3_NtCs3Snzs7u97BX_4skim8spinlockINtB5_8SpinLockINtNtCs3IJltBbNwOJ_4core6option6OptionNtNtNtB7_3tui9item_list14ProcessedItemsEE4lockB7_
FNDA:0,_RNvMs3_NtCs3Snzs7u97BX_4skim8spinlockINtB5_8SpinLockINtNtCshYl8hDvVEcY_5alloc3vec3VecINtNtBT_4sync3ArcDNtNtB7_9skim_item8SkimItemEL_EEE4lockB7_
FNDA:0,_RNvXs4_NtCs3Snzs7u97BX_4skim8spinlockINtB5_13SpinLockGuardINtNtCshYl8hDvVEcY_5alloc3vec3VecINtNtBZ_4sync3ArcDNtNtB7_9skim_item8SkimItemEL_EEENtNtNtCs3IJltBbNwOJ_4core3ops5deref5Deref5derefB7_
FNDA:0,_RNvXs5_NtCs3Snzs7u97BX_4skim8spinlockINtB5_13SpinLockGuardINtNtCs3IJltBbNwOJ_4core6option6OptionNtNtNtB7_3tui9item_list14ProcessedItemsEENtNtNtBZ_3ops5deref8DerefMut9deref_mutB7_
FNDA:0,_RNvXs5_NtCs3Snzs7u97BX_4skim8spinlockINtB5_13SpinLockGuardINtNtCshYl8hDvVEcY_5alloc3vec3VecINtNtBZ_4sync3ArcDNtNtB7_9skim_item8SkimItemEL_EEENtNtNtCs3IJltBbNwOJ_4core3ops5deref8DerefMut9deref_mutB7_
FNDA:0,_RNvXs6_NtCs3Snzs7u97BX_4skim8spinlockINtB5_13SpinLockGuardINtNtCs3IJltBbNwOJ_4core6option6OptionNtNtNtB7_3tui9item_list14ProcessedItemsEENtNtNtBZ_3ops4drop4Drop4dropB7_
FNDA:0,_RNvXs6_NtCs3Snzs7u97BX_4skim8spinlockINtB5_13SpinLockGuardINtNtCshYl8hDvVEcY_5alloc3vec3VecINtNtBZ_4sync3ArcDNtNtB7_9skim_item8SkimItemEL_EEENtNtNtCs3IJltBbNwOJ_4core3ops4drop4Drop4dropB7_
FNDA:0,_RNvMs0_NtCs2dRlemTKIe9_4skim8spinlockINtB5_13SpinLockGuardAlj3_E3newB7_
FNDA:0,_RNvMs0_NtCs2dRlemTKIe9_4skim8spinlockINtB5_13SpinLockGuardmE3newB7_
FNDA:0,_RNvMs0_NtCs2dRlemTKIe9_4skim8spinlockINtB5_13SpinLockGuarduE3newB7_
FNDA:0,_RNvMs2_NtCs2dRlemTKIe9_4skim8spinlockINtB5_8SpinLockAlj3_E3newB7_
FNDA:0,_RNvMs2_NtCs2dRlemTKIe9_4skim8spinlockINtB5_8SpinLockmE3newB7_
FNDA:0,_RNvMs2_NtCs2dRlemTKIe9_4skim8spinlockINtB5_8SpinLockuE3newB7_
FNDA:0,_RNvMs3_NtCs2dRlemTKIe9_4skim8spinlockINtB5_8SpinLockAlj3_E4lockB7_
FNDA:0,_RNvMs3_NtCs2dRlemTKIe9_4skim8spinlockINtB5_8SpinLockmE4lockB7_
FNDA:0,_RNvMs3_NtCs2dRlemTKIe9_4skim8spinlockINtB5_8SpinLockuE4lockB7_
FNDA:0,_RNvXs4_NtCs2dRlemTKIe9_4skim8spinlockINtB5_13SpinLockGuardAlj3_ENtNtNtCs3IJltBbNwOJ_4core3ops5deref5Deref5derefB7_
FNDA:0,_RNvXs4_NtCs2dRlemTKIe9_4skim8spinlockINtB5_13SpinLockGuardmENtNtNtCs3IJltBbNwOJ_4core3ops5deref5Deref5derefB7_
FNDA:0,_RNvXs5_NtCs2dRlemTKIe9_4skim8spinlockINtB5_13SpinLockGuardAlj3_ENtNtNtCs3IJltBbNwOJ_4core3ops5deref8DerefMut9deref_mutB7_
FNDA:0,_RNvXs5_NtCs2dRlemTKIe9_4skim8spinlockINtB5_13SpinLockGuardmENtNtNtCs3IJltBbNwOJ_4core3ops5deref8DerefMut9deref_mutB7_
FNDA:0,_RNvXs6_NtCs2dRlemTKIe9_4skim8spinlockINtB5_13SpinLockGuardAlj3_ENtNtNtCs3IJltBbNwOJ_4core3ops4drop4Drop4dropB7_
FNDA:0,_RNvXs6_NtCs2dRlemTKIe9_4skim8spinlockINtB5_13SpinLockGuardmENtNtNtCs3IJltBbNwOJ_4core3ops4drop4Drop4dropB7_
FNDA:0,_RNvXs6_NtCs2dRlemTKIe9_4skim8spinlockINtB5_13SpinLockGuarduENtNtNtCs3IJltBbNwOJ_4core3ops4drop4Drop4dropB7_
FNF:6
FNH:0
DA:32,0
DA:33,0
DA:34,0
DA:41,0
DA:42,0
DA:43,0
DA:44,0
DA:45,0
DA:46,0
DA:51,0
DA:52,0
DA:53,0
DA:54,0
DA:55,0
DA:56,0
DA:57,0
DA:58,0
DA:64,0
DA:65,0
DA:66,0
DA:70,0
DA:71,0
DA:72,0
DA:77,0
DA:78,0
DA:79,0
DA:80,0
DA:81,0
DA:82,0
DA:83,0
DA:84,0
BRF:0
BRH:0
LF:31
LH:0
end_of_record
SF:/home/loric/src/skim/src/theme.rs
FN:328,_RNCNvMNtCs3Snzs7u97BX_4skim5themeNtB4_10ColorTheme9set_color0B6_
FN:117,_RNvMNtCs3Snzs7u97BX_4skim5themeNtB2_10ColorTheme10molokai256
FN:341,_RNvMNtCs3Snzs7u97BX_4skim5themeNtB2_10ColorTheme12from_options
FN:206,_RNvMNtCs3Snzs7u97BX_4skim5themeNtB2_10ColorTheme16catppuccin_latte
FN:152,_RNvMNtCs3Snzs7u97BX_4skim5themeNtB2_10ColorTheme16catppuccin_mocha
FN:233,_RNvMNtCs3Snzs7u97BX_4skim5themeNtB2_10ColorTheme17catppuccin_frappe
FN:53,_RNvMNtCs3Snzs7u97BX_4skim5themeNtB2_10ColorTheme17init_from_options
FN:179,_RNvMNtCs3Snzs7u97BX_4skim5themeNtB2_10ColorTheme20catppuccin_macchiato
FN:73,_RNvMNtCs3Snzs7u97BX_4skim5themeNtB2_10ColorTheme2bw
FN:66,_RNvMNtCs3Snzs7u97BX_4skim5themeNtB2_10ColorTheme4none
FN:100,_RNvMNtCs3Snzs7u97BX_4skim5themeNtB2_10ColorTheme7dark256
FN:134,_RNvMNtCs3Snzs7u97BX_4skim5themeNtB2_10ColorTheme8light256
FN:83,_RNvMNtCs3Snzs7u97BX_4skim5themeNtB2_10ColorTheme9default16
FN:260,_RNvMNtCs3Snzs7u97BX_4skim5themeNtB2_10ColorTheme9set_color
FN:369,_RNvNtCs3Snzs7u97BX_4skim5theme9set_style
FN:328,_RNCNvMNtCs2dRlemTKIe9_4skim5themeNtB4_10ColorTheme9set_color0B6_
FN:117,_RNvMNtCs2dRlemTKIe9_4skim5themeNtB2_10ColorTheme10molokai256
FN:341,_RNvMNtCs2dRlemTKIe9_4skim5themeNtB2_10ColorTheme12from_options
FN:206,_RNvMNtCs2dRlemTKIe9_4skim5themeNtB2_10ColorTheme16catppuccin_latte
FN:152,_RNvMNtCs2dRlemTKIe9_4skim5themeNtB2_10ColorTheme16catppuccin_mocha
FN:233,_RNvMNtCs2dRlemTKIe9_4skim5themeNtB2_10ColorTheme17catppuccin_frappe
FN:53,_RNvMNtCs2dRlemTKIe9_4skim5themeNtB2_10ColorTheme17init_from_options
FN:179,_RNvMNtCs2dRlemTKIe9_4skim5themeNtB2_10ColorTheme20catppuccin_macchiato
FN:73,_RNvMNtCs2dRlemTKIe9_4skim5themeNtB2_10ColorTheme2bw
FN:66,_RNvMNtCs2dRlemTKIe9_4skim5themeNtB2_10ColorTheme4none
FN:100,_RNvMNtCs2dRlemTKIe9_4skim5themeNtB2_10ColorTheme7dark256
FN:134,_RNvMNtCs2dRlemTKIe9_4skim5themeNtB2_10ColorTheme8light256
FN:83,_RNvMNtCs2dRlemTKIe9_4skim5themeNtB2_10ColorTheme9default16
FN:260,_RNvMNtCs2dRlemTKIe9_4skim5themeNtB2_10ColorTheme9set_color
FN:369,_RNvNtCs2dRlemTKIe9_4skim5theme9set_style
FNDA:0,_RNCNvMNtCs3Snzs7u97BX_4skim5themeNtB4_10ColorTheme9set_color0B6_
FNDA:0,_RNvMNtCs3Snzs7u97BX_4skim5themeNtB2_10ColorTheme10molokai256
FNDA:0,_RNvMNtCs3Snzs7u97BX_4skim5themeNtB2_10ColorTheme12from_options
FNDA:0,_RNvMNtCs3Snzs7u97BX_4skim5themeNtB2_10ColorTheme16catppuccin_latte
FNDA:0,_RNvMNtCs3Snzs7u97BX_4skim5themeNtB2_10ColorTheme16catppuccin_mocha
FNDA:0,_RNvMNtCs3Snzs7u97BX_4skim5themeNtB2_10ColorTheme17catppuccin_frappe
FNDA:0,_RNvMNtCs3Snzs7u97BX_4skim5themeNtB2_10ColorTheme17init_from_options
FNDA:0,_RNvMNtCs3Snzs7u97BX_4skim5themeNtB2_10ColorTheme20catppuccin_macchiato
FNDA:0,_RNvMNtCs3Snzs7u97BX_4skim5themeNtB2_10ColorTheme2bw
FNDA:0,_RNvMNtCs3Snzs7u97BX_4skim5themeNtB2_10ColorTheme4none
FNDA:0,_RNvMNtCs3Snzs7u97BX_4skim5themeNtB2_10ColorTheme7dark256
FNDA:0,_RNvMNtCs3Snzs7u97BX_4skim5themeNtB2_10ColorTheme8light256
FNDA:0,_RNvMNtCs3Snzs7u97BX_4skim5themeNtB2_10ColorTheme9default16
FNDA:0,_RNvMNtCs3Snzs7u97BX_4skim5themeNtB2_10ColorTheme9set_color
FNDA:0,_RNvNtCs3Snzs7u97BX_4skim5theme9set_style
FNDA:0,_RNCNvMNtCs2dRlemTKIe9_4skim5themeNtB4_10ColorTheme9set_color0B6_
FNDA:0,_RNvMNtCs2dRlemTKIe9_4skim5themeNtB2_10ColorTheme10molokai256
FNDA:0,_RNvMNtCs2dRlemTKIe9_4skim5themeNtB2_10ColorTheme12from_options
FNDA:0,_RNvMNtCs2dRlemTKIe9_4skim5themeNtB2_10ColorTheme16catppuccin_latte
FNDA:0,_RNvMNtCs2dRlemTKIe9_4skim5themeNtB2_10ColorTheme16catppuccin_mocha
FNDA:0,_RNvMNtCs2dRlemTKIe9_4skim5themeNtB2_10ColorTheme17catppuccin_frappe
FNDA:0,_RNvMNtCs2dRlemTKIe9_4skim5themeNtB2_10ColorTheme17init_from_options
FNDA:0,_RNvMNtCs2dRlemTKIe9_4skim5themeNtB2_10ColorTheme20catppuccin_macchiato
FNDA:0,_RNvMNtCs2dRlemTKIe9_4skim5themeNtB2_10ColorTheme2bw
FNDA:0,_RNvMNtCs2dRlemTKIe9_4skim5themeNtB2_10ColorTheme4none
FNDA:0,_RNvMNtCs2dRlemTKIe9_4skim5themeNtB2_10ColorTheme7dark256
FNDA:0,_RNvMNtCs2dRlemTKIe9_4skim5themeNtB2_10ColorTheme8light256
FNDA:0,_RNvMNtCs2dRlemTKIe9_4skim5themeNtB2_10ColorTheme9default16
FNDA:0,_RNvMNtCs2dRlemTKIe9_4skim5themeNtB2_10ColorTheme9set_color
FNDA:0,_RNvNtCs2dRlemTKIe9_4skim5theme9set_style
FNF:15
FNH:0
DA:53,0
DA:55,0
DA:56,0
DA:59,0
DA:60,0
DA:61,0
DA:64,0
DA:66,0
DA:67,0
DA:68,0
DA:69,0
DA:70,0
DA:71,0
DA:73,0
DA:74,0
DA:75,0
DA:76,0
DA:77,0
DA:78,0
DA:79,0
DA:80,0
DA:81,0
DA:83,0
DA:84,0
DA:85,0
DA:86,0
DA:87,0
DA:88,0
DA:89,0
DA:90,0
DA:91,0
DA:92,0
DA:93,0
DA:94,0
DA:95,0
DA:96,0
DA:97,0
DA:98,0
DA:100,0
DA:101,0
DA:102,0
DA:103,0
DA:104,0
DA:105,0
DA:106,0
DA:107,0
DA:108,0
DA:109,0
DA:110,0
DA:111,0
DA:112,0
DA:113,0
DA:114,0
DA:115,0
DA:117,0
DA:118,0
DA:119,0
DA:120,0
DA:121,0
DA:122,0
DA:123,0
DA:124,0
DA:125,0
DA:126,0
DA:127,0
DA:128,0
DA:129,0
DA:130,0
DA:131,0
DA:132,0
DA:134,0
DA:135,0
DA:136,0
DA:137,0
DA:138,0
DA:139,0
DA:140,0
DA:141,0
DA:142,0
DA:143,0
DA:144,0
DA:145,0
DA:146,0
DA:147,0
DA:148,0
DA:149,0
DA:152,0
DA:153,0
DA:154,0
DA:155,0
DA:156,0
DA:157,0
DA:158,0
DA:159,0
DA:160,0
DA:161,0
DA:162,0
DA:163,0
DA:164,0
DA:165,0
DA:166,0
DA:167,0
DA:168,0
DA:169,0
DA:170,0
DA:171,0
DA:172,0
DA:173,0
DA:174,0
DA:175,0
DA:176,0
DA:177,0
DA:179,0
DA:180,0
DA:181,0
DA:182,0
DA:183,0
DA:184,0
DA:185,0
DA:186,0
DA:187,0
DA:188,0
DA:189,0
DA:190,0
DA:191,0
DA:192,0
DA:193,0
DA:194,0
DA:195,0
DA:196,0
DA:197,0
DA:198,0
DA:199,0
DA:200,0
DA:201,0
DA:202,0
DA:203,0
DA:204,0
DA:206,0
DA:207,0
DA:208,0
DA:209,0
DA:210,0
DA:211,0
DA:212,0
DA:213,0
DA:214,0
DA:215,0
DA:216,0
DA:217,0
DA:218,0
DA:219,0
DA:220,0
DA:221,0
DA:222,0
DA:223,0
DA:224,0
DA:225,0
DA:226,0
DA:227,0
DA:228,0
DA:229,0
DA:230,0
DA:231,0
DA:233,0
DA:234,0
DA:235,0
DA:236,0
DA:237,0
DA:238,0
DA:239,0
DA:240,0
DA:241,0
DA:242,0
DA:243,0
DA:244,0
DA:245,0
DA:246,0
DA:247,0
DA:248,0
DA:249,0
DA:250,0
DA:251,0
DA:252,0
DA:253,0
DA:254,0
DA:255,0
DA:256,0
DA:257,0
DA:258,0
DA:260,0
DA:261,0
DA:264,0
DA:265,0
DA:266,0
DA:267,0
DA:269,0
DA:270,0
DA:271,0
DA:272,0
DA:273,0
DA:274,0
DA:275,0
DA:276,0
DA:277,0
DA:278,0
DA:284,0
DA:285,0
DA:286,0
DA:287,0
DA:288,0
DA:289,0
DA:290,0
DA:291,0
DA:292,0
DA:293,0
DA:295,0
DA:298,0
DA:299,0
DA:300,0
DA:301,0
DA:302,0
DA:303,0
DA:304,0
DA:305,0
DA:306,0
DA:307,0
DA:308,0
DA:309,0
DA:310,0
DA:311,0
DA:312,0
DA:316,0
DA:318,0
DA:320,0
DA:321,0
DA:322,0
DA:323,0
DA:325,0
DA:326,0
DA:328,0
DA:329,0
DA:330,0
DA:331,0
DA:332,0
DA:333,0
DA:337,0
DA:338,0
DA:339,0
DA:341,0
DA:342,0
DA:343,0
DA:344,0
DA:345,0
DA:346,0
DA:347,0
DA:348,0
DA:349,0
DA:350,0
DA:351,0
DA:352,0
DA:353,0
DA:354,0
DA:355,0
DA:356,0
DA:357,0
DA:358,0
DA:359,0
DA:360,0
DA:365,0
DA:366,0
DA:369,0
DA:370,0
DA:371,0
DA:372,0
DA:373,0
DA:374,0
DA:375,0
DA:377,0
DA:378,0
DA:379,0
BRF:0
BRH:0
LF:282
LH:0
end_of_record
SF:/home/loric/src/skim/src/tmux.rs
FN:143,_RNCNCNvNtCs3Snzs7u97BX_4skim4tmux8run_withs1_00B7_
FN:116,_RNCNvNtCs3Snzs7u97BX_4skim4tmux8run_with0B5_
FN:136,_RNCNvNtCs3Snzs7u97BX_4skim4tmux8run_withs0_0B5_
FN:140,_RNCNvNtCs3Snzs7u97BX_4skim4tmux8run_withs1_0B5_
FN:202,_RNCNvNtCs3Snzs7u97BX_4skim4tmux8run_withs2_0B5_
FN:230,_RNCNvNtCs3Snzs7u97BX_4skim4tmux8run_withs3_0B5_
FN:134,_RNCNvNtCs3Snzs7u97BX_4skim4tmux8run_withs_0B5_
FN:318,_RNvNtCs3Snzs7u97BX_4skim4tmux14sanitize_value
FN:302,_RNvNtCs3Snzs7u97BX_4skim4tmux15push_quoted_arg
FN:104,_RNvNtCs3Snzs7u97BX_4skim4tmux8run_with
FN:40,_RNvXNtCs3Snzs7u97BX_4skim4tmuxNtB2_13TmuxWindowDirINtNtCs3IJltBbNwOJ_4core7convert4FromReE4from
FN:72,_RNvXs0_NtCs3Snzs7u97BX_4skim4tmuxNtB5_11TmuxOptionsINtNtCs3IJltBbNwOJ_4core7convert4FromRNtNtCshYl8hDvVEcY_5alloc6string6StringE4from
FN:66,_RNvXs_NtCs3Snzs7u97BX_4skim4tmuxNtB4_14SkimTmuxOutputNtNtB6_9skim_item8SkimItem4text
FN:318,_RNvNtCs2dRlemTKIe9_4skim4tmux14sanitize_value
FN:40,_RNvXNtCs2dRlemTKIe9_4skim4tmuxNtB2_13TmuxWindowDirINtNtCs3IJltBbNwOJ_4core7convert4FromReE4from
FN:72,_RNvXs0_NtCs2dRlemTKIe9_4skim4tmuxNtB5_11TmuxOptionsINtNtCs3IJltBbNwOJ_4core7convert4FromRNtNtCshYl8hDvVEcY_5alloc6string6StringE4from
FN:143,_RNCNCNvNtCs2dRlemTKIe9_4skim4tmux8run_withs1_00B7_
FN:116,_RNCNvNtCs2dRlemTKIe9_4skim4tmux8run_with0B5_
FN:136,_RNCNvNtCs2dRlemTKIe9_4skim4tmux8run_withs0_0B5_
FN:140,_RNCNvNtCs2dRlemTKIe9_4skim4tmux8run_withs1_0B5_
FN:202,_RNCNvNtCs2dRlemTKIe9_4skim4tmux8run_withs2_0B5_
FN:230,_RNCNvNtCs2dRlemTKIe9_4skim4tmux8run_withs3_0B5_
FN:134,_RNCNvNtCs2dRlemTKIe9_4skim4tmux8run_withs_0B5_
FN:302,_RNvNtCs2dRlemTKIe9_4skim4tmux15push_quoted_arg
FN:104,_RNvNtCs2dRlemTKIe9_4skim4tmux8run_with
FN:66,_RNvXs_NtCs2dRlemTKIe9_4skim4tmuxNtB4_14SkimTmuxOutputNtNtB6_9skim_item8SkimItem4text
FNDA:0,_RNCNCNvNtCs3Snzs7u97BX_4skim4tmux8run_withs1_00B7_
FNDA:0,_RNCNvNtCs3Snzs7u97BX_4skim4tmux8run_with0B5_
FNDA:0,_RNCNvNtCs3Snzs7u97BX_4skim4tmux8run_withs0_0B5_
FNDA:0,_RNCNvNtCs3Snzs7u97BX_4skim4tmux8run_withs1_0B5_
FNDA:0,_RNCNvNtCs3Snzs7u97BX_4skim4tmux8run_withs2_0B5_
FNDA:0,_RNCNvNtCs3Snzs7u97BX_4skim4tmux8run_withs3_0B5_
FNDA:0,_RNCNvNtCs3Snzs7u97BX_4skim4tmux8run_withs_0B5_
FNDA:0,_RNvNtCs3Snzs7u97BX_4skim4tmux14sanitize_value
FNDA:0,_RNvNtCs3Snzs7u97BX_4skim4tmux15push_quoted_arg
FNDA:0,_RNvNtCs3Snzs7u97BX_4skim4tmux8run_with
FNDA:0,_RNvXNtCs3Snzs7u97BX_4skim4tmuxNtB2_13TmuxWindowDirINtNtCs3IJltBbNwOJ_4core7convert4FromReE4from
FNDA:0,_RNvXs0_NtCs3Snzs7u97BX_4skim4tmuxNtB5_11TmuxOptionsINtNtCs3IJltBbNwOJ_4core7convert4FromRNtNtCshYl8hDvVEcY_5alloc6string6StringE4from
FNDA:0,_RNvXs_NtCs3Snzs7u97BX_4skim4tmuxNtB4_14SkimTmuxOutputNtNtB6_9skim_item8SkimItem4text
FNDA:0,_RNvNtCs2dRlemTKIe9_4skim4tmux14sanitize_value
FNDA:0,_RNvXNtCs2dRlemTKIe9_4skim4tmuxNtB2_13TmuxWindowDirINtNtCs3IJltBbNwOJ_4core7convert4FromReE4from
FNDA:0,_RNvXs0_NtCs2dRlemTKIe9_4skim4tmuxNtB5_11TmuxOptionsINtNtCs3IJltBbNwOJ_4core7convert4FromRNtNtCshYl8hDvVEcY_5alloc6string6StringE4from
FNDA:0,_RNCNCNvNtCs2dRlemTKIe9_4skim4tmux8run_withs1_00B7_
FNDA:0,_RNCNvNtCs2dRlemTKIe9_4skim4tmux8run_with0B5_
FNDA:0,_RNCNvNtCs2dRlemTKIe9_4skim4tmux8run_withs0_0B5_
FNDA:0,_RNCNvNtCs2dRlemTKIe9_4skim4tmux8run_withs1_0B5_
FNDA:0,_RNCNvNtCs2dRlemTKIe9_4skim4tmux8run_withs2_0B5_
FNDA:0,_RNCNvNtCs2dRlemTKIe9_4skim4tmux8run_withs3_0B5_
FNDA:0,_RNCNvNtCs2dRlemTKIe9_4skim4tmux8run_withs_0B5_
FNDA:0,_RNvNtCs2dRlemTKIe9_4skim4tmux15push_quoted_arg
FNDA:0,_RNvNtCs2dRlemTKIe9_4skim4tmux8run_with
FNDA:0,_RNvXs_NtCs2dRlemTKIe9_4skim4tmuxNtB4_14SkimTmuxOutputNtNtB6_9skim_item8SkimItem4text
FNF:13
FNH:0
DA:40,0
DA:42,0
DA:43,0
DA:44,0
DA:45,0
DA:46,0
DA:47,0
DA:48,0
DA:50,0
DA:66,0
DA:67,0
DA:68,0
DA:72,0
DA:73,0
DA:74,0
DA:75,0
DA:76,0
DA:77,0
DA:78,0
DA:81,0
DA:82,0
DA:83,0
DA:84,0
DA:88,0
DA:89,0
DA:90,0
DA:91,0
DA:92,0
DA:93,0
DA:96,0
DA:97,0
DA:104,0
DA:106,0
DA:108,0
DA:109,0
DA:110,0
DA:111,0
DA:112,0
DA:114,0
DA:115,0
DA:116,0
DA:118,0
DA:119,0
DA:120,0
DA:122,0
DA:123,0
DA:124,0
DA:126,0
DA:127,0
DA:128,0
DA:132,0
DA:133,0
DA:134,0
DA:135,0
DA:136,0
DA:138,0
DA:139,0
DA:140,0
DA:141,0
DA:142,0
DA:143,0
DA:144,0
DA:145,0
DA:148,0
DA:149,0
DA:150,0
DA:151,0
DA:153,0
DA:154,0
DA:155,0
DA:156,0
DA:157,0
DA:158,0
DA:160,0
DA:164,0
DA:165,0
DA:167,0
DA:171,0
DA:172,0
DA:174,0
DA:175,0
DA:176,0
DA:177,0
DA:178,0
DA:179,0
DA:180,0
DA:181,0
DA:182,0
DA:183,0
DA:184,0
DA:185,0
DA:186,0
DA:187,0
DA:188,0
DA:189,0
DA:190,0
DA:192,0
DA:193,0
DA:194,0
DA:195,0
DA:197,0
DA:200,0
DA:201,0
DA:202,0
DA:204,0
DA:205,0
DA:206,0
DA:207,0
DA:208,0
DA:209,0
DA:210,0
DA:211,0
DA:213,0
DA:214,0
DA:215,0
DA:216,0
DA:217,0
DA:218,0
DA:221,0
DA:223,0
DA:225,0
DA:226,0
DA:227,0
DA:228,0
DA:229,0
DA:230,0
DA:233,0
DA:235,0
DA:236,0
DA:237,0
DA:238,0
DA:239,0
DA:241,0
DA:242,0
DA:244,0
DA:247,0
DA:248,0
DA:250,0
DA:253,0
DA:254,0
DA:256,0
DA:258,0
DA:260,0
DA:261,0
DA:262,0
DA:263,0
DA:264,0
DA:265,0
DA:266,0
DA:267,0
DA:268,0
DA:269,0
DA:270,0
DA:271,0
DA:272,0
DA:273,0
DA:274,0
DA:275,0
DA:276,0
DA:277,0
DA:280,0
DA:281,0
DA:282,0
DA:283,0
DA:287,0
DA:288,0
DA:289,0
DA:290,0
DA:291,0
DA:292,0
DA:293,0
DA:294,0
DA:295,0
DA:296,0
DA:297,0
DA:298,0
DA:299,0
DA:300,0
DA:302,0
DA:304,0
DA:305,0
DA:306,0
DA:307,0
DA:308,0
DA:309,0
DA:310,0
DA:312,0
DA:313,0
DA:314,0
DA:315,0
DA:316,0
DA:318,0
DA:319,0
DA:320,0
DA:321,0
DA:323,0
DA:324,0
DA:325,0
DA:326,0
BRF:0
BRH:0
LF:206
LH:0
end_of_record
SF:/home/loric/src/skim/src/tui/app.rs
FN:436,_RINvMs1_NtNtCs3Snzs7u97BX_4skim3tui3appNtB6_3App11run_previewNtNtNtCs4CtSrCeEHDB_12ratatui_core7backend4test11TestBackendECsh7ZzE9tTlqq_4ansi
FN:534,_RINvMs1_NtNtCs3Snzs7u97BX_4skim3tui3appNtB6_3App12handle_eventNtNtNtCs4CtSrCeEHDB_12ratatui_core7backend4test11TestBackendECsh7ZzE9tTlqq_4ansi
FN:1227,_RINvMs1_NtNtCs3Snzs7u97BX_4skim3tui3appNtB6_3App12handle_mouseNtNtNtCs4CtSrCeEHDB_12ratatui_core7backend4test11TestBackendECsh7ZzE9tTlqq_4ansi
FN:457,_RNCINvMs1_NtNtCs3Snzs7u97BX_4skim3tui3appNtB8_3App11run_previewNtNtNtCs4CtSrCeEHDB_12ratatui_core7backend4test11TestBackendE0Csh7ZzE9tTlqq_4ansi
FN:468,_RNCINvMs1_NtNtCs3Snzs7u97BX_4skim3tui3appNtB8_3App11run_previewNtNtNtCs4CtSrCeEHDB_12ratatui_core7backend4test11TestBackendEs0_0Csh7ZzE9tTlqq_4ansi
FN:472,_RNCINvMs1_NtNtCs3Snzs7u97BX_4skim3tui3appNtB8_3App11run_previewNtNtNtCs4CtSrCeEHDB_12ratatui_core7backend4test11TestBackendEs1_0Csh7ZzE9tTlqq_4ansi
FN:478,_RNCINvMs1_NtNtCs3Snzs7u97BX_4skim3tui3appNtB8_3App11run_previewNtNtNtCs4CtSrCeEHDB_12ratatui_core7backend4test11TestBackendEs2_0Csh7ZzE9tTlqq_4ansi
FN:522,_RNCINvMs1_NtNtCs3Snzs7u97BX_4skim3tui3appNtB8_3App11run_previewNtNtNtCs4CtSrCeEHDB_12ratatui_core7backend4test11TestBackendEs3_0Csh7ZzE9tTlqq_4ansi
FN:458,_RNCINvMs1_NtNtCs3Snzs7u97BX_4skim3tui3appNtB8_3App11run_previewNtNtNtCs4CtSrCeEHDB_12ratatui_core7backend4test11TestBackendEs_0Csh7ZzE9tTlqq_4ansi
FN:542,_RNCINvMs1_NtNtCs3Snzs7u97BX_4skim3tui3appNtB8_3App12handle_eventNtNtNtCs4CtSrCeEHDB_12ratatui_core7backend4test11TestBackendE0Csh7ZzE9tTlqq_4ansi
FN:436,_RINvMs1_NtNtCs3Snzs7u97BX_4skim3tui3appNtB6_3App11run_previewINtCsa8sjCXQ6JGg_17ratatui_crossterm16CrosstermBackendINtNtNtNtCs5U62srxYbFV_3std2io8buffered9bufwriter9BufWriterNtNtB1W_5stdio6StderrEEEBa_
FN:534,_RINvMs1_NtNtCs3Snzs7u97BX_4skim3tui3appNtB6_3App12handle_eventINtCsa8sjCXQ6JGg_17ratatui_crossterm16CrosstermBackendINtNtNtNtCs5U62srxYbFV_3std2io8buffered9bufwriter9BufWriterNtNtB1X_5stdio6StderrEEEBa_
FN:1227,_RINvMs1_NtNtCs3Snzs7u97BX_4skim3tui3appNtB6_3App12handle_mouseINtCsa8sjCXQ6JGg_17ratatui_crossterm16CrosstermBackendINtNtNtNtCs5U62srxYbFV_3std2io8buffered9bufwriter9BufWriterNtNtB1X_5stdio6StderrEEEBa_
FN:457,_RNCINvMs1_NtNtCs3Snzs7u97BX_4skim3tui3appNtB8_3App11run_previewINtCsa8sjCXQ6JGg_17ratatui_crossterm16CrosstermBackendINtNtNtNtCs5U62srxYbFV_3std2io8buffered9bufwriter9BufWriterNtNtB1Y_5stdio6StderrEEE0Bc_
FN:468,_RNCINvMs1_NtNtCs3Snzs7u97BX_4skim3tui3appNtB8_3App11run_previewINtCsa8sjCXQ6JGg_17ratatui_crossterm16CrosstermBackendINtNtNtNtCs5U62srxYbFV_3std2io8buffered9bufwriter9BufWriterNtNtB1Y_5stdio6StderrEEEs0_0Bc_
FN:472,_RNCINvMs1_NtNtCs3Snzs7u97BX_4skim3tui3appNtB8_3App11run_previewINtCsa8sjCXQ6JGg_17ratatui_crossterm16CrosstermBackendINtNtNtNtCs5U62srxYbFV_3std2io8buffered9bufwriter9BufWriterNtNtB1Y_5stdio6StderrEEEs1_0Bc_
FN:478,_RNCINvMs1_NtNtCs3Snzs7u97BX_4skim3tui3appNtB8_3App11run_previewINtCsa8sjCXQ6JGg_17ratatui_crossterm16CrosstermBackendINtNtNtNtCs5U62srxYbFV_3std2io8buffered9bufwriter9BufWriterNtNtB1Y_5stdio6StderrEEEs2_0Bc_
FN:522,_RNCINvMs1_NtNtCs3Snzs7u97BX_4skim3tui3appNtB8_3App11run_previewINtCsa8sjCXQ6JGg_17ratatui_crossterm16CrosstermBackendINtNtNtNtCs5U62srxYbFV_3std2io8buffered9bufwriter9BufWriterNtNtB1Y_5stdio6StderrEEEs3_0Bc_
FN:458,_RNCINvMs1_NtNtCs3Snzs7u97BX_4skim3tui3appNtB8_3App11run_previewINtCsa8sjCXQ6JGg_17ratatui_crossterm16CrosstermBackendINtNtNtNtCs5U62srxYbFV_3std2io8buffered9bufwriter9BufWriterNtNtB1Y_5stdio6StderrEEEs_0Bc_
FN:542,_RNCINvMs1_NtNtCs3Snzs7u97BX_4skim3tui3appNtB8_3App12handle_eventINtCsa8sjCXQ6JGg_17ratatui_crossterm16CrosstermBackendINtNtNtNtCs5U62srxYbFV_3std2io8buffered9bufwriter9BufWriterNtNtB1Z_5stdio6StderrEEE0Bc_
FN:1202,_RNCNvMs1_NtNtCs3Snzs7u97BX_4skim3tui3appNtB7_3App10expand_cmd0Bb_
FN:628,_RNCNvMs1_NtNtCs3Snzs7u97BX_4skim3tui3appNtB7_3App10handle_key0Bb_
FN:760,_RNCNvMs1_NtNtCs3Snzs7u97BX_4skim3tui3appNtB7_3App13handle_action0Bb_
FN:799,_RNCNvMs1_NtNtCs3Snzs7u97BX_4skim3tui3appNtB7_3App13handle_actions0_0Bb_
FN:806,_RNCNvMs1_NtNtCs3Snzs7u97BX_4skim3tui3appNtB7_3App13handle_actions1_0Bb_
FN:810,_RNCNvMs1_NtNtCs3Snzs7u97BX_4skim3tui3appNtB7_3App13handle_actions2_0Bb_
FN:817,_RNCNvMs1_NtNtCs3Snzs7u97BX_4skim3tui3appNtB7_3App13handle_actions3_0Bb_
FN:821,_RNCNvMs1_NtNtCs3Snzs7u97BX_4skim3tui3appNtB7_3App13handle_actions4_0Bb_
FN:1112,_RNCNvMs1_NtNtCs3Snzs7u97BX_4skim3tui3appNtB7_3App13handle_actions5_0Bb_
FN:795,_RNCNvMs1_NtNtCs3Snzs7u97BX_4skim3tui3appNtB7_3App13handle_actions_0Bb_
FN:1177,_RNCNvMs1_NtNtCs3Snzs7u97BX_4skim3tui3appNtB7_3App15restart_matcher0Bb_
FN:370,_RNCNvMs1_NtNtCs3Snzs7u97BX_4skim3tui3appNtB7_3App24calculate_preview_offset0Bb_
FN:377,_RNCNvMs1_NtNtCs3Snzs7u97BX_4skim3tui3appNtB7_3App24calculate_preview_offsets0_0Bb_
FN:379,_RNCNvMs1_NtNtCs3Snzs7u97BX_4skim3tui3appNtB7_3App24calculate_preview_offsets1_0Bb_
FN:385,_RNCNvMs1_NtNtCs3Snzs7u97BX_4skim3tui3appNtB7_3App24calculate_preview_offsets2_0Bb_
FN:372,_RNCNvMs1_NtNtCs3Snzs7u97BX_4skim3tui3appNtB7_3App24calculate_preview_offsets_0Bb_
FN:1124,_RNCNvMs1_NtNtCs3Snzs7u97BX_4skim3tui3appNtB7_3App7results0Bb_
FN:323,_RNvMs0_NtNtCs3Snzs7u97BX_4skim3tui3appNtB5_3App12from_options
FN:1197,_RNvMs1_NtNtCs3Snzs7u97BX_4skim3tui3appNtB5_3App10expand_cmd
FN:623,_RNvMs1_NtNtCs3Snzs7u97BX_4skim3tui3appNtB5_3App10handle_key
FN:618,_RNvMs1_NtNtCs3Snzs7u97BX_4skim3tui3appNtB5_3App12handle_items
FN:651,_RNvMs1_NtNtCs3Snzs7u97BX_4skim3tui3appNtB5_3App13handle_action
FN:1275,_RNvMs1_NtNtCs3Snzs7u97BX_4skim3tui3appNtB5_3App14toggle_spinner
FN:419,_RNvMs1_NtNtCs3Snzs7u97BX_4skim3tui3appNtB5_3App14update_spinner
FN:1138,_RNvMs1_NtNtCs3Snzs7u97BX_4skim3tui3appNtB5_3App15restart_matcher
FN:392,_RNvMs1_NtNtCs3Snzs7u97BX_4skim3tui3appNtB5_3App16on_items_updated
FN:406,_RNvMs1_NtNtCs3Snzs7u97BX_4skim3tui3appNtB5_3App16on_query_changed
FN:401,_RNvMs1_NtNtCs3Snzs7u97BX_4skim3tui3appNtB5_3App20on_selection_changed
FN:362,_RNvMs1_NtNtCs3Snzs7u97BX_4skim3tui3appNtB5_3App24calculate_preview_offset
FN:1211,_RNvMs1_NtNtCs3Snzs7u97BX_4skim3tui3appNtB5_3App25restart_matcher_debounced
FN:1189,_RNvMs1_NtNtCs3Snzs7u97BX_4skim3tui3appNtB5_3App4yank
FN:1119,_RNvMs1_NtNtCs3Snzs7u97BX_4skim3tui3appNtB5_3App7results
FN:107,_RNvXNtNtCs3Snzs7u97BX_4skim3tui3appQNtB2_3AppNtNtNtCs4CtSrCeEHDB_12ratatui_core7widgets6widget6Widget6render
FN:280,_RNvXs_NtNtCs3Snzs7u97BX_4skim3tui3appNtB4_3AppNtNtCs3IJltBbNwOJ_4core7default7Default7default
FN:436,_RINvMs1_NtNtCs3Snzs7u97BX_4skim3tui3appNtB6_3App11run_previewNtNtNtCs4CtSrCeEHDB_12ratatui_core7backend4test11TestBackendECsjMtkzxvw6jX_5binds
FN:534,_RINvMs1_NtNtCs3Snzs7u97BX_4skim3tui3appNtB6_3App12handle_eventNtNtNtCs4CtSrCeEHDB_12ratatui_core7backend4test11TestBackendECsjMtkzxvw6jX_5binds
FN:1227,_RINvMs1_NtNtCs3Snzs7u97BX_4skim3tui3appNtB6_3App12handle_mouseNtNtNtCs4CtSrCeEHDB_12ratatui_core7backend4test11TestBackendECsjMtkzxvw6jX_5binds
FN:457,_RNCINvMs1_NtNtCs3Snzs7u97BX_4skim3tui3appNtB8_3App11run_previewNtNtNtCs4CtSrCeEHDB_12ratatui_core7backend4test11TestBackendE0CsjMtkzxvw6jX_5binds
FN:468,_RNCINvMs1_NtNtCs3Snzs7u97BX_4skim3tui3appNtB8_3App11run_previewNtNtNtCs4CtSrCeEHDB_12ratatui_core7backend4test11TestBackendEs0_0CsjMtkzxvw6jX_5binds
FN:472,_RNCINvMs1_NtNtCs3Snzs7u97BX_4skim3tui3appNtB8_3App11run_previewNtNtNtCs4CtSrCeEHDB_12ratatui_core7backend4test11TestBackendEs1_0CsjMtkzxvw6jX_5binds
FN:478,_RNCINvMs1_NtNtCs3Snzs7u97BX_4skim3tui3appNtB8_3App11run_previewNtNtNtCs4CtSrCeEHDB_12ratatui_core7backend4test11TestBackendEs2_0CsjMtkzxvw6jX_5binds
FN:522,_RNCINvMs1_NtNtCs3Snzs7u97BX_4skim3tui3appNtB8_3App11run_previewNtNtNtCs4CtSrCeEHDB_12ratatui_core7backend4test11TestBackendEs3_0CsjMtkzxvw6jX_5binds
FN:458,_RNCINvMs1_NtNtCs3Snzs7u97BX_4skim3tui3appNtB8_3App11run_previewNtNtNtCs4CtSrCeEHDB_12ratatui_core7backend4test11TestBackendEs_0CsjMtkzxvw6jX_5binds
FN:542,_RNCINvMs1_NtNtCs3Snzs7u97BX_4skim3tui3appNtB8_3App12handle_eventNtNtNtCs4CtSrCeEHDB_12ratatui_core7backend4test11TestBackendE0CsjMtkzxvw6jX_5binds
FN:436,_RINvMs1_NtNtCs3Snzs7u97BX_4skim3tui3appNtB6_3App11run_previewNtNtNtCs4CtSrCeEHDB_12ratatui_core7backend4test11TestBackendECsjZxsXVxeWnR_4case
FN:534,_RINvMs1_NtNtCs3Snzs7u97BX_4skim3tui3appNtB6_3App12handle_eventNtNtNtCs4CtSrCeEHDB_12ratatui_core7backend4test11TestBackendECsjZxsXVxeWnR_4case
FN:1227,_RINvMs1_NtNtCs3Snzs7u97BX_4skim3tui3appNtB6_3App12handle_mouseNtNtNtCs4CtSrCeEHDB_12ratatui_core7backend4test11TestBackendECsjZxsXVxeWnR_4case
FN:457,_RNCINvMs1_NtNtCs3Snzs7u97BX_4skim3tui3appNtB8_3App11run_previewNtNtNtCs4CtSrCeEHDB_12ratatui_core7backend4test11TestBackendE0CsjZxsXVxeWnR_4case
FN:468,_RNCINvMs1_NtNtCs3Snzs7u97BX_4skim3tui3appNtB8_3App11run_previewNtNtNtCs4CtSrCeEHDB_12ratatui_core7backend4test11TestBackendEs0_0CsjZxsXVxeWnR_4case
FN:472,_RNCINvMs1_NtNtCs3Snzs7u97BX_4skim3tui3appNtB8_3App11run_previewNtNtNtCs4CtSrCeEHDB_12ratatui_core7backend4test11TestBackendEs1_0CsjZxsXVxeWnR_4case
FN:478,_RNCINvMs1_NtNtCs3Snzs7u97BX_4skim3tui3appNtB8_3App11run_previewNtNtNtCs4CtSrCeEHDB_12ratatui_core7backend4test11TestBackendEs2_0CsjZxsXVxeWnR_4case
FN:522,_RNCINvMs1_NtNtCs3Snzs7u97BX_4skim3tui3appNtB8_3App11run_previewNtNtNtCs4CtSrCeEHDB_12ratatui_core7backend4test11TestBackendEs3_0CsjZxsXVxeWnR_4case
FN:458,_RNCINvMs1_NtNtCs3Snzs7u97BX_4skim3tui3appNtB8_3App11run_previewNtNtNtCs4CtSrCeEHDB_12ratatui_core7backend4test11TestBackendEs_0CsjZxsXVxeWnR_4case
FN:542,_RNCINvMs1_NtNtCs3Snzs7u97BX_4skim3tui3appNtB8_3App12handle_eventNtNtNtCs4CtSrCeEHDB_12ratatui_core7backend4test11TestBackendE0CsjZxsXVxeWnR_4case
FN:436,_RINvMs1_NtNtCs3Snzs7u97BX_4skim3tui3appNtB6_3App11run_previewNtNtNtCs4CtSrCeEHDB_12ratatui_core7backend4test11TestBackendECs7rs3rzKdeUa_8defaults
FN:534,_RINvMs1_NtNtCs3Snzs7u97BX_4skim3tui3appNtB6_3App12handle_eventNtNtNtCs4CtSrCeEHDB_12ratatui_core7backend4test11TestBackendECs7rs3rzKdeUa_8defaults
FN:1227,_RINvMs1_NtNtCs3Snzs7u97BX_4skim3tui3appNtB6_3App12handle_mouseNtNtNtCs4CtSrCeEHDB_12ratatui_core7backend4test11TestBackendECs7rs3rzKdeUa_8defaults
FN:457,_RNCINvMs1_NtNtCs3Snzs7u97BX_4skim3tui3appNtB8_3App11run_previewNtNtNtCs4CtSrCeEHDB_12ratatui_core7backend4test11TestBackendE0Cs7rs3rzKdeUa_8defaults
FN:468,_RNCINvMs1_NtNtCs3Snzs7u97BX_4skim3tui3appNtB8_3App11run_previewNtNtNtCs4CtSrCeEHDB_12ratatui_core7backend4test11TestBackendEs0_0Cs7rs3rzKdeUa_8defaults
FN:472,_RNCINvMs1_NtNtCs3Snzs7u97BX_4skim3tui3appNtB8_3App11run_previewNtNtNtCs4CtSrCeEHDB_12ratatui_core7backend4test11TestBackendEs1_0Cs7rs3rzKdeUa_8defaults
FN:478,_RNCINvMs1_NtNtCs3Snzs7u97BX_4skim3tui3appNtB8_3App11run_previewNtNtNtCs4CtSrCeEHDB_12ratatui_core7backend4test11TestBackendEs2_0Cs7rs3rzKdeUa_8defaults
FN:522,_RNCINvMs1_NtNtCs3Snzs7u97BX_4skim3tui3appNtB8_3App11run_previewNtNtNtCs4CtSrCeEHDB_12ratatui_core7backend4test11TestBackendEs3_0Cs7rs3rzKdeUa_8defaults
FN:458,_RNCINvMs1_NtNtCs3Snzs7u97BX_4skim3tui3appNtB8_3App11run_previewNtNtNtCs4CtSrCeEHDB_12ratatui_core7backend4test11TestBackendEs_0Cs7rs3rzKdeUa_8defaults
FN:542,_RNCINvMs1_NtNtCs3Snzs7u97BX_4skim3tui3appNtB8_3App12handle_eventNtNtNtCs4CtSrCeEHDB_12ratatui_core7backend4test11TestBackendE0Cs7rs3rzKdeUa_8defaults
FN:436,_RINvMs1_NtNtCs3Snzs7u97BX_4skim3tui3appNtB6_3App11run_previewNtNtNtCs4CtSrCeEHDB_12ratatui_core7backend4test11TestBackendECs8SL1o0vS7q8_6issues
FN:534,_RINvMs1_NtNtCs3Snzs7u97BX_4skim3tui3appNtB6_3App12handle_eventNtNtNtCs4CtSrCeEHDB_12ratatui_core7backend4test11TestBackendECs8SL1o0vS7q8_6issues
FN:1227,_RINvMs1_NtNtCs3Snzs7u97BX_4skim3tui3appNtB6_3App12handle_mouseNtNtNtCs4CtSrCeEHDB_12ratatui_core7backend4test11TestBackendECs8SL1o0vS7q8_6issues
FN:457,_RNCINvMs1_NtNtCs3Snzs7u97BX_4skim3tui3appNtB8_3App11run_previewNtNtNtCs4CtSrCeEHDB_12ratatui_core7backend4test11TestBackendE0Cs8SL1o0vS7q8_6issues
FN:468,_RNCINvMs1_NtNtCs3Snzs7u97BX_4skim3tui3appNtB8_3App11run_previewNtNtNtCs4CtSrCeEHDB_12ratatui_core7backend4test11TestBackendEs0_0Cs8SL1o0vS7q8_6issues
FN:472,_RNCINvMs1_NtNtCs3Snzs7u97BX_4skim3tui3appNtB8_3App11run_previewNtNtNtCs4CtSrCeEHDB_12ratatui_core7backend4test11TestBackendEs1_0Cs8SL1o0vS7q8_6issues
FN:478,_RNCINvMs1_NtNtCs3Snzs7u97BX_4skim3tui3appNtB8_3App11run_previewNtNtNtCs4CtSrCeEHDB_12ratatui_core7backend4test11TestBackendEs2_0Cs8SL1o0vS7q8_6issues
FN:522,_RNCINvMs1_NtNtCs3Snzs7u97BX_4skim3tui3appNtB8_3App11run_previewNtNtNtCs4CtSrCeEHDB_12ratatui_core7backend4test11TestBackendEs3_0Cs8SL1o0vS7q8_6issues
FN:458,_RNCINvMs1_NtNtCs3Snzs7u97BX_4skim3tui3appNtB8_3App11run_previewNtNtNtCs4CtSrCeEHDB_12ratatui_core7backend4test11TestBackendEs_0Cs8SL1o0vS7q8_6issues
FN:542,_RNCINvMs1_NtNtCs3Snzs7u97BX_4skim3tui3appNtB8_3App12handle_eventNtNtNtCs4CtSrCeEHDB_12ratatui_core7backend4test11TestBackendE0Cs8SL1o0vS7q8_6issues
FN:436,_RINvMs1_NtNtCs3Snzs7u97BX_4skim3tui3appNtB6_3App11run_previewNtNtNtCs4CtSrCeEHDB_12ratatui_core7backend4test11TestBackendECs7QtiJHxqkfB_4keys
FN:534,_RINvMs1_NtNtCs3Snzs7u97BX_4skim3tui3appNtB6_3App12handle_eventNtNtNtCs4CtSrCeEHDB_12ratatui_core7backend4test11TestBackendECs7QtiJHxqkfB_4keys
FN:1227,_RINvMs1_NtNtCs3Snzs7u97BX_4skim3tui3appNtB6_3App12handle_mouseNtNtNtCs4CtSrCeEHDB_12ratatui_core7backend4test11TestBackendECs7QtiJHxqkfB_4keys
FN:457,_RNCINvMs1_NtNtCs3Snzs7u97BX_4skim3tui3appNtB8_3App11run_previewNtNtNtCs4CtSrCeEHDB_12ratatui_core7backend4test11TestBackendE0Cs7QtiJHxqkfB_4keys
FN:468,_RNCINvMs1_NtNtCs3Snzs7u97BX_4skim3tui3appNtB8_3App11run_previewNtNtNtCs4CtSrCeEHDB_12ratatui_core7backend4test11TestBackendEs0_0Cs7QtiJHxqkfB_4keys
FN:472,_RNCINvMs1_NtNtCs3Snzs7u97BX_4skim3tui3appNtB8_3App11run_previewNtNtNtCs4CtSrCeEHDB_12ratatui_core7backend4test11TestBackendEs1_0Cs7QtiJHxqkfB_4keys
FN:478,_RNCINvMs1_NtNtCs3Snzs7u97BX_4skim3tui3appNtB8_3App11run_previewNtNtNtCs4CtSrCeEHDB_12ratatui_core7backend4test11TestBackendEs2_0Cs7QtiJHxqkfB_4keys
FN:522,_RNCINvMs1_NtNtCs3Snzs7u97BX_4skim3tui3appNtB8_3App11run_previewNtNtNtCs4CtSrCeEHDB_12ratatui_core7backend4test11TestBackendEs3_0Cs7QtiJHxqkfB_4keys
FN:458,_RNCINvMs1_NtNtCs3Snzs7u97BX_4skim3tui3appNtB8_3App11run_previewNtNtNtCs4CtSrCeEHDB_12ratatui_core7backend4test11TestBackendEs_0Cs7QtiJHxqkfB_4keys
FN:542,_RNCINvMs1_NtNtCs3Snzs7u97BX_4skim3tui3appNtB8_3App12handle_eventNtNtNtCs4CtSrCeEHDB_12ratatui_core7backend4test11TestBackendE0Cs7QtiJHxqkfB_4keys
FN:436,_RINvMs1_NtNtCs3Snzs7u97BX_4skim3tui3appNtB6_3App11run_previewNtNtNtCs4CtSrCeEHDB_12ratatui_core7backend4test11TestBackendECscGCI3e7M0l9_16keys_interactive
FN:534,_RINvMs1_NtNtCs3Snzs7u97BX_4skim3tui3appNtB6_3App12handle_eventNtNtNtCs4CtSrCeEHDB_12ratatui_core7backend4test11TestBackendECscGCI3e7M0l9_16keys_interactive
FN:1227,_RINvMs1_NtNtCs3Snzs7u97BX_4skim3tui3appNtB6_3App12handle_mouseNtNtNtCs4CtSrCeEHDB_12ratatui_core7backend4test11TestBackendECscGCI3e7M0l9_16keys_interactive
FN:457,_RNCINvMs1_NtNtCs3Snzs7u97BX_4skim3tui3appNtB8_3App11run_previewNtNtNtCs4CtSrCeEHDB_12ratatui_core7backend4test11TestBackendE0CscGCI3e7M0l9_16keys_interactive
FN:468,_RNCINvMs1_NtNtCs3Snzs7u97BX_4skim3tui3appNtB8_3App11run_previewNtNtNtCs4CtSrCeEHDB_12ratatui_core7backend4test11TestBackendEs0_0CscGCI3e7M0l9_16keys_interactive
FN:472,_RNCINvMs1_NtNtCs3Snzs7u97BX_4skim3tui3appNtB8_3App11run_previewNtNtNtCs4CtSrCeEHDB_12ratatui_core7backend4test11TestBackendEs1_0CscGCI3e7M0l9_16keys_interactive
FN:478,_RNCINvMs1_NtNtCs3Snzs7u97BX_4skim3tui3appNtB8_3App11run_previewNtNtNtCs4CtSrCeEHDB_12ratatui_core7backend4test11TestBackendEs2_0CscGCI3e7M0l9_16keys_interactive
FN:522,_RNCINvMs1_NtNtCs3Snzs7u97BX_4skim3tui3appNtB8_3App11run_previewNtNtNtCs4CtSrCeEHDB_12ratatui_core7backend4test11TestBackendEs3_0CscGCI3e7M0l9_16keys_interactive
FN:458,_RNCINvMs1_NtNtCs3Snzs7u97BX_4skim3tui3appNtB8_3App11run_previewNtNtNtCs4CtSrCeEHDB_12ratatui_core7backend4test11TestBackendEs_0CscGCI3e7M0l9_16keys_interactive
FN:542,_RNCINvMs1_NtNtCs3Snzs7u97BX_4skim3tui3appNtB8_3App12handle_eventNtNtNtCs4CtSrCeEHDB_12ratatui_core7backend4test11TestBackendE0CscGCI3e7M0l9_16keys_interactive
FN:436,_RINvMs1_NtNtCs3Snzs7u97BX_4skim3tui3appNtB6_3App11run_previewNtNtNtCs4CtSrCeEHDB_12ratatui_core7backend4test11TestBackendECscYgvKuNiZ3L_6layout
FN:534,_RINvMs1_NtNtCs3Snzs7u97BX_4skim3tui3appNtB6_3App12handle_eventNtNtNtCs4CtSrCeEHDB_12ratatui_core7backend4test11TestBackendECscYgvKuNiZ3L_6layout
FN:1227,_RINvMs1_NtNtCs3Snzs7u97BX_4skim3tui3appNtB6_3App12handle_mouseNtNtNtCs4CtSrCeEHDB_12ratatui_core7backend4test11TestBackendECscYgvKuNiZ3L_6layout
FN:457,_RNCINvMs1_NtNtCs3Snzs7u97BX_4skim3tui3appNtB8_3App11run_previewNtNtNtCs4CtSrCeEHDB_12ratatui_core7backend4test11TestBackendE0CscYgvKuNiZ3L_6layout
FN:468,_RNCINvMs1_NtNtCs3Snzs7u97BX_4skim3tui3appNtB8_3App11run_previewNtNtNtCs4CtSrCeEHDB_12ratatui_core7backend4test11TestBackendEs0_0CscYgvKuNiZ3L_6layout
FN:472,_RNCINvMs1_NtNtCs3Snzs7u97BX_4skim3tui3appNtB8_3App11run_previewNtNtNtCs4CtSrCeEHDB_12ratatui_core7backend4test11TestBackendEs1_0CscYgvKuNiZ3L_6layout
FN:478,_RNCINvMs1_NtNtCs3Snzs7u97BX_4skim3tui3appNtB8_3App11run_previewNtNtNtCs4CtSrCeEHDB_12ratatui_core7backend4test11TestBackendEs2_0CscYgvKuNiZ3L_6layout
FN:522,_RNCINvMs1_NtNtCs3Snzs7u97BX_4skim3tui3appNtB8_3App11run_previewNtNtNtCs4CtSrCeEHDB_12ratatui_core7backend4test11TestBackendEs3_0CscYgvKuNiZ3L_6layout
FN:458,_RNCINvMs1_NtNtCs3Snzs7u97BX_4skim3tui3appNtB8_3App11run_previewNtNtNtCs4CtSrCeEHDB_12ratatui_core7backend4test11TestBackendEs_0CscYgvKuNiZ3L_6layout
FN:542,_RNCINvMs1_NtNtCs3Snzs7u97BX_4skim3tui3appNtB8_3App12handle_eventNtNtNtCs4CtSrCeEHDB_12ratatui_core7backend4test11TestBackendE0CscYgvKuNiZ3L_6layout
FN:436,_RINvMs1_NtNtCs3Snzs7u97BX_4skim3tui3appNtB6_3App11run_previewNtNtNtCs4CtSrCeEHDB_12ratatui_core7backend4test11TestBackendECsajW3zP0EBjk_9normalize
FN:534,_RINvMs1_NtNtCs3Snzs7u97BX_4skim3tui3appNtB6_3App12handle_eventNtNtNtCs4CtSrCeEHDB_12ratatui_core7backend4test11TestBackendECsajW3zP0EBjk_9normalize
FN:1227,_RINvMs1_NtNtCs3Snzs7u97BX_4skim3tui3appNtB6_3App12handle_mouseNtNtNtCs4CtSrCeEHDB_12ratatui_core7backend4test11TestBackendECsajW3zP0EBjk_9normalize
FN:457,_RNCINvMs1_NtNtCs3Snzs7u97BX_4skim3tui3appNtB8_3App11run_previewNtNtNtCs4CtSrCeEHDB_12ratatui_core7backend4test11TestBackendE0CsajW3zP0EBjk_9normalize
FN:468,_RNCINvMs1_NtNtCs3Snzs7u97BX_4skim3tui3appNtB8_3App11run_previewNtNtNtCs4CtSrCeEHDB_12ratatui_core7backend4test11TestBackendEs0_0CsajW3zP0EBjk_9normalize
FN:472,_RNCINvMs1_NtNtCs3Snzs7u97BX_4skim3tui3appNtB8_3App11run_previewNtNtNtCs4CtSrCeEHDB_12ratatui_core7backend4test11TestBackendEs1_0CsajW3zP0EBjk_9normalize
FN:478,_RNCINvMs1_NtNtCs3Snzs7u97BX_4skim3tui3appNtB8_3App11run_previewNtNtNtCs4CtSrCeEHDB_12ratatui_core7backend4test11TestBackendEs2_0CsajW3zP0EBjk_9normalize
FN:522,_RNCINvMs1_NtNtCs3Snzs7u97BX_4skim3tui3appNtB8_3App11run_previewNtNtNtCs4CtSrCeEHDB_12ratatui_core7backend4test11TestBackendEs3_0CsajW3zP0EBjk_9normalize
FN:458,_RNCINvMs1_NtNtCs3Snzs7u97BX_4skim3tui3appNtB8_3App11run_previewNtNtNtCs4CtSrCeEHDB_12ratatui_core7backend4test11TestBackendEs_0CsajW3zP0EBjk_9normalize
FN:542,_RNCINvMs1_NtNtCs3Snzs7u97BX_4skim3tui3appNtB8_3App12handle_eventNtNtNtCs4CtSrCeEHDB_12ratatui_core7backend4test11TestBackendE0CsajW3zP0EBjk_9normalize
FN:436,_RINvMs1_NtNtCs3Snzs7u97BX_4skim3tui3appNtB6_3App11run_previewNtNtNtCs4CtSrCeEHDB_12ratatui_core7backend4test11TestBackendECs1KNxiT1fe8Y_7options
FN:534,_RINvMs1_NtNtCs3Snzs7u97BX_4skim3tui3appNtB6_3App12handle_eventNtNtNtCs4CtSrCeEHDB_12ratatui_core7backend4test11TestBackendECs1KNxiT1fe8Y_7options
FN:1227,_RINvMs1_NtNtCs3Snzs7u97BX_4skim3tui3appNtB6_3App12handle_mouseNtNtNtCs4CtSrCeEHDB_12ratatui_core7backend4test11TestBackendECs1KNxiT1fe8Y_7options
FN:457,_RNCINvMs1_NtNtCs3Snzs7u97BX_4skim3tui3appNtB8_3App11run_previewNtNtNtCs4CtSrCeEHDB_12ratatui_core7backend4test11TestBackendE0Cs1KNxiT1fe8Y_7options
FN:468,_RNCINvMs1_NtNtCs3Snzs7u97BX_4skim3tui3appNtB8_3App11run_previewNtNtNtCs4CtSrCeEHDB_12ratatui_core7backend4test11TestBackendEs0_0Cs1KNxiT1fe8Y_7options
FN:472,_RNCINvMs1_NtNtCs3Snzs7u97BX_4skim3tui3appNtB8_3App11run_previewNtNtNtCs4CtSrCeEHDB_12ratatui_core7backend4test11TestBackendEs1_0Cs1KNxiT1fe8Y_7options
FN:478,_RNCINvMs1_NtNtCs3Snzs7u97BX_4skim3tui3appNtB8_3App11run_previewNtNtNtCs4CtSrCeEHDB_12ratatui_core7backend4test11TestBackendEs2_0Cs1KNxiT1fe8Y_7options
FN:522,_RNCINvMs1_NtNtCs3Snzs7u97BX_4skim3tui3appNtB8_3App11run_previewNtNtNtCs4CtSrCeEHDB_12ratatui_core7backend4test11TestBackendEs3_0Cs1KNxiT1fe8Y_7options
FN:458,_RNCINvMs1_NtNtCs3Snzs7u97BX_4skim3tui3appNtB8_3App11run_previewNtNtNtCs4CtSrCeEHDB_12ratatui_core7backend4test11TestBackendEs_0Cs1KNxiT1fe8Y_7options
FN:542,_RNCINvMs1_NtNtCs3Snzs7u97BX_4skim3tui3appNtB8_3App12handle_eventNtNtNtCs4CtSrCeEHDB_12ratatui_core7backend4test11TestBackendE0Cs1KNxiT1fe8Y_7options
FN:436,_RINvMs1_NtNtCs3Snzs7u97BX_4skim3tui3appNtB6_3App11run_previewNtNtNtCs4CtSrCeEHDB_12ratatui_core7backend4test11TestBackendECs38oDVg7bgx1_7preview
FN:534,_RINvMs1_NtNtCs3Snzs7u97BX_4skim3tui3appNtB6_3App12handle_eventNtNtNtCs4CtSrCeEHDB_12ratatui_core7backend4test11TestBackendECs38oDVg7bgx1_7preview
FN:1227,_RINvMs1_NtNtCs3Snzs7u97BX_4skim3tui3appNtB6_3App12handle_mouseNtNtNtCs4CtSrCeEHDB_12ratatui_core7backend4test11TestBackendECs38oDVg7bgx1_7preview
FN:457,_RNCINvMs1_NtNtCs3Snzs7u97BX_4skim3tui3appNtB8_3App11run_previewNtNtNtCs4CtSrCeEHDB_12ratatui_core7backend4test11TestBackendE0Cs38oDVg7bgx1_7preview
FN:468,_RNCINvMs1_NtNtCs3Snzs7u97BX_4skim3tui3appNtB8_3App11run_previewNtNtNtCs4CtSrCeEHDB_12ratatui_core7backend4test11TestBackendEs0_0Cs38oDVg7bgx1_7preview
FN:472,_RNCINvMs1_NtNtCs3Snzs7u97BX_4skim3tui3appNtB8_3App11run_previewNtNtNtCs4CtSrCeEHDB_12ratatui_core7backend4test11TestBackendEs1_0Cs38oDVg7bgx1_7preview
FN:478,_RNCINvMs1_NtNtCs3Snzs7u97BX_4skim3tui3appNtB8_3App11run_previewNtNtNtCs4CtSrCeEHDB_12ratatui_core7backend4test11TestBackendEs2_0Cs38oDVg7bgx1_7preview
FN:522,_RNCINvMs1_NtNtCs3Snzs7u97BX_4skim3tui3appNtB8_3App11run_previewNtNtNtCs4CtSrCeEHDB_12ratatui_core7backend4test11TestBackendEs3_0Cs38oDVg7bgx1_7preview
FN:458,_RNCINvMs1_NtNtCs3Snzs7u97BX_4skim3tui3appNtB8_3App11run_previewNtNtNtCs4CtSrCeEHDB_12ratatui_core7backend4test11TestBackendEs_0Cs38oDVg7bgx1_7preview
FN:542,_RNCINvMs1_NtNtCs3Snzs7u97BX_4skim3tui3appNtB8_3App12handle_eventNtNtNtCs4CtSrCeEHDB_12ratatui_core7backend4test11TestBackendE0Cs38oDVg7bgx1_7preview
FN:436,_RINvMs1_NtNtCs2dRlemTKIe9_4skim3tui3appNtB6_3App11run_previewpEBa_
FN:534,_RINvMs1_NtNtCs2dRlemTKIe9_4skim3tui3appNtB6_3App12handle_eventpEBa_
FN:1227,_RINvMs1_NtNtCs2dRlemTKIe9_4skim3tui3appNtB6_3App12handle_mousepEBa_
FN:457,_RNCINvMs1_NtNtCs2dRlemTKIe9_4skim3tui3appNtB8_3App11run_previewpE0Bc_
FN:468,_RNCINvMs1_NtNtCs2dRlemTKIe9_4skim3tui3appNtB8_3App11run_previewpEs0_0Bc_
FN:472,_RNCINvMs1_NtNtCs2dRlemTKIe9_4skim3tui3appNtB8_3App11run_previewpEs1_0Bc_
FN:478,_RNCINvMs1_NtNtCs2dRlemTKIe9_4skim3tui3appNtB8_3App11run_previewpEs2_0Bc_
FN:522,_RNCINvMs1_NtNtCs2dRlemTKIe9_4skim3tui3appNtB8_3App11run_previewpEs3_0Bc_
FN:458,_RNCINvMs1_NtNtCs2dRlemTKIe9_4skim3tui3appNtB8_3App11run_previewpEs_0Bc_
FN:542,_RNCINvMs1_NtNtCs2dRlemTKIe9_4skim3tui3appNtB8_3App12handle_eventpE0Bc_
FN:1202,_RNCNvMs1_NtNtCs2dRlemTKIe9_4skim3tui3appNtB7_3App10expand_cmd0Bb_
FN:628,_RNCNvMs1_NtNtCs2dRlemTKIe9_4skim3tui3appNtB7_3App10handle_key0Bb_
FN:760,_RNCNvMs1_NtNtCs2dRlemTKIe9_4skim3tui3appNtB7_3App13handle_action0Bb_
FN:799,_RNCNvMs1_NtNtCs2dRlemTKIe9_4skim3tui3appNtB7_3App13handle_actions0_0Bb_
FN:806,_RNCNvMs1_NtNtCs2dRlemTKIe9_4skim3tui3appNtB7_3App13handle_actions1_0Bb_
FN:810,_RNCNvMs1_NtNtCs2dRlemTKIe9_4skim3tui3appNtB7_3App13handle_actions2_0Bb_
FN:817,_RNCNvMs1_NtNtCs2dRlemTKIe9_4skim3tui3appNtB7_3App13handle_actions3_0Bb_
FN:821,_RNCNvMs1_NtNtCs2dRlemTKIe9_4skim3tui3appNtB7_3App13handle_actions4_0Bb_
FN:1112,_RNCNvMs1_NtNtCs2dRlemTKIe9_4skim3tui3appNtB7_3App13handle_actions5_0Bb_
FN:795,_RNCNvMs1_NtNtCs2dRlemTKIe9_4skim3tui3appNtB7_3App13handle_actions_0Bb_
FN:1177,_RNCNvMs1_NtNtCs2dRlemTKIe9_4skim3tui3appNtB7_3App15restart_matcher0Bb_
FN:370,_RNCNvMs1_NtNtCs2dRlemTKIe9_4skim3tui3appNtB7_3App24calculate_preview_offset0Bb_
FN:377,_RNCNvMs1_NtNtCs2dRlemTKIe9_4skim3tui3appNtB7_3App24calculate_preview_offsets0_0Bb_
FN:379,_RNCNvMs1_NtNtCs2dRlemTKIe9_4skim3tui3appNtB7_3App24calculate_preview_offsets1_0Bb_
FN:385,_RNCNvMs1_NtNtCs2dRlemTKIe9_4skim3tui3appNtB7_3App24calculate_preview_offsets2_0Bb_
FN:372,_RNCNvMs1_NtNtCs2dRlemTKIe9_4skim3tui3appNtB7_3App24calculate_preview_offsets_0Bb_
FN:1124,_RNCNvMs1_NtNtCs2dRlemTKIe9_4skim3tui3appNtB7_3App7results0Bb_
FN:323,_RNvMs0_NtNtCs2dRlemTKIe9_4skim3tui3appNtB5_3App12from_options
FN:1197,_RNvMs1_NtNtCs2dRlemTKIe9_4skim3tui3appNtB5_3App10expand_cmd
FN:623,_RNvMs1_NtNtCs2dRlemTKIe9_4skim3tui3appNtB5_3App10handle_key
FN:618,_RNvMs1_NtNtCs2dRlemTKIe9_4skim3tui3appNtB5_3App12handle_items
FN:651,_RNvMs1_NtNtCs2dRlemTKIe9_4skim3tui3appNtB5_3App13handle_action
FN:1275,_RNvMs1_NtNtCs2dRlemTKIe9_4skim3tui3appNtB5_3App14toggle_spinner
FN:419,_RNvMs1_NtNtCs2dRlemTKIe9_4skim3tui3appNtB5_3App14update_spinner
FN:1138,_RNvMs1_NtNtCs2dRlemTKIe9_4skim3tui3appNtB5_3App15restart_matcher
FN:392,_RNvMs1_NtNtCs2dRlemTKIe9_4skim3tui3appNtB5_3App16on_items_updated
FN:406,_RNvMs1_NtNtCs2dRlemTKIe9_4skim3tui3appNtB5_3App16on_query_changed
FN:401,_RNvMs1_NtNtCs2dRlemTKIe9_4skim3tui3appNtB5_3App20on_selection_changed
FN:362,_RNvMs1_NtNtCs2dRlemTKIe9_4skim3tui3appNtB5_3App24calculate_preview_offset
FN:1211,_RNvMs1_NtNtCs2dRlemTKIe9_4skim3tui3appNtB5_3App25restart_matcher_debounced
FN:1189,_RNvMs1_NtNtCs2dRlemTKIe9_4skim3tui3appNtB5_3App4yank
FN:1119,_RNvMs1_NtNtCs2dRlemTKIe9_4skim3tui3appNtB5_3App7results
FN:107,_RNvXNtNtCs2dRlemTKIe9_4skim3tui3appQNtB2_3AppNtNtNtCs4CtSrCeEHDB_12ratatui_core7widgets6widget6Widget6render
FN:280,_RNvXs_NtNtCs2dRlemTKIe9_4skim3tui3appNtB4_3AppNtNtCs3IJltBbNwOJ_4core7default7Default7default
FN:436,_RINvMs1_NtNtCs3Snzs7u97BX_4skim3tui3appNtB6_3App11run_previewNtNtNtCs4CtSrCeEHDB_12ratatui_core7backend4test11TestBackendECsdYHrDtgrOQb_11split_match
FN:534,_RINvMs1_NtNtCs3Snzs7u97BX_4skim3tui3appNtB6_3App12handle_eventNtNtNtCs4CtSrCeEHDB_12ratatui_core7backend4test11TestBackendECsdYHrDtgrOQb_11split_match
FN:1227,_RINvMs1_NtNtCs3Snzs7u97BX_4skim3tui3appNtB6_3App12handle_mouseNtNtNtCs4CtSrCeEHDB_12ratatui_core7backend4test11TestBackendECsdYHrDtgrOQb_11split_match
FN:457,_RNCINvMs1_NtNtCs3Snzs7u97BX_4skim3tui3appNtB8_3App11run_previewNtNtNtCs4CtSrCeEHDB_12ratatui_core7backend4test11TestBackendE0CsdYHrDtgrOQb_11split_match
FN:468,_RNCINvMs1_NtNtCs3Snzs7u97BX_4skim3tui3appNtB8_3App11run_previewNtNtNtCs4CtSrCeEHDB_12ratatui_core7backend4test11TestBackendEs0_0CsdYHrDtgrOQb_11split_match
FN:472,_RNCINvMs1_NtNtCs3Snzs7u97BX_4skim3tui3appNtB8_3App11run_previewNtNtNtCs4CtSrCeEHDB_12ratatui_core7backend4test11TestBackendEs1_0CsdYHrDtgrOQb_11split_match
FN:478,_RNCINvMs1_NtNtCs3Snzs7u97BX_4skim3tui3appNtB8_3App11run_previewNtNtNtCs4CtSrCeEHDB_12ratatui_core7backend4test11TestBackendEs2_0CsdYHrDtgrOQb_11split_match
FN:522,_RNCINvMs1_NtNtCs3Snzs7u97BX_4skim3tui3appNtB8_3App11run_previewNtNtNtCs4CtSrCeEHDB_12ratatui_core7backend4test11TestBackendEs3_0CsdYHrDtgrOQb_11split_match
FN:458,_RNCINvMs1_NtNtCs3Snzs7u97BX_4skim3tui3appNtB8_3App11run_previewNtNtNtCs4CtSrCeEHDB_12ratatui_core7backend4test11TestBackendEs_0CsdYHrDtgrOQb_11split_match
FN:542,_RNCINvMs1_NtNtCs3Snzs7u97BX_4skim3tui3appNtB8_3App12handle_eventNtNtNtCs4CtSrCeEHDB_12ratatui_core7backend4test11TestBackendE0CsdYHrDtgrOQb_11split_match
FN:436,_RINvMs1_NtNtCs3Snzs7u97BX_4skim3tui3appNtB6_3App11run_previewNtNtNtCs4CtSrCeEHDB_12ratatui_core7backend4test11TestBackendECskazwg9rDpax_8tiebreak
FN:534,_RINvMs1_NtNtCs3Snzs7u97BX_4skim3tui3appNtB6_3App12handle_eventNtNtNtCs4CtSrCeEHDB_12ratatui_core7backend4test11TestBackendECskazwg9rDpax_8tiebreak
FN:1227,_RINvMs1_NtNtCs3Snzs7u97BX_4skim3tui3appNtB6_3App12handle_mouseNtNtNtCs4CtSrCeEHDB_12ratatui_core7backend4test11TestBackendECskazwg9rDpax_8tiebreak
FN:457,_RNCINvMs1_NtNtCs3Snzs7u97BX_4skim3tui3appNtB8_3App11run_previewNtNtNtCs4CtSrCeEHDB_12ratatui_core7backend4test11TestBackendE0Cskazwg9rDpax_8tiebreak
FN:468,_RNCINvMs1_NtNtCs3Snzs7u97BX_4skim3tui3appNtB8_3App11run_previewNtNtNtCs4CtSrCeEHDB_12ratatui_core7backend4test11TestBackendEs0_0Cskazwg9rDpax_8tiebreak
FN:472,_RNCINvMs1_NtNtCs3Snzs7u97BX_4skim3tui3appNtB8_3App11run_previewNtNtNtCs4CtSrCeEHDB_12ratatui_core7backend4test11TestBackendEs1_0Cskazwg9rDpax_8tiebreak
FN:478,_RNCINvMs1_NtNtCs3Snzs7u97BX_4skim3tui3appNtB8_3App11run_previewNtNtNtCs4CtSrCeEHDB_12ratatui_core7backend4test11TestBackendEs2_0Cskazwg9rDpax_8tiebreak
FN:522,_RNCINvMs1_NtNtCs3Snzs7u97BX_4skim3tui3appNtB8_3App11run_previewNtNtNtCs4CtSrCeEHDB_12ratatui_core7backend4test11TestBackendEs3_0Cskazwg9rDpax_8tiebreak
FN:458,_RNCINvMs1_NtNtCs3Snzs7u97BX_4skim3tui3appNtB8_3App11run_previewNtNtNtCs4CtSrCeEHDB_12ratatui_core7backend4test11TestBackendEs_0Cskazwg9rDpax_8tiebreak
FN:542,_RNCINvMs1_NtNtCs3Snzs7u97BX_4skim3tui3appNtB8_3App12handle_eventNtNtNtCs4CtSrCeEHDB_12ratatui_core7backend4test11TestBackendE0Cskazwg9rDpax_8tiebreak
FNDA:0,_RINvMs1_NtNtCs3Snzs7u97BX_4skim3tui3appNtB6_3App11run_previewNtNtNtCs4CtSrCeEHDB_12ratatui_core7backend4test11TestBackendECsh7ZzE9tTlqq_4ansi
FNDA:0,_RINvMs1_NtNtCs3Snzs7u97BX_4skim3tui3appNtB6_3App12handle_eventNtNtNtCs4CtSrCeEHDB_12ratatui_core7backend4test11TestBackendECsh7ZzE9tTlqq_4ansi
FNDA:0,_RINvMs1_NtNtCs3Snzs7u97BX_4skim3tui3appNtB6_3App12handle_mouseNtNtNtCs4CtSrCeEHDB_12ratatui_core7backend4test11TestBackendECsh7ZzE9tTlqq_4ansi
FNDA:0,_RNCINvMs1_NtNtCs3Snzs7u97BX_4skim3tui3appNtB8_3App11run_previewNtNtNtCs4CtSrCeEHDB_12ratatui_core7backend4test11TestBackendE0Csh7ZzE9tTlqq_4ansi
FNDA:0,_RNCINvMs1_NtNtCs3Snzs7u97BX_4skim3tui3appNtB8_3App11run_previewNtNtNtCs4CtSrCeEHDB_12ratatui_core7backend4test11TestBackendEs0_0Csh7ZzE9tTlqq_4ansi
FNDA:0,_RNCINvMs1_NtNtCs3Snzs7u97BX_4skim3tui3appNtB8_3App11run_previewNtNtNtCs4CtSrCeEHDB_12ratatui_core7backend4test11TestBackendEs1_0Csh7ZzE9tTlqq_4ansi
FNDA:0,_RNCINvMs1_NtNtCs3Snzs7u97BX_4skim3tui3appNtB8_3App11run_previewNtNtNtCs4CtSrCeEHDB_12ratatui_core7backend4test11TestBackendEs2_0Csh7ZzE9tTlqq_4ansi
FNDA:0,_RNCINvMs1_NtNtCs3Snzs7u97BX_4skim3tui3appNtB8_3App11run_previewNtNtNtCs4CtSrCeEHDB_12ratatui_core7backend4test11TestBackendEs3_0Csh7ZzE9tTlqq_4ansi
FNDA:0,_RNCINvMs1_NtNtCs3Snzs7u97BX_4skim3tui3appNtB8_3App11run_previewNtNtNtCs4CtSrCeEHDB_12ratatui_core7backend4test11TestBackendEs_0Csh7ZzE9tTlqq_4ansi
FNDA:0,_RNCINvMs1_NtNtCs3Snzs7u97BX_4skim3tui3appNtB8_3App12handle_eventNtNtNtCs4CtSrCeEHDB_12ratatui_core7backend4test11TestBackendE0Csh7ZzE9tTlqq_4ansi
FNDA:0,_RINvMs1_NtNtCs3Snzs7u97BX_4skim3tui3appNtB6_3App11run_previewINtCsa8sjCXQ6JGg_17ratatui_crossterm16CrosstermBackendINtNtNtNtCs5U62srxYbFV_3std2io8buffered9bufwriter9BufWriterNtNtB1W_5stdio6StderrEEEBa_
FNDA:0,_RINvMs1_NtNtCs3Snzs7u97BX_4skim3tui3appNtB6_3App12handle_eventINtCsa8sjCXQ6JGg_17ratatui_crossterm16CrosstermBackendINtNtNtNtCs5U62srxYbFV_3std2io8buffered9bufwriter9BufWriterNtNtB1X_5stdio6StderrEEEBa_
FNDA:0,_RINvMs1_NtNtCs3Snzs7u97BX_4skim3tui3appNtB6_3App12handle_mouseINtCsa8sjCXQ6JGg_17ratatui_crossterm16CrosstermBackendINtNtNtNtCs5U62srxYbFV_3std2io8buffered9bufwriter9BufWriterNtNtB1X_5stdio6StderrEEEBa_
FNDA:0,_RNCINvMs1_NtNtCs3Snzs7u97BX_4skim3tui3appNtB8_3App11run_previewINtCsa8sjCXQ6JGg_17ratatui_crossterm16CrosstermBackendINtNtNtNtCs5U62srxYbFV_3std2io8buffered9bufwriter9BufWriterNtNtB1Y_5stdio6StderrEEE0Bc_
FNDA:0,_RNCINvMs1_NtNtCs3Snzs7u97BX_4skim3tui3appNtB8_3App11run_previewINtCsa8sjCXQ6JGg_17ratatui_crossterm16CrosstermBackendINtNtNtNtCs5U62srxYbFV_3std2io8buffered9bufwriter9BufWriterNtNtB1Y_5stdio6StderrEEEs0_0Bc_
FNDA:0,_RNCINvMs1_NtNtCs3Snzs7u97BX_4skim3tui3appNtB8_3App11run_previewINtCsa8sjCXQ6JGg_17ratatui_crossterm16CrosstermBackendINtNtNtNtCs5U62srxYbFV_3std2io8buffered9bufwriter9BufWriterNtNtB1Y_5stdio6StderrEEEs1_0Bc_
FNDA:0,_RNCINvMs1_NtNtCs3Snzs7u97BX_4skim3tui3appNtB8_3App11run_previewINtCsa8sjCXQ6JGg_17ratatui_crossterm16CrosstermBackendINtNtNtNtCs5U62srxYbFV_3std2io8buffered9bufwriter9BufWriterNtNtB1Y_5stdio6StderrEEEs2_0Bc_
FNDA:0,_RNCINvMs1_NtNtCs3Snzs7u97BX_4skim3tui3appNtB8_3App11run_previewINtCsa8sjCXQ6JGg_17ratatui_crossterm16CrosstermBackendINtNtNtNtCs5U62srxYbFV_3std2io8buffered9bufwriter9BufWriterNtNtB1Y_5stdio6StderrEEEs3_0Bc_
FNDA:0,_RNCINvMs1_NtNtCs3Snzs7u97BX_4skim3tui3appNtB8_3App11run_previewINtCsa8sjCXQ6JGg_17ratatui_crossterm16CrosstermBackendINtNtNtNtCs5U62srxYbFV_3std2io8buffered9bufwriter9BufWriterNtNtB1Y_5stdio6StderrEEEs_0Bc_
FNDA:0,_RNCINvMs1_NtNtCs3Snzs7u97BX_4skim3tui3appNtB8_3App12handle_eventINtCsa8sjCXQ6JGg_17ratatui_crossterm16CrosstermBackendINtNtNtNtCs5U62srxYbFV_3std2io8buffered9bufwriter9BufWriterNtNtB1Z_5stdio6StderrEEE0Bc_
FNDA:0,_RNCNvMs1_NtNtCs3Snzs7u97BX_4skim3tui3appNtB7_3App10expand_cmd0Bb_
FNDA:0,_RNCNvMs1_NtNtCs3Snzs7u97BX_4skim3tui3appNtB7_3App10handle_key0Bb_
FNDA:0,_RNCNvMs1_NtNtCs3Snzs7u97BX_4skim3tui3appNtB7_3App13handle_action0Bb_
FNDA:0,_RNCNvMs1_NtNtCs3Snzs7u97BX_4skim3tui3appNtB7_3App13handle_actions0_0Bb_
FNDA:0,_RNCNvMs1_NtNtCs3Snzs7u97BX_4skim3tui3appNtB7_3App13handle_actions1_0Bb_
FNDA:0,_RNCNvMs1_NtNtCs3Snzs7u97BX_4skim3tui3appNtB7_3App13handle_actions2_0Bb_
FNDA:0,_RNCNvMs1_NtNtCs3Snzs7u97BX_4skim3tui3appNtB7_3App13handle_actions3_0Bb_
FNDA:0,_RNCNvMs1_NtNtCs3Snzs7u97BX_4skim3tui3appNtB7_3App13handle_actions4_0Bb_
FNDA:0,_RNCNvMs1_NtNtCs3Snzs7u97BX_4skim3tui3appNtB7_3App13handle_actions5_0Bb_
FNDA:0,_RNCNvMs1_NtNtCs3Snzs7u97BX_4skim3tui3appNtB7_3App13handle_actions_0Bb_
FNDA:0,_RNCNvMs1_NtNtCs3Snzs7u97BX_4skim3tui3appNtB7_3App15restart_matcher0Bb_
FNDA:0,_RNCNvMs1_NtNtCs3Snzs7u97BX_4skim3tui3appNtB7_3App24calculate_preview_offset0Bb_
FNDA:0,_RNCNvMs1_NtNtCs3Snzs7u97BX_4skim3tui3appNtB7_3App24calculate_preview_offsets0_0Bb_
FNDA:0,_RNCNvMs1_NtNtCs3Snzs7u97BX_4skim3tui3appNtB7_3App24calculate_preview_offsets1_0Bb_
FNDA:0,_RNCNvMs1_NtNtCs3Snzs7u97BX_4skim3tui3appNtB7_3App24calculate_preview_offsets2_0Bb_
FNDA:0,_RNCNvMs1_NtNtCs3Snzs7u97BX_4skim3tui3appNtB7_3App24calculate_preview_offsets_0Bb_
FNDA:0,_RNCNvMs1_NtNtCs3Snzs7u97BX_4skim3tui3appNtB7_3App7results0Bb_
FNDA:0,_RNvMs0_NtNtCs3Snzs7u97BX_4skim3tui3appNtB5_3App12from_options
FNDA:0,_RNvMs1_NtNtCs3Snzs7u97BX_4skim3tui3appNtB5_3App10expand_cmd
FNDA:0,_RNvMs1_NtNtCs3Snzs7u97BX_4skim3tui3appNtB5_3App10handle_key
FNDA:0,_RNvMs1_NtNtCs3Snzs7u97BX_4skim3tui3appNtB5_3App12handle_items
FNDA:0,_RNvMs1_NtNtCs3Snzs7u97BX_4skim3tui3appNtB5_3App13handle_action
FNDA:0,_RNvMs1_NtNtCs3Snzs7u97BX_4skim3tui3appNtB5_3App14toggle_spinner
FNDA:0,_RNvMs1_NtNtCs3Snzs7u97BX_4skim3tui3appNtB5_3App14update_spinner
FNDA:0,_RNvMs1_NtNtCs3Snzs7u97BX_4skim3tui3appNtB5_3App15restart_matcher
FNDA:0,_RNvMs1_NtNtCs3Snzs7u97BX_4skim3tui3appNtB5_3App16on_items_updated
FNDA:0,_RNvMs1_NtNtCs3Snzs7u97BX_4skim3tui3appNtB5_3App16on_query_changed
FNDA:0,_RNvMs1_NtNtCs3Snzs7u97BX_4skim3tui3appNtB5_3App20on_selection_changed
FNDA:0,_RNvMs1_NtNtCs3Snzs7u97BX_4skim3tui3appNtB5_3App24calculate_preview_offset
FNDA:0,_RNvMs1_NtNtCs3Snzs7u97BX_4skim3tui3appNtB5_3App25restart_matcher_debounced
FNDA:0,_RNvMs1_NtNtCs3Snzs7u97BX_4skim3tui3appNtB5_3App4yank
FNDA:0,_RNvMs1_NtNtCs3Snzs7u97BX_4skim3tui3appNtB5_3App7results
FNDA:0,_RNvXNtNtCs3Snzs7u97BX_4skim3tui3appQNtB2_3AppNtNtNtCs4CtSrCeEHDB_12ratatui_core7widgets6widget6Widget6render
FNDA:0,_RNvXs_NtNtCs3Snzs7u97BX_4skim3tui3appNtB4_3AppNtNtCs3IJltBbNwOJ_4core7default7Default7default
FNDA:0,_RINvMs1_NtNtCs3Snzs7u97BX_4skim3tui3appNtB6_3App11run_previewNtNtNtCs4CtSrCeEHDB_12ratatui_core7backend4test11TestBackendECsjMtkzxvw6jX_5binds
FNDA:0,_RINvMs1_NtNtCs3Snzs7u97BX_4skim3tui3appNtB6_3App12handle_eventNtNtNtCs4CtSrCeEHDB_12ratatui_core7backend4test11TestBackendECsjMtkzxvw6jX_5binds
FNDA:0,_RINvMs1_NtNtCs3Snzs7u97BX_4skim3tui3appNtB6_3App12handle_mouseNtNtNtCs4CtSrCeEHDB_12ratatui_core7backend4test11TestBackendECsjMtkzxvw6jX_5binds
FNDA:0,_RNCINvMs1_NtNtCs3Snzs7u97BX_4skim3tui3appNtB8_3App11run_previewNtNtNtCs4CtSrCeEHDB_12ratatui_core7backend4test11TestBackendE0CsjMtkzxvw6jX_5binds
FNDA:0,_RNCINvMs1_NtNtCs3Snzs7u97BX_4skim3tui3appNtB8_3App11run_previewNtNtNtCs4CtSrCeEHDB_12ratatui_core7backend4test11TestBackendEs0_0CsjMtkzxvw6jX_5binds
FNDA:0,_RNCINvMs1_NtNtCs3Snzs7u97BX_4skim3tui3appNtB8_3App11run_previewNtNtNtCs4CtSrCeEHDB_12ratatui_core7backend4test11TestBackendEs1_0CsjMtkzxvw6jX_5binds
FNDA:0,_RNCINvMs1_NtNtCs3Snzs7u97BX_4skim3tui3appNtB8_3App11run_previewNtNtNtCs4CtSrCeEHDB_12ratatui_core7backend4test11TestBackendEs2_0CsjMtkzxvw6jX_5binds
FNDA:0,_RNCINvMs1_NtNtCs3Snzs7u97BX_4skim3tui3appNtB8_3App11run_previewNtNtNtCs4CtSrCeEHDB_12ratatui_core7backend4test11TestBackendEs3_0CsjMtkzxvw6jX_5binds
FNDA:0,_RNCINvMs1_NtNtCs3Snzs7u97BX_4skim3tui3appNtB8_3App11run_previewNtNtNtCs4CtSrCeEHDB_12ratatui_core7backend4test11TestBackendEs_0CsjMtkzxvw6jX_5binds
FNDA:0,_RNCINvMs1_NtNtCs3Snzs7u97BX_4skim3tui3appNtB8_3App12handle_eventNtNtNtCs4CtSrCeEHDB_12ratatui_core7backend4test11TestBackendE0CsjMtkzxvw6jX_5binds
FNDA:0,_RINvMs1_NtNtCs3Snzs7u97BX_4skim3tui3appNtB6_3App11run_previewNtNtNtCs4CtSrCeEHDB_12ratatui_core7backend4test11TestBackendECsjZxsXVxeWnR_4case
FNDA:0,_RINvMs1_NtNtCs3Snzs7u97BX_4skim3tui3appNtB6_3App12handle_eventNtNtNtCs4CtSrCeEHDB_12ratatui_core7backend4test11TestBackendECsjZxsXVxeWnR_4case
FNDA:0,_RINvMs1_NtNtCs3Snzs7u97BX_4skim3tui3appNtB6_3App12handle_mouseNtNtNtCs4CtSrCeEHDB_12ratatui_core7backend4test11TestBackendECsjZxsXVxeWnR_4case
FNDA:0,_RNCINvMs1_NtNtCs3Snzs7u97BX_4skim3tui3appNtB8_3App11run_previewNtNtNtCs4CtSrCeEHDB_12ratatui_core7backend4test11TestBackendE0CsjZxsXVxeWnR_4case
FNDA:0,_RNCINvMs1_NtNtCs3Snzs7u97BX_4skim3tui3appNtB8_3App11run_previewNtNtNtCs4CtSrCeEHDB_12ratatui_core7backend4test11TestBackendEs0_0CsjZxsXVxeWnR_4case
FNDA:0,_RNCINvMs1_NtNtCs3Snzs7u97BX_4skim3tui3appNtB8_3App11run_previewNtNtNtCs4CtSrCeEHDB_12ratatui_core7backend4test11TestBackendEs1_0CsjZxsXVxeWnR_4case
FNDA:0,_RNCINvMs1_NtNtCs3Snzs7u97BX_4skim3tui3appNtB8_3App11run_previewNtNtNtCs4CtSrCeEHDB_12ratatui_core7backend4test11TestBackendEs2_0CsjZxsXVxeWnR_4case
FNDA:0,_RNCINvMs1_NtNtCs3Snzs7u97BX_4skim3tui3appNtB8_3App11run_previewNtNtNtCs4CtSrCeEHDB_12ratatui_core7backend4test11TestBackendEs3_0CsjZxsXVxeWnR_4case
FNDA:0,_RNCINvMs1_NtNtCs3Snzs7u97BX_4skim3tui3appNtB8_3App11run_previewNtNtNtCs4CtSrCeEHDB_12ratatui_core7backend4test11TestBackendEs_0CsjZxsXVxeWnR_4case
FNDA:0,_RNCINvMs1_NtNtCs3Snzs7u97BX_4skim3tui3appNtB8_3App12handle_eventNtNtNtCs4CtSrCeEHDB_12ratatui_core7backend4test11TestBackendE0CsjZxsXVxeWnR_4case
FNDA:0,_RINvMs1_NtNtCs3Snzs7u97BX_4skim3tui3appNtB6_3App11run_previewNtNtNtCs4CtSrCeEHDB_12ratatui_core7backend4test11TestBackendECs7rs3rzKdeUa_8defaults
FNDA:0,_RINvMs1_NtNtCs3Snzs7u97BX_4skim3tui3appNtB6_3App12handle_eventNtNtNtCs4CtSrCeEHDB_12ratatui_core7backend4test11TestBackendECs7rs3rzKdeUa_8defaults
FNDA:0,_RINvMs1_NtNtCs3Snzs7u97BX_4skim3tui3appNtB6_3App12handle_mouseNtNtNtCs4CtSrCeEHDB_12ratatui_core7backend4test11TestBackendECs7rs3rzKdeUa_8defaults
FNDA:0,_RNCINvMs1_NtNtCs3Snzs7u97BX_4skim3tui3appNtB8_3App11run_previewNtNtNtCs4CtSrCeEHDB_12ratatui_core7backend4test11TestBackendE0Cs7rs3rzKdeUa_8defaults
FNDA:0,_RNCINvMs1_NtNtCs3Snzs7u97BX_4skim3tui3appNtB8_3App11run_previewNtNtNtCs4CtSrCeEHDB_12ratatui_core7backend4test11TestBackendEs0_0Cs7rs3rzKdeUa_8defaults
FNDA:0,_RNCINvMs1_NtNtCs3Snzs7u97BX_4skim3tui3appNtB8_3App11run_previewNtNtNtCs4CtSrCeEHDB_12ratatui_core7backend4test11TestBackendEs1_0Cs7rs3rzKdeUa_8defaults
FNDA:0,_RNCINvMs1_NtNtCs3Snzs7u97BX_4skim3tui3appNtB8_3App11run_previewNtNtNtCs4CtSrCeEHDB_12ratatui_core7backend4test11TestBackendEs2_0Cs7rs3rzKdeUa_8defaults
FNDA:0,_RNCINvMs1_NtNtCs3Snzs7u97BX_4skim3tui3appNtB8_3App11run_previewNtNtNtCs4CtSrCeEHDB_12ratatui_core7backend4test11TestBackendEs3_0Cs7rs3rzKdeUa_8defaults
FNDA:0,_RNCINvMs1_NtNtCs3Snzs7u97BX_4skim3tui3appNtB8_3App11run_previewNtNtNtCs4CtSrCeEHDB_12ratatui_core7backend4test11TestBackendEs_0Cs7rs3rzKdeUa_8defaults
FNDA:0,_RNCINvMs1_NtNtCs3Snzs7u97BX_4skim3tui3appNtB8_3App12handle_eventNtNtNtCs4CtSrCeEHDB_12ratatui_core7backend4test11TestBackendE0Cs7rs3rzKdeUa_8defaults
FNDA:0,_RINvMs1_NtNtCs3Snzs7u97BX_4skim3tui3appNtB6_3App11run_previewNtNtNtCs4CtSrCeEHDB_12ratatui_core7backend4test11TestBackendECs8SL1o0vS7q8_6issues
FNDA:0,_RINvMs1_NtNtCs3Snzs7u97BX_4skim3tui3appNtB6_3App12handle_eventNtNtNtCs4CtSrCeEHDB_12ratatui_core7backend4test11TestBackendECs8SL1o0vS7q8_6issues
FNDA:0,_RINvMs1_NtNtCs3Snzs7u97BX_4skim3tui3appNtB6_3App12handle_mouseNtNtNtCs4CtSrCeEHDB_12ratatui_core7backend4test11TestBackendECs8SL1o0vS7q8_6issues
FNDA:0,_RNCINvMs1_NtNtCs3Snzs7u97BX_4skim3tui3appNtB8_3App11run_previewNtNtNtCs4CtSrCeEHDB_12ratatui_core7backend4test11TestBackendE0Cs8SL1o0vS7q8_6issues
FNDA:0,_RNCINvMs1_NtNtCs3Snzs7u97BX_4skim3tui3appNtB8_3App11run_previewNtNtNtCs4CtSrCeEHDB_12ratatui_core7backend4test11TestBackendEs0_0Cs8SL1o0vS7q8_6issues
FNDA:0,_RNCINvMs1_NtNtCs3Snzs7u97BX_4skim3tui3appNtB8_3App11run_previewNtNtNtCs4CtSrCeEHDB_12ratatui_core7backend4test11TestBackendEs1_0Cs8SL1o0vS7q8_6issues
FNDA:0,_RNCINvMs1_NtNtCs3Snzs7u97BX_4skim3tui3appNtB8_3App11run_previewNtNtNtCs4CtSrCeEHDB_12ratatui_core7backend4test11TestBackendEs2_0Cs8SL1o0vS7q8_6issues
FNDA:0,_RNCINvMs1_NtNtCs3Snzs7u97BX_4skim3tui3appNtB8_3App11run_previewNtNtNtCs4CtSrCeEHDB_12ratatui_core7backend4test11TestBackendEs3_0Cs8SL1o0vS7q8_6issues
FNDA:0,_RNCINvMs1_NtNtCs3Snzs7u97BX_4skim3tui3appNtB8_3App11run_previewNtNtNtCs4CtSrCeEHDB_12ratatui_core7backend4test11TestBackendEs_0Cs8SL1o0vS7q8_6issues
FNDA:0,_RNCINvMs1_NtNtCs3Snzs7u97BX_4skim3tui3appNtB8_3App12handle_eventNtNtNtCs4CtSrCeEHDB_12ratatui_core7backend4test11TestBackendE0Cs8SL1o0vS7q8_6issues
FNDA:0,_RINvMs1_NtNtCs3Snzs7u97BX_4skim3tui3appNtB6_3App11run_previewNtNtNtCs4CtSrCeEHDB_12ratatui_core7backend4test11TestBackendECs7QtiJHxqkfB_4keys
FNDA:0,_RINvMs1_NtNtCs3Snzs7u97BX_4skim3tui3appNtB6_3App12handle_eventNtNtNtCs4CtSrCeEHDB_12ratatui_core7backend4test11TestBackendECs7QtiJHxqkfB_4keys
FNDA:0,_RINvMs1_NtNtCs3Snzs7u97BX_4skim3tui3appNtB6_3App12handle_mouseNtNtNtCs4CtSrCeEHDB_12ratatui_core7backend4test11TestBackendECs7QtiJHxqkfB_4keys
FNDA:0,_RNCINvMs1_NtNtCs3Snzs7u97BX_4skim3tui3appNtB8_3App11run_previewNtNtNtCs4CtSrCeEHDB_12ratatui_core7backend4test11TestBackendE0Cs7QtiJHxqkfB_4keys
FNDA:0,_RNCINvMs1_NtNtCs3Snzs7u97BX_4skim3tui3appNtB8_3App11run_previewNtNtNtCs4CtSrCeEHDB_12ratatui_core7backend4test11TestBackendEs0_0Cs7QtiJHxqkfB_4keys
FNDA:0,_RNCINvMs1_NtNtCs3Snzs7u97BX_4skim3tui3appNtB8_3App11run_previewNtNtNtCs4CtSrCeEHDB_12ratatui_core7backend4test11TestBackendEs1_0Cs7QtiJHxqkfB_4keys
FNDA:0,_RNCINvMs1_NtNtCs3Snzs7u97BX_4skim3tui3appNtB8_3App11run_previewNtNtNtCs4CtSrCeEHDB_12ratatui_core7backend4test11TestBackendEs2_0Cs7QtiJHxqkfB_4keys
FNDA:0,_RNCINvMs1_NtNtCs3Snzs7u97BX_4skim3tui3appNtB8_3App11run_previewNtNtNtCs4CtSrCeEHDB_12ratatui_core7backend4test11TestBackendEs3_0Cs7QtiJHxqkfB_4keys
FNDA:0,_RNCINvMs1_NtNtCs3Snzs7u97BX_4skim3tui3appNtB8_3App11run_previewNtNtNtCs4CtSrCeEHDB_12ratatui_core7backend4test11TestBackendEs_0Cs7QtiJHxqkfB_4keys
FNDA:0,_RNCINvMs1_NtNtCs3Snzs7u97BX_4skim3tui3appNtB8_3App12handle_eventNtNtNtCs4CtSrCeEHDB_12ratatui_core7backend4test11TestBackendE0Cs7QtiJHxqkfB_4keys
FNDA:0,_RINvMs1_NtNtCs3Snzs7u97BX_4skim3tui3appNtB6_3App11run_previewNtNtNtCs4CtSrCeEHDB_12ratatui_core7backend4test11TestBackendECscGCI3e7M0l9_16keys_interactive
FNDA:0,_RINvMs1_NtNtCs3Snzs7u97BX_4skim3tui3appNtB6_3App12handle_eventNtNtNtCs4CtSrCeEHDB_12ratatui_core7backend4test11TestBackendECscGCI3e7M0l9_16keys_interactive
FNDA:0,_RINvMs1_NtNtCs3Snzs7u97BX_4skim3tui3appNtB6_3App12handle_mouseNtNtNtCs4CtSrCeEHDB_12ratatui_core7backend4test11TestBackendECscGCI3e7M0l9_16keys_interactive
FNDA:0,_RNCINvMs1_NtNtCs3Snzs7u97BX_4skim3tui3appNtB8_3App11run_previewNtNtNtCs4CtSrCeEHDB_12ratatui_core7backend4test11TestBackendE0CscGCI3e7M0l9_16keys_interactive
FNDA:0,_RNCINvMs1_NtNtCs3Snzs7u97BX_4skim3tui3appNtB8_3App11run_previewNtNtNtCs4CtSrCeEHDB_12ratatui_core7backend4test11TestBackendEs0_0CscGCI3e7M0l9_16keys_interactive
FNDA:0,_RNCINvMs1_NtNtCs3Snzs7u97BX_4skim3tui3appNtB8_3App11run_previewNtNtNtCs4CtSrCeEHDB_12ratatui_core7backend4test11TestBackendEs1_0CscGCI3e7M0l9_16keys_interactive
FNDA:0,_RNCINvMs1_NtNtCs3Snzs7u97BX_4skim3tui3appNtB8_3App11run_previewNtNtNtCs4CtSrCeEHDB_12ratatui_core7backend4test11TestBackendEs2_0CscGCI3e7M0l9_16keys_interactive
FNDA:0,_RNCINvMs1_NtNtCs3Snzs7u97BX_4skim3tui3appNtB8_3App11run_previewNtNtNtCs4CtSrCeEHDB_12ratatui_core7backend4test11TestBackendEs3_0CscGCI3e7M0l9_16keys_interactive
FNDA:0,_RNCINvMs1_NtNtCs3Snzs7u97BX_4skim3tui3appNtB8_3App11run_previewNtNtNtCs4CtSrCeEHDB_12ratatui_core7backend4test11TestBackendEs_0CscGCI3e7M0l9_16keys_interactive
FNDA:0,_RNCINvMs1_NtNtCs3Snzs7u97BX_4skim3tui3appNtB8_3App12handle_eventNtNtNtCs4CtSrCeEHDB_12ratatui_core7backend4test11TestBackendE0CscGCI3e7M0l9_16keys_interactive
FNDA:0,_RINvMs1_NtNtCs3Snzs7u97BX_4skim3tui3appNtB6_3App11run_previewNtNtNtCs4CtSrCeEHDB_12ratatui_core7backend4test11TestBackendECscYgvKuNiZ3L_6layout
FNDA:0,_RINvMs1_NtNtCs3Snzs7u97BX_4skim3tui3appNtB6_3App12handle_eventNtNtNtCs4CtSrCeEHDB_12ratatui_core7backend4test11TestBackendECscYgvKuNiZ3L_6layout
FNDA:0,_RINvMs1_NtNtCs3Snzs7u97BX_4skim3tui3appNtB6_3App12handle_mouseNtNtNtCs4CtSrCeEHDB_12ratatui_core7backend4test11TestBackendECscYgvKuNiZ3L_6layout
FNDA:0,_RNCINvMs1_NtNtCs3Snzs7u97BX_4skim3tui3appNtB8_3App11run_previewNtNtNtCs4CtSrCeEHDB_12ratatui_core7backend4test11TestBackendE0CscYgvKuNiZ3L_6layout
FNDA:0,_RNCINvMs1_NtNtCs3Snzs7u97BX_4skim3tui3appNtB8_3App11run_previewNtNtNtCs4CtSrCeEHDB_12ratatui_core7backend4test11TestBackendEs0_0CscYgvKuNiZ3L_6layout
FNDA:0,_RNCINvMs1_NtNtCs3Snzs7u97BX_4skim3tui3appNtB8_3App11run_previewNtNtNtCs4CtSrCeEHDB_12ratatui_core7backend4test11TestBackendEs1_0CscYgvKuNiZ3L_6layout
FNDA:0,_RNCINvMs1_NtNtCs3Snzs7u97BX_4skim3tui3appNtB8_3App11run_previewNtNtNtCs4CtSrCeEHDB_12ratatui_core7backend4test11TestBackendEs2_0CscYgvKuNiZ3L_6layout
FNDA:0,_RNCINvMs1_NtNtCs3Snzs7u97BX_4skim3tui3appNtB8_3App11run_previewNtNtNtCs4CtSrCeEHDB_12ratatui_core7backend4test11TestBackendEs3_0CscYgvKuNiZ3L_6layout
FNDA:0,_RNCINvMs1_NtNtCs3Snzs7u97BX_4skim3tui3appNtB8_3App11run_previewNtNtNtCs4CtSrCeEHDB_12ratatui_core7backend4test11TestBackendEs_0CscYgvKuNiZ3L_6layout
FNDA:0,_RNCINvMs1_NtNtCs3Snzs7u97BX_4skim3tui3appNtB8_3App12handle_eventNtNtNtCs4CtSrCeEHDB_12ratatui_core7backend4test11TestBackendE0CscYgvKuNiZ3L_6layout
FNDA:0,_RINvMs1_NtNtCs3Snzs7u97BX_4skim3tui3appNtB6_3App11run_previewNtNtNtCs4CtSrCeEHDB_12ratatui_core7backend4test11TestBackendECsajW3zP0EBjk_9normalize
FNDA:0,_RINvMs1_NtNtCs3Snzs7u97BX_4skim3tui3appNtB6_3App12handle_eventNtNtNtCs4CtSrCeEHDB_12ratatui_core7backend4test11TestBackendECsajW3zP0EBjk_9normalize
FNDA:0,_RINvMs1_NtNtCs3Snzs7u97BX_4skim3tui3appNtB6_3App12handle_mouseNtNtNtCs4CtSrCeEHDB_12ratatui_core7backend4test11TestBackendECsajW3zP0EBjk_9normalize
FNDA:0,_RNCINvMs1_NtNtCs3Snzs7u97BX_4skim3tui3appNtB8_3App11run_previewNtNtNtCs4CtSrCeEHDB_12ratatui_core7backend4test11TestBackendE0CsajW3zP0EBjk_9normalize
FNDA:0,_RNCINvMs1_NtNtCs3Snzs7u97BX_4skim3tui3appNtB8_3App11run_previewNtNtNtCs4CtSrCeEHDB_12ratatui_core7backend4test11TestBackendEs0_0CsajW3zP0EBjk_9normalize
FNDA:0,_RNCINvMs1_NtNtCs3Snzs7u97BX_4skim3tui3appNtB8_3App11run_previewNtNtNtCs4CtSrCeEHDB_12ratatui_core7backend4test11TestBackendEs1_0CsajW3zP0EBjk_9normalize
FNDA:0,_RNCINvMs1_NtNtCs3Snzs7u97BX_4skim3tui3appNtB8_3App11run_previewNtNtNtCs4CtSrCeEHDB_12ratatui_core7backend4test11TestBackendEs2_0CsajW3zP0EBjk_9normalize
FNDA:0,_RNCINvMs1_NtNtCs3Snzs7u97BX_4skim3tui3appNtB8_3App11run_previewNtNtNtCs4CtSrCeEHDB_12ratatui_core7backend4test11TestBackendEs3_0CsajW3zP0EBjk_9normalize
FNDA:0,_RNCINvMs1_NtNtCs3Snzs7u97BX_4skim3tui3appNtB8_3App11run_previewNtNtNtCs4CtSrCeEHDB_12ratatui_core7backend4test11TestBackendEs_0CsajW3zP0EBjk_9normalize
FNDA:0,_RNCINvMs1_NtNtCs3Snzs7u97BX_4skim3tui3appNtB8_3App12handle_eventNtNtNtCs4CtSrCeEHDB_12ratatui_core7backend4test11TestBackendE0CsajW3zP0EBjk_9normalize
FNDA:0,_RINvMs1_NtNtCs3Snzs7u97BX_4skim3tui3appNtB6_3App11run_previewNtNtNtCs4CtSrCeEHDB_12ratatui_core7backend4test11TestBackendECs1KNxiT1fe8Y_7options
FNDA:0,_RINvMs1_NtNtCs3Snzs7u97BX_4skim3tui3appNtB6_3App12handle_eventNtNtNtCs4CtSrCeEHDB_12ratatui_core7backend4test11TestBackendECs1KNxiT1fe8Y_7options
FNDA:0,_RINvMs1_NtNtCs3Snzs7u97BX_4skim3tui3appNtB6_3App12handle_mouseNtNtNtCs4CtSrCeEHDB_12ratatui_core7backend4test11TestBackendECs1KNxiT1fe8Y_7options
FNDA:0,_RNCINvMs1_NtNtCs3Snzs7u97BX_4skim3tui3appNtB8_3App11run_previewNtNtNtCs4CtSrCeEHDB_12ratatui_core7backend4test11TestBackendE0Cs1KNxiT1fe8Y_7options
FNDA:0,_RNCINvMs1_NtNtCs3Snzs7u97BX_4skim3tui3appNtB8_3App11run_previewNtNtNtCs4CtSrCeEHDB_12ratatui_core7backend4test11TestBackendEs0_0Cs1KNxiT1fe8Y_7options
FNDA:0,_RNCINvMs1_NtNtCs3Snzs7u97BX_4skim3tui3appNtB8_3App11run_previewNtNtNtCs4CtSrCeEHDB_12ratatui_core7backend4test11TestBackendEs1_0Cs1KNxiT1fe8Y_7options
FNDA:0,_RNCINvMs1_NtNtCs3Snzs7u97BX_4skim3tui3appNtB8_3App11run_previewNtNtNtCs4CtSrCeEHDB_12ratatui_core7backend4test11TestBackendEs2_0Cs1KNxiT1fe8Y_7options
FNDA:0,_RNCINvMs1_NtNtCs3Snzs7u97BX_4skim3tui3appNtB8_3App11run_previewNtNtNtCs4CtSrCeEHDB_12ratatui_core7backend4test11TestBackendEs3_0Cs1KNxiT1fe8Y_7options
FNDA:0,_RNCINvMs1_NtNtCs3Snzs7u97BX_4skim3tui3appNtB8_3App11run_previewNtNtNtCs4CtSrCeEHDB_12ratatui_core7backend4test11TestBackendEs_0Cs1KNxiT1fe8Y_7options
FNDA:0,_RNCINvMs1_NtNtCs3Snzs7u97BX_4skim3tui3appNtB8_3App12handle_eventNtNtNtCs4CtSrCeEHDB_12ratatui_core7backend4test11TestBackendE0Cs1KNxiT1fe8Y_7options
FNDA:0,_RINvMs1_NtNtCs3Snzs7u97BX_4skim3tui3appNtB6_3App11run_previewNtNtNtCs4CtSrCeEHDB_12ratatui_core7backend4test11TestBackendECs38oDVg7bgx1_7preview
FNDA:0,_RINvMs1_NtNtCs3Snzs7u97BX_4skim3tui3appNtB6_3App12handle_eventNtNtNtCs4CtSrCeEHDB_12ratatui_core7backend4test11TestBackendECs38oDVg7bgx1_7preview
FNDA:0,_RINvMs1_NtNtCs3Snzs7u97BX_4skim3tui3appNtB6_3App12handle_mouseNtNtNtCs4CtSrCeEHDB_12ratatui_core7backend4test11TestBackendECs38oDVg7bgx1_7preview
FNDA:0,_RNCINvMs1_NtNtCs3Snzs7u97BX_4skim3tui3appNtB8_3App11run_previewNtNtNtCs4CtSrCeEHDB_12ratatui_core7backend4test11TestBackendE0Cs38oDVg7bgx1_7preview
FNDA:0,_RNCINvMs1_NtNtCs3Snzs7u97BX_4skim3tui3appNtB8_3App11run_previewNtNtNtCs4CtSrCeEHDB_12ratatui_core7backend4test11TestBackendEs0_0Cs38oDVg7bgx1_7preview
FNDA:0,_RNCINvMs1_NtNtCs3Snzs7u97BX_4skim3tui3appNtB8_3App11run_previewNtNtNtCs4CtSrCeEHDB_12ratatui_core7backend4test11TestBackendEs1_0Cs38oDVg7bgx1_7preview
FNDA:0,_RNCINvMs1_NtNtCs3Snzs7u97BX_4skim3tui3appNtB8_3App11run_previewNtNtNtCs4CtSrCeEHDB_12ratatui_core7backend4test11TestBackendEs2_0Cs38oDVg7bgx1_7preview
FNDA:0,_RNCINvMs1_NtNtCs3Snzs7u97BX_4skim3tui3appNtB8_3App11run_previewNtNtNtCs4CtSrCeEHDB_12ratatui_core7backend4test11TestBackendEs3_0Cs38oDVg7bgx1_7preview
FNDA:0,_RNCINvMs1_NtNtCs3Snzs7u97BX_4skim3tui3appNtB8_3App11run_previewNtNtNtCs4CtSrCeEHDB_12ratatui_core7backend4test11TestBackendEs_0Cs38oDVg7bgx1_7preview
FNDA:0,_RNCINvMs1_NtNtCs3Snzs7u97BX_4skim3tui3appNtB8_3App12handle_eventNtNtNtCs4CtSrCeEHDB_12ratatui_core7backend4test11TestBackendE0Cs38oDVg7bgx1_7preview
FNDA:0,_RINvMs1_NtNtCs2dRlemTKIe9_4skim3tui3appNtB6_3App11run_previewpEBa_
FNDA:0,_RINvMs1_NtNtCs2dRlemTKIe9_4skim3tui3appNtB6_3App12handle_eventpEBa_
FNDA:0,_RINvMs1_NtNtCs2dRlemTKIe9_4skim3tui3appNtB6_3App12handle_mousepEBa_
FNDA:0,_RNCINvMs1_NtNtCs2dRlemTKIe9_4skim3tui3appNtB8_3App11run_previewpE0Bc_
FNDA:0,_RNCINvMs1_NtNtCs2dRlemTKIe9_4skim3tui3appNtB8_3App11run_previewpEs0_0Bc_
FNDA:0,_RNCINvMs1_NtNtCs2dRlemTKIe9_4skim3tui3appNtB8_3App11run_previewpEs1_0Bc_
FNDA:0,_RNCINvMs1_NtNtCs2dRlemTKIe9_4skim3tui3appNtB8_3App11run_previewpEs2_0Bc_
FNDA:0,_RNCINvMs1_NtNtCs2dRlemTKIe9_4skim3tui3appNtB8_3App11run_previewpEs3_0Bc_
FNDA:0,_RNCINvMs1_NtNtCs2dRlemTKIe9_4skim3tui3appNtB8_3App11run_previewpEs_0Bc_
FNDA:0,_RNCINvMs1_NtNtCs2dRlemTKIe9_4skim3tui3appNtB8_3App12handle_eventpE0Bc_
FNDA:0,_RNCNvMs1_NtNtCs2dRlemTKIe9_4skim3tui3appNtB7_3App10expand_cmd0Bb_
FNDA:0,_RNCNvMs1_NtNtCs2dRlemTKIe9_4skim3tui3appNtB7_3App10handle_key0Bb_
FNDA:0,_RNCNvMs1_NtNtCs2dRlemTKIe9_4skim3tui3appNtB7_3App13handle_action0Bb_
FNDA:0,_RNCNvMs1_NtNtCs2dRlemTKIe9_4skim3tui3appNtB7_3App13handle_actions0_0Bb_
FNDA:0,_RNCNvMs1_NtNtCs2dRlemTKIe9_4skim3tui3appNtB7_3App13handle_actions1_0Bb_
FNDA:0,_RNCNvMs1_NtNtCs2dRlemTKIe9_4skim3tui3appNtB7_3App13handle_actions2_0Bb_
FNDA:0,_RNCNvMs1_NtNtCs2dRlemTKIe9_4skim3tui3appNtB7_3App13handle_actions3_0Bb_
FNDA:0,_RNCNvMs1_NtNtCs2dRlemTKIe9_4skim3tui3appNtB7_3App13handle_actions4_0Bb_
FNDA:0,_RNCNvMs1_NtNtCs2dRlemTKIe9_4skim3tui3appNtB7_3App13handle_actions5_0Bb_
FNDA:0,_RNCNvMs1_NtNtCs2dRlemTKIe9_4skim3tui3appNtB7_3App13handle_actions_0Bb_
FNDA:0,_RNCNvMs1_NtNtCs2dRlemTKIe9_4skim3tui3appNtB7_3App15restart_matcher0Bb_
FNDA:0,_RNCNvMs1_NtNtCs2dRlemTKIe9_4skim3tui3appNtB7_3App24calculate_preview_offset0Bb_
FNDA:0,_RNCNvMs1_NtNtCs2dRlemTKIe9_4skim3tui3appNtB7_3App24calculate_preview_offsets0_0Bb_
FNDA:0,_RNCNvMs1_NtNtCs2dRlemTKIe9_4skim3tui3appNtB7_3App24calculate_preview_offsets1_0Bb_
FNDA:0,_RNCNvMs1_NtNtCs2dRlemTKIe9_4skim3tui3appNtB7_3App24calculate_preview_offsets2_0Bb_
FNDA:0,_RNCNvMs1_NtNtCs2dRlemTKIe9_4skim3tui3appNtB7_3App24calculate_preview_offsets_0Bb_
FNDA:0,_RNCNvMs1_NtNtCs2dRlemTKIe9_4skim3tui3appNtB7_3App7results0Bb_
FNDA:0,_RNvMs0_NtNtCs2dRlemTKIe9_4skim3tui3appNtB5_3App12from_options
FNDA:0,_RNvMs1_NtNtCs2dRlemTKIe9_4skim3tui3appNtB5_3App10expand_cmd
FNDA:0,_RNvMs1_NtNtCs2dRlemTKIe9_4skim3tui3appNtB5_3App10handle_key
FNDA:0,_RNvMs1_NtNtCs2dRlemTKIe9_4skim3tui3appNtB5_3App12handle_items
FNDA:0,_RNvMs1_NtNtCs2dRlemTKIe9_4skim3tui3appNtB5_3App13handle_action
FNDA:0,_RNvMs1_NtNtCs2dRlemTKIe9_4skim3tui3appNtB5_3App14toggle_spinner
FNDA:0,_RNvMs1_NtNtCs2dRlemTKIe9_4skim3tui3appNtB5_3App14update_spinner
FNDA:0,_RNvMs1_NtNtCs2dRlemTKIe9_4skim3tui3appNtB5_3App15restart_matcher
FNDA:0,_RNvMs1_NtNtCs2dRlemTKIe9_4skim3tui3appNtB5_3App16on_items_updated
FNDA:0,_RNvMs1_NtNtCs2dRlemTKIe9_4skim3tui3appNtB5_3App16on_query_changed
FNDA:0,_RNvMs1_NtNtCs2dRlemTKIe9_4skim3tui3appNtB5_3App20on_selection_changed
FNDA:0,_RNvMs1_NtNtCs2dRlemTKIe9_4skim3tui3appNtB5_3App24calculate_preview_offset
FNDA:0,_RNvMs1_NtNtCs2dRlemTKIe9_4skim3tui3appNtB5_3App25restart_matcher_debounced
FNDA:0,_RNvMs1_NtNtCs2dRlemTKIe9_4skim3tui3appNtB5_3App4yank
FNDA:0,_RNvMs1_NtNtCs2dRlemTKIe9_4skim3tui3appNtB5_3App7results
FNDA:0,_RNvXNtNtCs2dRlemTKIe9_4skim3tui3appQNtB2_3AppNtNtNtCs4CtSrCeEHDB_12ratatui_core7widgets6widget6Widget6render
FNDA:0,_RNvXs_NtNtCs2dRlemTKIe9_4skim3tui3appNtB4_3AppNtNtCs3IJltBbNwOJ_4core7default7Default7default
FNDA:0,_RINvMs1_NtNtCs3Snzs7u97BX_4skim3tui3appNtB6_3App11run_previewNtNtNtCs4CtSrCeEHDB_12ratatui_core7backend4test11TestBackendECsdYHrDtgrOQb_11split_match
FNDA:0,_RINvMs1_NtNtCs3Snzs7u97BX_4skim3tui3appNtB6_3App12handle_eventNtNtNtCs4CtSrCeEHDB_12ratatui_core7backend4test11TestBackendECsdYHrDtgrOQb_11split_match
FNDA:0,_RINvMs1_NtNtCs3Snzs7u97BX_4skim3tui3appNtB6_3App12handle_mouseNtNtNtCs4CtSrCeEHDB_12ratatui_core7backend4test11TestBackendECsdYHrDtgrOQb_11split_match
FNDA:0,_RNCINvMs1_NtNtCs3Snzs7u97BX_4skim3tui3appNtB8_3App11run_previewNtNtNtCs4CtSrCeEHDB_12ratatui_core7backend4test11TestBackendE0CsdYHrDtgrOQb_11split_match
FNDA:0,_RNCINvMs1_NtNtCs3Snzs7u97BX_4skim3tui3appNtB8_3App11run_previewNtNtNtCs4CtSrCeEHDB_12ratatui_core7backend4test11TestBackendEs0_0CsdYHrDtgrOQb_11split_match
FNDA:0,_RNCINvMs1_NtNtCs3Snzs7u97BX_4skim3tui3appNtB8_3App11run_previewNtNtNtCs4CtSrCeEHDB_12ratatui_core7backend4test11TestBackendEs1_0CsdYHrDtgrOQb_11split_match
FNDA:0,_RNCINvMs1_NtNtCs3Snzs7u97BX_4skim3tui3appNtB8_3App11run_previewNtNtNtCs4CtSrCeEHDB_12ratatui_core7backend4test11TestBackendEs2_0CsdYHrDtgrOQb_11split_match
FNDA:0,_RNCINvMs1_NtNtCs3Snzs7u97BX_4skim3tui3appNtB8_3App11run_previewNtNtNtCs4CtSrCeEHDB_12ratatui_core7backend4test11TestBackendEs3_0CsdYHrDtgrOQb_11split_match
FNDA:0,_RNCINvMs1_NtNtCs3Snzs7u97BX_4skim3tui3appNtB8_3App11run_previewNtNtNtCs4CtSrCeEHDB_12ratatui_core7backend4test11TestBackendEs_0CsdYHrDtgrOQb_11split_match
FNDA:0,_RNCINvMs1_NtNtCs3Snzs7u97BX_4skim3tui3appNtB8_3App12handle_eventNtNtNtCs4CtSrCeEHDB_12ratatui_core7backend4test11TestBackendE0CsdYHrDtgrOQb_11split_match
FNDA:0,_RINvMs1_NtNtCs3Snzs7u97BX_4skim3tui3appNtB6_3App11run_previewNtNtNtCs4CtSrCeEHDB_12ratatui_core7backend4test11TestBackendECskazwg9rDpax_8tiebreak
FNDA:0,_RINvMs1_NtNtCs3Snzs7u97BX_4skim3tui3appNtB6_3App12handle_eventNtNtNtCs4CtSrCeEHDB_12ratatui_core7backend4test11TestBackendECskazwg9rDpax_8tiebreak
FNDA:0,_RINvMs1_NtNtCs3Snzs7u97BX_4skim3tui3appNtB6_3App12handle_mouseNtNtNtCs4CtSrCeEHDB_12ratatui_core7backend4test11TestBackendECskazwg9rDpax_8tiebreak
FNDA:0,_RNCINvMs1_NtNtCs3Snzs7u97BX_4skim3tui3appNtB8_3App11run_previewNtNtNtCs4CtSrCeEHDB_12ratatui_core7backend4test11TestBackendE0Cskazwg9rDpax_8tiebreak
FNDA:0,_RNCINvMs1_NtNtCs3Snzs7u97BX_4skim3tui3appNtB8_3App11run_previewNtNtNtCs4CtSrCeEHDB_12ratatui_core7backend4test11TestBackendEs0_0Cskazwg9rDpax_8tiebreak
FNDA:0,_RNCINvMs1_NtNtCs3Snzs7u97BX_4skim3tui3appNtB8_3App11run_previewNtNtNtCs4CtSrCeEHDB_12ratatui_core7backend4test11TestBackendEs1_0Cskazwg9rDpax_8tiebreak
FNDA:0,_RNCINvMs1_NtNtCs3Snzs7u97BX_4skim3tui3appNtB8_3App11run_previewNtNtNtCs4CtSrCeEHDB_12ratatui_core7backend4test11TestBackendEs2_0Cskazwg9rDpax_8tiebreak
FNDA:0,_RNCINvMs1_NtNtCs3Snzs7u97BX_4skim3tui3appNtB8_3App11run_previewNtNtNtCs4CtSrCeEHDB_12ratatui_core7backend4test11TestBackendEs3_0Cskazwg9rDpax_8tiebreak
FNDA:0,_RNCINvMs1_NtNtCs3Snzs7u97BX_4skim3tui3appNtB8_3App11run_previewNtNtNtCs4CtSrCeEHDB_12ratatui_core7backend4test11TestBackendEs_0Cskazwg9rDpax_8tiebreak
FNDA:0,_RNCINvMs1_NtNtCs3Snzs7u97BX_4skim3tui3appNtB8_3App12handle_eventNtNtNtCs4CtSrCeEHDB_12ratatui_core7backend4test11TestBackendE0Cskazwg9rDpax_8tiebreak
FNF:44
FNH:0
DA:107,0
DA:108,0
DA:109,0
DA:112,0
DA:113,0
DA:116,0
DA:120,0
DA:124,0
DA:129,0
DA:130,0
DA:132,0
DA:134,0
DA:138,0
DA:141,0
DA:142,0
DA:145,0
DA:146,0
DA:147,0
DA:148,0
DA:150,0
DA:152,0
DA:153,0
DA:156,0
DA:157,0
DA:160,0
DA:161,0
DA:164,0
DA:165,0
DA:169,0
DA:172,0
DA:174,0
DA:177,0
DA:178,0
DA:179,0
DA:180,0
DA:183,0
DA:185,0
DA:187,0
DA:190,0
DA:191,0
DA:192,0
DA:193,0
DA:196,0
DA:197,0
DA:200,0
DA:202,0
DA:203,0
DA:204,0
DA:205,0
DA:206,0
DA:207,0
DA:209,0
DA:211,0
DA:212,0
DA:213,0
DA:214,0
DA:215,0
DA:218,0
DA:222,0
DA:223,0
DA:226,0
DA:227,0
DA:228,0
DA:229,0
DA:230,0
DA:232,0
DA:233,0
DA:234,0
DA:235,0
DA:237,0
DA:239,0
DA:240,0
DA:241,0
DA:244,0
DA:245,0
DA:246,0
DA:248,0
DA:250,0
DA:251,0
DA:252,0
DA:253,0
DA:254,0
DA:255,0
DA:259,0
DA:260,0
DA:261,0
DA:262,0
DA:264,0
DA:267,0
DA:268,0
DA:269,0
DA:270,0
DA:280,0
DA:281,0
DA:282,0
DA:283,0
DA:284,0
DA:285,0
DA:286,0
DA:287,0
DA:288,0
DA:289,0
DA:290,0
DA:291,0
DA:292,0
DA:293,0
DA:294,0
DA:295,0
DA:296,0
DA:297,0
DA:298,0
DA:299,0
DA:300,0
DA:301,0
DA:302,0
DA:303,0
DA:304,0
DA:305,0
DA:306,0
DA:307,0
DA:308,0
DA:309,0
DA:310,0
DA:311,0
DA:312,0
DA:313,0
DA:314,0
DA:315,0
DA:316,0
DA:317,0
DA:318,0
DA:323,0
DA:324,0
DA:325,0
DA:326,0
DA:327,0
DA:328,0
DA:329,0
DA:330,0
DA:331,0
DA:332,0
DA:333,0
DA:334,0
DA:335,0
DA:336,0
DA:337,0
DA:338,0
DA:339,0
DA:340,0
DA:341,0
DA:342,0
DA:343,0
DA:344,0
DA:345,0
DA:346,0
DA:347,0
DA:348,0
DA:349,0
DA:350,0
DA:351,0
DA:352,0
DA:353,0
DA:354,0
DA:355,0
DA:356,0
DA:357,0
DA:362,0
DA:364,0
DA:367,0
DA:369,0
DA:370,0
DA:371,0
DA:372,0
DA:373,0
DA:374,0
DA:375,0
DA:376,0
DA:377,0
DA:378,0
DA:379,0
DA:380,0
DA:381,0
DA:382,0
DA:384,0
DA:385,0
DA:386,0
DA:387,0
DA:389,0
DA:392,0
DA:393,0
DA:394,0
DA:396,0
DA:397,0
DA:398,0
DA:401,0
DA:402,0
DA:403,0
DA:406,0
DA:408,0
DA:409,0
DA:410,0
DA:411,0
DA:412,0
DA:413,0
DA:414,0
DA:415,0
DA:416,0
DA:417,0
DA:419,0
DA:420,0
DA:421,0
DA:422,0
DA:424,0
DA:426,0
DA:427,0
DA:428,0
DA:430,0
DA:431,0
DA:432,0
DA:433,0
DA:434,0
DA:436,0
DA:437,0
DA:438,0
DA:442,0
DA:443,0
DA:445,0
DA:447,0
DA:448,0
DA:449,0
DA:451,0
DA:452,0
DA:454,0
DA:455,0
DA:457,0
DA:458,0
DA:459,0
DA:460,0
DA:461,0
DA:462,0
DA:464,0
DA:466,0
DA:467,0
DA:468,0
DA:469,0
DA:470,0
DA:471,0
DA:472,0
DA:473,0
DA:474,0
DA:475,0
DA:476,0
DA:477,0
DA:478,0
DA:479,0
DA:480,0
DA:482,0
DA:483,0
DA:484,0
DA:485,0
DA:486,0
DA:488,0
DA:490,0
DA:491,0
DA:492,0
DA:494,0
DA:495,0
DA:496,0
DA:498,0
DA:499,0
DA:501,0
DA:502,0
DA:503,0
DA:505,0
DA:506,0
DA:507,0
DA:509,0
DA:511,0
DA:512,0
DA:513,0
DA:514,0
DA:515,0
DA:516,0
DA:517,0
DA:519,0
DA:521,0
DA:522,0
DA:523,0
DA:524,0
DA:525,0
DA:526,0
DA:527,0
DA:528,0
DA:529,0
DA:530,0
DA:531,0
DA:534,0
DA:535,0
DA:536,0
DA:538,0
DA:541,0
DA:542,0
DA:543,0
DA:544,0
DA:545,0
DA:549,0
DA:551,0
DA:552,0
DA:553,0
DA:556,0
DA:557,0
DA:559,0
DA:560,0
DA:563,0
DA:564,0
DA:565,0
DA:568,0
DA:571,0
DA:572,0
DA:575,0
DA:576,0
DA:580,0
DA:581,0
DA:582,0
DA:583,0
DA:585,0
DA:586,0
DA:587,0
DA:589,0
DA:590,0
DA:591,0
DA:592,0
DA:595,0
DA:596,0
DA:597,0
DA:598,0
DA:602,0
DA:605,0
DA:606,0
DA:607,0
DA:609,0
DA:610,0
DA:612,0
DA:615,0
DA:616,0
DA:618,0
DA:619,0
DA:620,0
DA:621,0
DA:622,0
DA:623,0
DA:624,0
DA:626,0
DA:627,0
DA:628,0
DA:629,0
DA:630,0
DA:632,0
DA:633,0
DA:634,0
DA:637,0
DA:638,0
DA:639,0
DA:642,0
DA:643,0
DA:644,0
DA:646,0
DA:648,0
DA:649,0
DA:651,0
DA:653,0
DA:654,0
DA:655,0
DA:656,0
DA:657,0
DA:658,0
DA:659,0
DA:660,0
DA:661,0
DA:662,0
DA:665,0
DA:666,0
DA:667,0
DA:668,0
DA:669,0
DA:670,0
DA:671,0
DA:672,0
DA:673,0
DA:674,0
DA:675,0
DA:677,0
DA:678,0
DA:679,0
DA:681,0
DA:682,0
DA:683,0
DA:686,0
DA:687,0
DA:688,0
DA:690,0
DA:691,0
DA:695,0
DA:696,0
DA:697,0
DA:698,0
DA:699,0
DA:701,0
DA:702,0
DA:703,0
DA:704,0
DA:705,0
DA:706,0
DA:707,0
DA:708,0
DA:709,0
DA:710,0
DA:712,0
DA:715,0
DA:716,0
DA:717,0
DA:720,0
DA:721,0
DA:722,0
DA:723,0
DA:724,0
DA:725,0
DA:728,0
DA:729,0
DA:730,0
DA:731,0
DA:733,0
DA:735,0
DA:736,0
DA:737,0
DA:739,0
DA:740,0
DA:741,0
DA:743,0
DA:744,0
DA:745,0
DA:746,0
DA:747,0
DA:748,0
DA:749,0
DA:750,0
DA:751,0
DA:752,0
DA:753,0
DA:754,0
DA:755,0
DA:756,0
DA:759,0
DA:760,0
DA:761,0
DA:762,0
DA:763,0
DA:764,0
DA:765,0
DA:768,0
DA:769,0
DA:771,0
DA:772,0
DA:773,0
DA:774,0
DA:775,0
DA:776,0
DA:777,0
DA:778,0
DA:781,0
DA:782,0
DA:783,0
DA:784,0
DA:786,0
DA:787,0
DA:788,0
DA:789,0
DA:790,0
DA:791,0
DA:792,0
DA:793,0
DA:794,0
DA:795,0
DA:796,0
DA:797,0
DA:798,0
DA:799,0
DA:800,0
DA:801,0
DA:803,0
DA:804,0
DA:805,0
DA:806,0
DA:807,0
DA:808,0
DA:809,0
DA:810,0
DA:811,0
DA:812,0
DA:814,0
DA:815,0
DA:816,0
DA:817,0
DA:818,0
DA:819,0
DA:820,0
DA:821,0
DA:822,0
DA:823,0
DA:825,0
DA:827,0
DA:828,0
DA:829,0
DA:830,0
DA:833,0
DA:834,0
DA:835,0
DA:839,0
DA:840,0
DA:841,0
DA:842,0
DA:846,0
DA:847,0
DA:848,0
DA:849,0
DA:850,0
DA:851,0
DA:853,0
DA:856,0
DA:857,0
DA:858,0
DA:860,0
DA:861,0
DA:862,0
DA:863,0
DA:864,0
DA:865,0
DA:866,0
DA:867,0
DA:868,0
DA:869,0
DA:870,0
DA:871,0
DA:872,0
DA:873,0
DA:874,0
DA:875,0
DA:876,0
DA:880,0
DA:882,0
DA:883,0
DA:884,0
DA:885,0
DA:886,0
DA:887,0
DA:888,0
DA:889,0
DA:890,0
DA:891,0
DA:893,0
DA:894,0
DA:895,0
DA:896,0
DA:897,0
DA:898,0
DA:899,0
DA:900,0
DA:901,0
DA:902,0
DA:904,0
DA:905,0
DA:906,0
DA:907,0
DA:908,0
DA:909,0
DA:910,0
DA:911,0
DA:912,0
DA:913,0
DA:915,0
DA:916,0
DA:917,0
DA:918,0
DA:919,0
DA:920,0
DA:921,0
DA:922,0
DA:923,0
DA:924,0
DA:926,0
DA:927,0
DA:928,0
DA:929,0
DA:930,0
DA:931,0
DA:932,0
DA:933,0
DA:934,0
DA:935,0
DA:936,0
DA:937,0
DA:938,0
DA:939,0
DA:940,0
DA:941,0
DA:942,0
DA:943,0
DA:946,0
DA:947,0
DA:948,0
DA:949,0
DA:950,0
DA:951,0
DA:953,0
DA:956,0
DA:957,0
DA:958,0
DA:960,0
DA:961,0
DA:962,0
DA:963,0
DA:964,0
DA:965,0
DA:966,0
DA:967,0
DA:968,0
DA:969,0
DA:970,0
DA:971,0
DA:972,0
DA:973,0
DA:974,0
DA:975,0
DA:976,0
DA:981,0
DA:983,0
DA:984,0
DA:985,0
DA:986,0
DA:989,0
DA:990,0
DA:994,0
DA:995,0
DA:996,0
DA:997,0
DA:1000,0
DA:1002,0
DA:1003,0
DA:1004,0
DA:1007,0
DA:1008,0
DA:1009,0
DA:1010,0
DA:1011,0
DA:1012,0
DA:1013,0
DA:1014,0
DA:1015,0
DA:1016,0
DA:1017,0
DA:1018,0
DA:1019,0
DA:1020,0
DA:1022,0
DA:1023,0
DA:1024,0
DA:1025,0
DA:1026,0
DA:1027,0
DA:1029,0
DA:1030,0
DA:1032,0
DA:1033,0
DA:1034,0
DA:1037,0
DA:1038,0
DA:1040,0
DA:1041,0
DA:1042,0
DA:1043,0
DA:1046,0
DA:1047,0
DA:1050,0
DA:1051,0
DA:1054,0
DA:1056,0
DA:1057,0
DA:1058,0
DA:1060,0
DA:1062,0
DA:1063,0
DA:1064,0
DA:1065,0
DA:1066,0
DA:1068,0
DA:1070,0
DA:1071,0
DA:1072,0
DA:1074,0
DA:1076,0
DA:1077,0
DA:1078,0
DA:1079,0
DA:1080,0
DA:1081,0
DA:1082,0
DA:1083,0
DA:1084,0
DA:1085,0
DA:1087,0
DA:1088,0
DA:1089,0
DA:1092,0
DA:1093,0
DA:1094,0
DA:1096,0
DA:1098,0
DA:1099,0
DA:1100,0
DA:1102,0
DA:1103,0
DA:1104,0
DA:1108,0
DA:1109,0
DA:1111,0
DA:1112,0
DA:1115,0
DA:1116,0
DA:1119,0
DA:1120,0
DA:1121,0
DA:1122,0
DA:1123,0
DA:1124,0
DA:1125,0
DA:1126,0
DA:1127,0
DA:1129,0
DA:1131,0
DA:1138,0
DA:1140,0
DA:1141,0
DA:1143,0
DA:1145,0
DA:1147,0
DA:1148,0
DA:1149,0
DA:1150,0
DA:1151,0
DA:1152,0
DA:1153,0
DA:1155,0
DA:1156,0
DA:1157,0
DA:1159,0
DA:1160,0
DA:1161,0
DA:1162,0
DA:1164,0
DA:1167,0
DA:1168,0
DA:1169,0
DA:1170,0
DA:1172,0
DA:1174,0
DA:1175,0
DA:1176,0
DA:1177,0
DA:1178,0
DA:1181,0
DA:1182,0
DA:1183,0
DA:1184,0
DA:1185,0
DA:1186,0
DA:1187,0
DA:1189,0
DA:1190,0
DA:1191,0
DA:1197,0
DA:1198,0
DA:1199,0
DA:1200,0
DA:1201,0
DA:1202,0
DA:1203,0
DA:1204,0
DA:1205,0
DA:1206,0
DA:1208,0
DA:1211,0
DA:1212,0
DA:1213,0
DA:1214,0
DA:1216,0
DA:1219,0
DA:1220,0
DA:1221,0
DA:1222,0
DA:1223,0
DA:1224,0
DA:1227,0
DA:1228,0
DA:1229,0
DA:1231,0
DA:1232,0
DA:1233,0
DA:1234,0
DA:1236,0
DA:1239,0
DA:1240,0
DA:1243,0
DA:1244,0
DA:1246,0
DA:1247,0
DA:1249,0
DA:1250,0
DA:1255,0
DA:1256,0
DA:1259,0
DA:1260,0
DA:1262,0
DA:1263,0
DA:1265,0
DA:1266,0
DA:1269,0
DA:1270,0
DA:1271,0
DA:1273,0
DA:1274,0
DA:1275,0
DA:1276,0
DA:1277,0
DA:1278,0
BRF:0
BRH:0
LF:859
LH:0
end_of_record
SF:/home/loric/src/skim/src/tui/backend.rs
FN:142,_RNvMNtNtCs3Snzs7u97BX_4skim3tui7backendINtB2_3TuiNtNtNtCs4CtSrCeEHDB_12ratatui_core7backend4test11TestBackendE4exitCsh7ZzE9tTlqq_4ansi
FN:165,_RNvMNtNtCs3Snzs7u97BX_4skim3tui7backendINtB2_3TuiNtNtNtCs4CtSrCeEHDB_12ratatui_core7backend4test11TestBackendE4stopCsh7ZzE9tTlqq_4ansi
FN:169,_RNvMNtNtCs3Snzs7u97BX_4skim3tui7backendINtB2_3TuiNtNtNtCs4CtSrCeEHDB_12ratatui_core7backend4test11TestBackendE6cancelCsh7ZzE9tTlqq_4ansi
FN:245,_RNvXs0_NtNtCs3Snzs7u97BX_4skim3tui7backendINtB5_3TuiNtNtNtCs4CtSrCeEHDB_12ratatui_core7backend4test11TestBackendENtNtNtCs3IJltBbNwOJ_4core3ops5deref8DerefMut9deref_mutCsh7ZzE9tTlqq_4ansi
FN:254,_RNvXs1_NtNtCs3Snzs7u97BX_4skim3tui7backendINtB5_3TuiNtNtNtCs4CtSrCeEHDB_12ratatui_core7backend4test11TestBackendENtNtNtCs3IJltBbNwOJ_4core3ops4drop4Drop4dropCsh7ZzE9tTlqq_4ansi
FN:236,_RNvXs_NtNtCs3Snzs7u97BX_4skim3tui7backendINtB4_3TuiNtNtNtCs4CtSrCeEHDB_12ratatui_core7backend4test11TestBackendENtNtNtCs3IJltBbNwOJ_4core3ops5deref5Deref5derefCsh7ZzE9tTlqq_4ansi
FN:265,_RNCNCNvNtNtCs3Snzs7u97BX_4skim3tui7backend14set_panic_hook00B9_
FN:225,_RNCNvMNtNtCs3Snzs7u97BX_4skim3tui7backendINtB4_3TuiINtCsa8sjCXQ6JGg_17ratatui_crossterm16CrosstermBackendINtNtNtNtCs5U62srxYbFV_3std2io8buffered9bufwriter9BufWriterNtNtB1M_5stdio6StderrEEE4next0B8_
FN:181,_RNCNvMNtNtCs3Snzs7u97BX_4skim3tui7backendINtB4_3TuiINtCsa8sjCXQ6JGg_17ratatui_crossterm16CrosstermBackendINtNtNtNtCs5U62srxYbFV_3std2io8buffered9bufwriter9BufWriterNtNtB1M_5stdio6StderrEEE5start0B8_
FN:263,_RNCNvNtNtCs3Snzs7u97BX_4skim3tui7backend14set_panic_hook0B7_
FN:56,_RNvMNtNtCs3Snzs7u97BX_4skim3tui7backendINtB2_3TuiINtCsa8sjCXQ6JGg_17ratatui_crossterm16CrosstermBackendINtNtNtNtCs5U62srxYbFV_3std2io8buffered9bufwriter9BufWriterNtNtB1K_5stdio6StderrEEE15new_with_heightB6_
FN:142,_RNvMNtNtCs3Snzs7u97BX_4skim3tui7backendINtB2_3TuiINtCsa8sjCXQ6JGg_17ratatui_crossterm16CrosstermBackendINtNtNtNtCs5U62srxYbFV_3std2io8buffered9bufwriter9BufWriterNtNtB1K_5stdio6StderrEEE4exitB6_
FN:225,_RNvMNtNtCs3Snzs7u97BX_4skim3tui7backendINtB2_3TuiINtCsa8sjCXQ6JGg_17ratatui_crossterm16CrosstermBackendINtNtNtNtCs5U62srxYbFV_3std2io8buffered9bufwriter9BufWriterNtNtB1K_5stdio6StderrEEE4nextB6_
FN:165,_RNvMNtNtCs3Snzs7u97BX_4skim3tui7backendINtB2_3TuiINtCsa8sjCXQ6JGg_17ratatui_crossterm16CrosstermBackendINtNtNtNtCs5U62srxYbFV_3std2io8buffered9bufwriter9BufWriterNtNtB1K_5stdio6StderrEEE4stopB6_
FN:131,_RNvMNtNtCs3Snzs7u97BX_4skim3tui7backendINtB2_3TuiINtCsa8sjCXQ6JGg_17ratatui_crossterm16CrosstermBackendINtNtNtNtCs5U62srxYbFV_3std2io8buffered9bufwriter9BufWriterNtNtB1K_5stdio6StderrEEE5enterB6_
FN:173,_RNvMNtNtCs3Snzs7u97BX_4skim3tui7backendINtB2_3TuiINtCsa8sjCXQ6JGg_17ratatui_crossterm16CrosstermBackendINtNtNtNtCs5U62srxYbFV_3std2io8buffered9bufwriter9BufWriterNtNtB1K_5stdio6StderrEEE5startB6_
FN:169,_RNvMNtNtCs3Snzs7u97BX_4skim3tui7backendINtB2_3TuiINtCsa8sjCXQ6JGg_17ratatui_crossterm16CrosstermBackendINtNtNtNtCs5U62srxYbFV_3std2io8buffered9bufwriter9BufWriterNtNtB1K_5stdio6StderrEEE6cancelB6_
FN:262,_RNvNtNtCs3Snzs7u97BX_4skim3tui7backend14set_panic_hook
FN:245,_RNvXs0_NtNtCs3Snzs7u97BX_4skim3tui7backendINtB5_3TuiINtCsa8sjCXQ6JGg_17ratatui_crossterm16CrosstermBackendINtNtNtNtCs5U62srxYbFV_3std2io8buffered9bufwriter9BufWriterNtNtB1N_5stdio6StderrEEENtNtNtCs3IJltBbNwOJ_4core3ops5deref8DerefMut9deref_mutB9_
FN:254,_RNvXs1_NtNtCs3Snzs7u97BX_4skim3tui7backendINtB5_3TuiINtCsa8sjCXQ6JGg_17ratatui_crossterm16CrosstermBackendINtNtNtNtCs5U62srxYbFV_3std2io8buffered9bufwriter9BufWriterNtNtB1N_5stdio6StderrEEENtNtNtCs3IJltBbNwOJ_4core3ops4drop4Drop4dropB9_
FN:236,_RNvXININtNtCs3Snzs7u97BX_4skim3tui7backends_0pEINtB5_3TuipENtNtNtCs3IJltBbNwOJ_4core3ops5deref5Deref5derefB9_
FN:142,_RNvMNtNtCs3Snzs7u97BX_4skim3tui7backendINtB2_3TuiNtNtNtCs4CtSrCeEHDB_12ratatui_core7backend4test11TestBackendE4exitCsjMtkzxvw6jX_5binds
FN:165,_RNvMNtNtCs3Snzs7u97BX_4skim3tui7backendINtB2_3TuiNtNtNtCs4CtSrCeEHDB_12ratatui_core7backend4test11TestBackendE4stopCsjMtkzxvw6jX_5binds
FN:169,_RNvMNtNtCs3Snzs7u97BX_4skim3tui7backendINtB2_3TuiNtNtNtCs4CtSrCeEHDB_12ratatui_core7backend4test11TestBackendE6cancelCsjMtkzxvw6jX_5binds
FN:245,_RNvXs0_NtNtCs3Snzs7u97BX_4skim3tui7backendINtB5_3TuiNtNtNtCs4CtSrCeEHDB_12ratatui_core7backend4test11TestBackendENtNtNtCs3IJltBbNwOJ_4core3ops5deref8DerefMut9deref_mutCsjMtkzxvw6jX_5binds
FN:254,_RNvXs1_NtNtCs3Snzs7u97BX_4skim3tui7backendINtB5_3TuiNtNtNtCs4CtSrCeEHDB_12ratatui_core7backend4test11TestBackendENtNtNtCs3IJltBbNwOJ_4core3ops4drop4Drop4dropCsjMtkzxvw6jX_5binds
FN:236,_RNvXs_NtNtCs3Snzs7u97BX_4skim3tui7backendINtB4_3TuiNtNtNtCs4CtSrCeEHDB_12ratatui_core7backend4test11TestBackendENtNtNtCs3IJltBbNwOJ_4core3ops5deref5Deref5derefCsjMtkzxvw6jX_5binds
FN:142,_RNvMNtNtCs3Snzs7u97BX_4skim3tui7backendINtB2_3TuiNtNtNtCs4CtSrCeEHDB_12ratatui_core7backend4test11TestBackendE4exitCsjZxsXVxeWnR_4case
FN:165,_RNvMNtNtCs3Snzs7u97BX_4skim3tui7backendINtB2_3TuiNtNtNtCs4CtSrCeEHDB_12ratatui_core7backend4test11TestBackendE4stopCsjZxsXVxeWnR_4case
FN:169,_RNvMNtNtCs3Snzs7u97BX_4skim3tui7backendINtB2_3TuiNtNtNtCs4CtSrCeEHDB_12ratatui_core7backend4test11TestBackendE6cancelCsjZxsXVxeWnR_4case
FN:245,_RNvXs0_NtNtCs3Snzs7u97BX_4skim3tui7backendINtB5_3TuiNtNtNtCs4CtSrCeEHDB_12ratatui_core7backend4test11TestBackendENtNtNtCs3IJltBbNwOJ_4core3ops5deref8DerefMut9deref_mutCsjZxsXVxeWnR_4case
FN:254,_RNvXs1_NtNtCs3Snzs7u97BX_4skim3tui7backendINtB5_3TuiNtNtNtCs4CtSrCeEHDB_12ratatui_core7backend4test11TestBackendENtNtNtCs3IJltBbNwOJ_4core3ops4drop4Drop4dropCsjZxsXVxeWnR_4case
FN:236,_RNvXs_NtNtCs3Snzs7u97BX_4skim3tui7backendINtB4_3TuiNtNtNtCs4CtSrCeEHDB_12ratatui_core7backend4test11TestBackendENtNtNtCs3IJltBbNwOJ_4core3ops5deref5Deref5derefCsjZxsXVxeWnR_4case
FN:142,_RNvMNtNtCs3Snzs7u97BX_4skim3tui7backendINtB2_3TuiNtNtNtCs4CtSrCeEHDB_12ratatui_core7backend4test11TestBackendE4exitCs7rs3rzKdeUa_8defaults
FN:165,_RNvMNtNtCs3Snzs7u97BX_4skim3tui7backendINtB2_3TuiNtNtNtCs4CtSrCeEHDB_12ratatui_core7backend4test11TestBackendE4stopCs7rs3rzKdeUa_8defaults
FN:169,_RNvMNtNtCs3Snzs7u97BX_4skim3tui7backendINtB2_3TuiNtNtNtCs4CtSrCeEHDB_12ratatui_core7backend4test11TestBackendE6cancelCs7rs3rzKdeUa_8defaults
FN:245,_RNvXs0_NtNtCs3Snzs7u97BX_4skim3tui7backendINtB5_3TuiNtNtNtCs4CtSrCeEHDB_12ratatui_core7backend4test11TestBackendENtNtNtCs3IJltBbNwOJ_4core3ops5deref8DerefMut9deref_mutCs7rs3rzKdeUa_8defaults
FN:254,_RNvXs1_NtNtCs3Snzs7u97BX_4skim3tui7backendINtB5_3TuiNtNtNtCs4CtSrCeEHDB_12ratatui_core7backend4test11TestBackendENtNtNtCs3IJltBbNwOJ_4core3ops4drop4Drop4dropCs7rs3rzKdeUa_8defaults
FN:236,_RNvXs_NtNtCs3Snzs7u97BX_4skim3tui7backendINtB4_3TuiNtNtNtCs4CtSrCeEHDB_12ratatui_core7backend4test11TestBackendENtNtNtCs3IJltBbNwOJ_4core3ops5deref5Deref5derefCs7rs3rzKdeUa_8defaults
FN:142,_RNvMNtNtCs3Snzs7u97BX_4skim3tui7backendINtB2_3TuiNtNtNtCs4CtSrCeEHDB_12ratatui_core7backend4test11TestBackendE4exitCs8SL1o0vS7q8_6issues
FN:165,_RNvMNtNtCs3Snzs7u97BX_4skim3tui7backendINtB2_3TuiNtNtNtCs4CtSrCeEHDB_12ratatui_core7backend4test11TestBackendE4stopCs8SL1o0vS7q8_6issues
FN:169,_RNvMNtNtCs3Snzs7u97BX_4skim3tui7backendINtB2_3TuiNtNtNtCs4CtSrCeEHDB_12ratatui_core7backend4test11TestBackendE6cancelCs8SL1o0vS7q8_6issues
FN:245,_RNvXs0_NtNtCs3Snzs7u97BX_4skim3tui7backendINtB5_3TuiNtNtNtCs4CtSrCeEHDB_12ratatui_core7backend4test11TestBackendENtNtNtCs3IJltBbNwOJ_4core3ops5deref8DerefMut9deref_mutCs8SL1o0vS7q8_6issues
FN:254,_RNvXs1_NtNtCs3Snzs7u97BX_4skim3tui7backendINtB5_3TuiNtNtNtCs4CtSrCeEHDB_12ratatui_core7backend4test11TestBackendENtNtNtCs3IJltBbNwOJ_4core3ops4drop4Drop4dropCs8SL1o0vS7q8_6issues
FN:236,_RNvXs_NtNtCs3Snzs7u97BX_4skim3tui7backendINtB4_3TuiNtNtNtCs4CtSrCeEHDB_12ratatui_core7backend4test11TestBackendENtNtNtCs3IJltBbNwOJ_4core3ops5deref5Deref5derefCs8SL1o0vS7q8_6issues
FN:142,_RNvMNtNtCs3Snzs7u97BX_4skim3tui7backendINtB2_3TuiNtNtNtCs4CtSrCeEHDB_12ratatui_core7backend4test11TestBackendE4exitCs7QtiJHxqkfB_4keys
FN:165,_RNvMNtNtCs3Snzs7u97BX_4skim3tui7backendINtB2_3TuiNtNtNtCs4CtSrCeEHDB_12ratatui_core7backend4test11TestBackendE4stopCs7QtiJHxqkfB_4keys
FN:169,_RNvMNtNtCs3Snzs7u97BX_4skim3tui7backendINtB2_3TuiNtNtNtCs4CtSrCeEHDB_12ratatui_core7backend4test11TestBackendE6cancelCs7QtiJHxqkfB_4keys
FN:245,_RNvXs0_NtNtCs3Snzs7u97BX_4skim3tui7backendINtB5_3TuiNtNtNtCs4CtSrCeEHDB_12ratatui_core7backend4test11TestBackendENtNtNtCs3IJltBbNwOJ_4core3ops5deref8DerefMut9deref_mutCs7QtiJHxqkfB_4keys
FN:254,_RNvXs1_NtNtCs3Snzs7u97BX_4skim3tui7backendINtB5_3TuiNtNtNtCs4CtSrCeEHDB_12ratatui_core7backend4test11TestBackendENtNtNtCs3IJltBbNwOJ_4core3ops4drop4Drop4dropCs7QtiJHxqkfB_4keys
FN:236,_RNvXs_NtNtCs3Snzs7u97BX_4skim3tui7backendINtB4_3TuiNtNtNtCs4CtSrCeEHDB_12ratatui_core7backend4test11TestBackendENtNtNtCs3IJltBbNwOJ_4core3ops5deref5Deref5derefCs7QtiJHxqkfB_4keys
FN:142,_RNvMNtNtCs3Snzs7u97BX_4skim3tui7backendINtB2_3TuiNtNtNtCs4CtSrCeEHDB_12ratatui_core7backend4test11TestBackendE4exitCscGCI3e7M0l9_16keys_interactive
FN:165,_RNvMNtNtCs3Snzs7u97BX_4skim3tui7backendINtB2_3TuiNtNtNtCs4CtSrCeEHDB_12ratatui_core7backend4test11TestBackendE4stopCscGCI3e7M0l9_16keys_interactive
FN:169,_RNvMNtNtCs3Snzs7u97BX_4skim3tui7backendINtB2_3TuiNtNtNtCs4CtSrCeEHDB_12ratatui_core7backend4test11TestBackendE6cancelCscGCI3e7M0l9_16keys_interactive
FN:245,_RNvXs0_NtNtCs3Snzs7u97BX_4skim3tui7backendINtB5_3TuiNtNtNtCs4CtSrCeEHDB_12ratatui_core7backend4test11TestBackendENtNtNtCs3IJltBbNwOJ_4core3ops5deref8DerefMut9deref_mutCscGCI3e7M0l9_16keys_interactive
FN:254,_RNvXs1_NtNtCs3Snzs7u97BX_4skim3tui7backendINtB5_3TuiNtNtNtCs4CtSrCeEHDB_12ratatui_core7backend4test11TestBackendENtNtNtCs3IJltBbNwOJ_4core3ops4drop4Drop4dropCscGCI3e7M0l9_16keys_interactive
FN:236,_RNvXs_NtNtCs3Snzs7u97BX_4skim3tui7backendINtB4_3TuiNtNtNtCs4CtSrCeEHDB_12ratatui_core7backend4test11TestBackendENtNtNtCs3IJltBbNwOJ_4core3ops5deref5Deref5derefCscGCI3e7M0l9_16keys_interactive
FN:142,_RNvMNtNtCs3Snzs7u97BX_4skim3tui7backendINtB2_3TuiNtNtNtCs4CtSrCeEHDB_12ratatui_core7backend4test11TestBackendE4exitCscYgvKuNiZ3L_6layout
FN:165,_RNvMNtNtCs3Snzs7u97BX_4skim3tui7backendINtB2_3TuiNtNtNtCs4CtSrCeEHDB_12ratatui_core7backend4test11TestBackendE4stopCscYgvKuNiZ3L_6layout
FN:169,_RNvMNtNtCs3Snzs7u97BX_4skim3tui7backendINtB2_3TuiNtNtNtCs4CtSrCeEHDB_12ratatui_core7backend4test11TestBackendE6cancelCscYgvKuNiZ3L_6layout
FN:245,_RNvXs0_NtNtCs3Snzs7u97BX_4skim3tui7backendINtB5_3TuiNtNtNtCs4CtSrCeEHDB_12ratatui_core7backend4test11TestBackendENtNtNtCs3IJltBbNwOJ_4core3ops5deref8DerefMut9deref_mutCscYgvKuNiZ3L_6layout
FN:254,_RNvXs1_NtNtCs3Snzs7u97BX_4skim3tui7backendINtB5_3TuiNtNtNtCs4CtSrCeEHDB_12ratatui_core7backend4test11TestBackendENtNtNtCs3IJltBbNwOJ_4core3ops4drop4Drop4dropCscYgvKuNiZ3L_6layout
FN:236,_RNvXs_NtNtCs3Snzs7u97BX_4skim3tui7backendINtB4_3TuiNtNtNtCs4CtSrCeEHDB_12ratatui_core7backend4test11TestBackendENtNtNtCs3IJltBbNwOJ_4core3ops5deref5Deref5derefCscYgvKuNiZ3L_6layout
FN:142,_RNvMNtNtCs3Snzs7u97BX_4skim3tui7backendINtB2_3TuiNtNtNtCs4CtSrCeEHDB_12ratatui_core7backend4test11TestBackendE4exitCsajW3zP0EBjk_9normalize
FN:165,_RNvMNtNtCs3Snzs7u97BX_4skim3tui7backendINtB2_3TuiNtNtNtCs4CtSrCeEHDB_12ratatui_core7backend4test11TestBackendE4stopCsajW3zP0EBjk_9normalize
FN:169,_RNvMNtNtCs3Snzs7u97BX_4skim3tui7backendINtB2_3TuiNtNtNtCs4CtSrCeEHDB_12ratatui_core7backend4test11TestBackendE6cancelCsajW3zP0EBjk_9normalize
FN:245,_RNvXs0_NtNtCs3Snzs7u97BX_4skim3tui7backendINtB5_3TuiNtNtNtCs4CtSrCeEHDB_12ratatui_core7backend4test11TestBackendENtNtNtCs3IJltBbNwOJ_4core3ops5deref8DerefMut9deref_mutCsajW3zP0EBjk_9normalize
FN:254,_RNvXs1_NtNtCs3Snzs7u97BX_4skim3tui7backendINtB5_3TuiNtNtNtCs4CtSrCeEHDB_12ratatui_core7backend4test11TestBackendENtNtNtCs3IJltBbNwOJ_4core3ops4drop4Drop4dropCsajW3zP0EBjk_9normalize
FN:236,_RNvXs_NtNtCs3Snzs7u97BX_4skim3tui7backendINtB4_3TuiNtNtNtCs4CtSrCeEHDB_12ratatui_core7backend4test11TestBackendENtNtNtCs3IJltBbNwOJ_4core3ops5deref5Deref5derefCsajW3zP0EBjk_9normalize
FN:142,_RNvMNtNtCs3Snzs7u97BX_4skim3tui7backendINtB2_3TuiNtNtNtCs4CtSrCeEHDB_12ratatui_core7backend4test11TestBackendE4exitCs1KNxiT1fe8Y_7options
FN:165,_RNvMNtNtCs3Snzs7u97BX_4skim3tui7backendINtB2_3TuiNtNtNtCs4CtSrCeEHDB_12ratatui_core7backend4test11TestBackendE4stopCs1KNxiT1fe8Y_7options
FN:169,_RNvMNtNtCs3Snzs7u97BX_4skim3tui7backendINtB2_3TuiNtNtNtCs4CtSrCeEHDB_12ratatui_core7backend4test11TestBackendE6cancelCs1KNxiT1fe8Y_7options
FN:245,_RNvXs0_NtNtCs3Snzs7u97BX_4skim3tui7backendINtB5_3TuiNtNtNtCs4CtSrCeEHDB_12ratatui_core7backend4test11TestBackendENtNtNtCs3IJltBbNwOJ_4core3ops5deref8DerefMut9deref_mutCs1KNxiT1fe8Y_7options
FN:254,_RNvXs1_NtNtCs3Snzs7u97BX_4skim3tui7backendINtB5_3TuiNtNtNtCs4CtSrCeEHDB_12ratatui_core7backend4test11TestBackendENtNtNtCs3IJltBbNwOJ_4core3ops4drop4Drop4dropCs1KNxiT1fe8Y_7options
FN:236,_RNvXs_NtNtCs3Snzs7u97BX_4skim3tui7backendINtB4_3TuiNtNtNtCs4CtSrCeEHDB_12ratatui_core7backend4test11TestBackendENtNtNtCs3IJltBbNwOJ_4core3ops5deref5Deref5derefCs1KNxiT1fe8Y_7options
FN:142,_RNvMNtNtCs3Snzs7u97BX_4skim3tui7backendINtB2_3TuiNtNtNtCs4CtSrCeEHDB_12ratatui_core7backend4test11TestBackendE4exitCs38oDVg7bgx1_7preview
FN:165,_RNvMNtNtCs3Snzs7u97BX_4skim3tui7backendINtB2_3TuiNtNtNtCs4CtSrCeEHDB_12ratatui_core7backend4test11TestBackendE4stopCs38oDVg7bgx1_7preview
FN:169,_RNvMNtNtCs3Snzs7u97BX_4skim3tui7backendINtB2_3TuiNtNtNtCs4CtSrCeEHDB_12ratatui_core7backend4test11TestBackendE6cancelCs38oDVg7bgx1_7preview
FN:245,_RNvXs0_NtNtCs3Snzs7u97BX_4skim3tui7backendINtB5_3TuiNtNtNtCs4CtSrCeEHDB_12ratatui_core7backend4test11TestBackendENtNtNtCs3IJltBbNwOJ_4core3ops5deref8DerefMut9deref_mutCs38oDVg7bgx1_7preview
FN:254,_RNvXs1_NtNtCs3Snzs7u97BX_4skim3tui7backendINtB5_3TuiNtNtNtCs4CtSrCeEHDB_12ratatui_core7backend4test11TestBackendENtNtNtCs3IJltBbNwOJ_4core3ops4drop4Drop4dropCs38oDVg7bgx1_7preview
FN:236,_RNvXs_NtNtCs3Snzs7u97BX_4skim3tui7backendINtB4_3TuiNtNtNtCs4CtSrCeEHDB_12ratatui_core7backend4test11TestBackendENtNtNtCs3IJltBbNwOJ_4core3ops5deref5Deref5derefCs38oDVg7bgx1_7preview
FN:265,_RNCNCNvNtNtCs2dRlemTKIe9_4skim3tui7backend14set_panic_hook00B9_
FN:225,_RNCNvMNtNtCs2dRlemTKIe9_4skim3tui7backendINtB4_3TuipE4next0B8_
FN:181,_RNCNvMNtNtCs2dRlemTKIe9_4skim3tui7backendINtB4_3TuipE5start0B8_
FN:263,_RNCNvNtNtCs2dRlemTKIe9_4skim3tui7backend14set_panic_hook0B7_
FN:56,_RNvMNtNtCs2dRlemTKIe9_4skim3tui7backendINtB2_3TuipE15new_with_heightB6_
FN:142,_RNvMNtNtCs2dRlemTKIe9_4skim3tui7backendINtB2_3TuipE4exitB6_
FN:225,_RNvMNtNtCs2dRlemTKIe9_4skim3tui7backendINtB2_3TuipE4nextB6_
FN:165,_RNvMNtNtCs2dRlemTKIe9_4skim3tui7backendINtB2_3TuipE4stopB6_
FN:131,_RNvMNtNtCs2dRlemTKIe9_4skim3tui7backendINtB2_3TuipE5enterB6_
FN:173,_RNvMNtNtCs2dRlemTKIe9_4skim3tui7backendINtB2_3TuipE5startB6_
FN:169,_RNvMNtNtCs2dRlemTKIe9_4skim3tui7backendINtB2_3TuipE6cancelB6_
FN:262,_RNvNtNtCs2dRlemTKIe9_4skim3tui7backend14set_panic_hook
FN:245,_RNvXININtNtCs2dRlemTKIe9_4skim3tui7backends0_0pEINtB5_3TuipENtNtNtCs3IJltBbNwOJ_4core3ops5deref8DerefMut9deref_mutB9_
FN:254,_RNvXININtNtCs2dRlemTKIe9_4skim3tui7backends1_0pEINtB5_3TuipENtNtNtCs3IJltBbNwOJ_4core3ops4drop4Drop4dropB9_
FN:236,_RNvXININtNtCs2dRlemTKIe9_4skim3tui7backends_0pEINtB5_3TuipENtNtNtCs3IJltBbNwOJ_4core3ops5deref5Deref5derefB9_
FN:142,_RNvMNtNtCs3Snzs7u97BX_4skim3tui7backendINtB2_3TuiNtNtNtCs4CtSrCeEHDB_12ratatui_core7backend4test11TestBackendE4exitCsdYHrDtgrOQb_11split_match
FN:165,_RNvMNtNtCs3Snzs7u97BX_4skim3tui7backendINtB2_3TuiNtNtNtCs4CtSrCeEHDB_12ratatui_core7backend4test11TestBackendE4stopCsdYHrDtgrOQb_11split_match
FN:169,_RNvMNtNtCs3Snzs7u97BX_4skim3tui7backendINtB2_3TuiNtNtNtCs4CtSrCeEHDB_12ratatui_core7backend4test11TestBackendE6cancelCsdYHrDtgrOQb_11split_match
FN:245,_RNvXs0_NtNtCs3Snzs7u97BX_4skim3tui7backendINtB5_3TuiNtNtNtCs4CtSrCeEHDB_12ratatui_core7backend4test11TestBackendENtNtNtCs3IJltBbNwOJ_4core3ops5deref8DerefMut9deref_mutCsdYHrDtgrOQb_11split_match
FN:254,_RNvXs1_NtNtCs3Snzs7u97BX_4skim3tui7backendINtB5_3TuiNtNtNtCs4CtSrCeEHDB_12ratatui_core7backend4test11TestBackendENtNtNtCs3IJltBbNwOJ_4core3ops4drop4Drop4dropCsdYHrDtgrOQb_11split_match
FN:236,_RNvXs_NtNtCs3Snzs7u97BX_4skim3tui7backendINtB4_3TuiNtNtNtCs4CtSrCeEHDB_12ratatui_core7backend4test11TestBackendENtNtNtCs3IJltBbNwOJ_4core3ops5deref5Deref5derefCsdYHrDtgrOQb_11split_match
FN:142,_RNvMNtNtCs3Snzs7u97BX_4skim3tui7backendINtB2_3TuiNtNtNtCs4CtSrCeEHDB_12ratatui_core7backend4test11TestBackendE4exitCskazwg9rDpax_8tiebreak
FN:165,_RNvMNtNtCs3Snzs7u97BX_4skim3tui7backendINtB2_3TuiNtNtNtCs4CtSrCeEHDB_12ratatui_core7backend4test11TestBackendE4stopCskazwg9rDpax_8tiebreak
FN:169,_RNvMNtNtCs3Snzs7u97BX_4skim3tui7backendINtB2_3TuiNtNtNtCs4CtSrCeEHDB_12ratatui_core7backend4test11TestBackendE6cancelCskazwg9rDpax_8tiebreak
FN:245,_RNvXs0_NtNtCs3Snzs7u97BX_4skim3tui7backendINtB5_3TuiNtNtNtCs4CtSrCeEHDB_12ratatui_core7backend4test11TestBackendENtNtNtCs3IJltBbNwOJ_4core3ops5deref8DerefMut9deref_mutCskazwg9rDpax_8tiebreak
FN:254,_RNvXs1_NtNtCs3Snzs7u97BX_4skim3tui7backendINtB5_3TuiNtNtNtCs4CtSrCeEHDB_12ratatui_core7backend4test11TestBackendENtNtNtCs3IJltBbNwOJ_4core3ops4drop4Drop4dropCskazwg9rDpax_8tiebreak
FN:236,_RNvXs_NtNtCs3Snzs7u97BX_4skim3tui7backendINtB4_3TuiNtNtNtCs4CtSrCeEHDB_12ratatui_core7backend4test11TestBackendENtNtNtCs3IJltBbNwOJ_4core3ops5deref5Deref5derefCskazwg9rDpax_8tiebreak
FNDA:0,_RNvMNtNtCs3Snzs7u97BX_4skim3tui7backendINtB2_3TuiNtNtNtCs4CtSrCeEHDB_12ratatui_core7backend4test11TestBackendE4exitCsh7ZzE9tTlqq_4ansi
FNDA:0,_RNvMNtNtCs3Snzs7u97BX_4skim3tui7backendINtB2_3TuiNtNtNtCs4CtSrCeEHDB_12ratatui_core7backend4test11TestBackendE4stopCsh7ZzE9tTlqq_4ansi
FNDA:0,_RNvMNtNtCs3Snzs7u97BX_4skim3tui7backendINtB2_3TuiNtNtNtCs4CtSrCeEHDB_12ratatui_core7backend4test11TestBackendE6cancelCsh7ZzE9tTlqq_4ansi
FNDA:0,_RNvXs0_NtNtCs3Snzs7u97BX_4skim3tui7backendINtB5_3TuiNtNtNtCs4CtSrCeEHDB_12ratatui_core7backend4test11TestBackendENtNtNtCs3IJltBbNwOJ_4core3ops5deref8DerefMut9deref_mutCsh7ZzE9tTlqq_4ansi
FNDA:0,_RNvXs1_NtNtCs3Snzs7u97BX_4skim3tui7backendINtB5_3TuiNtNtNtCs4CtSrCeEHDB_12ratatui_core7backend4test11TestBackendENtNtNtCs3IJltBbNwOJ_4core3ops4drop4Drop4dropCsh7ZzE9tTlqq_4ansi
FNDA:0,_RNvXs_NtNtCs3Snzs7u97BX_4skim3tui7backendINtB4_3TuiNtNtNtCs4CtSrCeEHDB_12ratatui_core7backend4test11TestBackendENtNtNtCs3IJltBbNwOJ_4core3ops5deref5Deref5derefCsh7ZzE9tTlqq_4ansi
FNDA:0,_RNCNCNvNtNtCs3Snzs7u97BX_4skim3tui7backend14set_panic_hook00B9_
FNDA:0,_RNCNvMNtNtCs3Snzs7u97BX_4skim3tui7backendINtB4_3TuiINtCsa8sjCXQ6JGg_17ratatui_crossterm16CrosstermBackendINtNtNtNtCs5U62srxYbFV_3std2io8buffered9bufwriter9BufWriterNtNtB1M_5stdio6StderrEEE4next0B8_
FNDA:0,_RNCNvMNtNtCs3Snzs7u97BX_4skim3tui7backendINtB4_3TuiINtCsa8sjCXQ6JGg_17ratatui_crossterm16CrosstermBackendINtNtNtNtCs5U62srxYbFV_3std2io8buffered9bufwriter9BufWriterNtNtB1M_5stdio6StderrEEE5start0B8_
FNDA:0,_RNCNvNtNtCs3Snzs7u97BX_4skim3tui7backend14set_panic_hook0B7_
FNDA:0,_RNvMNtNtCs3Snzs7u97BX_4skim3tui7backendINtB2_3TuiINtCsa8sjCXQ6JGg_17ratatui_crossterm16CrosstermBackendINtNtNtNtCs5U62srxYbFV_3std2io8buffered9bufwriter9BufWriterNtNtB1K_5stdio6StderrEEE15new_with_heightB6_
FNDA:0,_RNvMNtNtCs3Snzs7u97BX_4skim3tui7backendINtB2_3TuiINtCsa8sjCXQ6JGg_17ratatui_crossterm16CrosstermBackendINtNtNtNtCs5U62srxYbFV_3std2io8buffered9bufwriter9BufWriterNtNtB1K_5stdio6StderrEEE4exitB6_
FNDA:0,_RNvMNtNtCs3Snzs7u97BX_4skim3tui7backendINtB2_3TuiINtCsa8sjCXQ6JGg_17ratatui_crossterm16CrosstermBackendINtNtNtNtCs5U62srxYbFV_3std2io8buffered9bufwriter9BufWriterNtNtB1K_5stdio6StderrEEE4nextB6_
FNDA:0,_RNvMNtNtCs3Snzs7u97BX_4skim3tui7backendINtB2_3TuiINtCsa8sjCXQ6JGg_17ratatui_crossterm16CrosstermBackendINtNtNtNtCs5U62srxYbFV_3std2io8buffered9bufwriter9BufWriterNtNtB1K_5stdio6StderrEEE4stopB6_
FNDA:0,_RNvMNtNtCs3Snzs7u97BX_4skim3tui7backendINtB2_3TuiINtCsa8sjCXQ6JGg_17ratatui_crossterm16CrosstermBackendINtNtNtNtCs5U62srxYbFV_3std2io8buffered9bufwriter9BufWriterNtNtB1K_5stdio6StderrEEE5enterB6_
FNDA:0,_RNvMNtNtCs3Snzs7u97BX_4skim3tui7backendINtB2_3TuiINtCsa8sjCXQ6JGg_17ratatui_crossterm16CrosstermBackendINtNtNtNtCs5U62srxYbFV_3std2io8buffered9bufwriter9BufWriterNtNtB1K_5stdio6StderrEEE5startB6_
FNDA:0,_RNvMNtNtCs3Snzs7u97BX_4skim3tui7backendINtB2_3TuiINtCsa8sjCXQ6JGg_17ratatui_crossterm16CrosstermBackendINtNtNtNtCs5U62srxYbFV_3std2io8buffered9bufwriter9BufWriterNtNtB1K_5stdio6StderrEEE6cancelB6_
FNDA:0,_RNvNtNtCs3Snzs7u97BX_4skim3tui7backend14set_panic_hook
FNDA:0,_RNvXs0_NtNtCs3Snzs7u97BX_4skim3tui7backendINtB5_3TuiINtCsa8sjCXQ6JGg_17ratatui_crossterm16CrosstermBackendINtNtNtNtCs5U62srxYbFV_3std2io8buffered9bufwriter9BufWriterNtNtB1N_5stdio6StderrEEENtNtNtCs3IJltBbNwOJ_4core3ops5deref8DerefMut9deref_mutB9_
FNDA:0,_RNvXs1_NtNtCs3Snzs7u97BX_4skim3tui7backendINtB5_3TuiINtCsa8sjCXQ6JGg_17ratatui_crossterm16CrosstermBackendINtNtNtNtCs5U62srxYbFV_3std2io8buffered9bufwriter9BufWriterNtNtB1N_5stdio6StderrEEENtNtNtCs3IJltBbNwOJ_4core3ops4drop4Drop4dropB9_
FNDA:0,_RNvXININtNtCs3Snzs7u97BX_4skim3tui7backends_0pEINtB5_3TuipENtNtNtCs3IJltBbNwOJ_4core3ops5deref5Deref5derefB9_
FNDA:0,_RNvMNtNtCs3Snzs7u97BX_4skim3tui7backendINtB2_3TuiNtNtNtCs4CtSrCeEHDB_12ratatui_core7backend4test11TestBackendE4exitCsjMtkzxvw6jX_5binds
FNDA:0,_RNvMNtNtCs3Snzs7u97BX_4skim3tui7backendINtB2_3TuiNtNtNtCs4CtSrCeEHDB_12ratatui_core7backend4test11TestBackendE4stopCsjMtkzxvw6jX_5binds
FNDA:0,_RNvMNtNtCs3Snzs7u97BX_4skim3tui7backendINtB2_3TuiNtNtNtCs4CtSrCeEHDB_12ratatui_core7backend4test11TestBackendE6cancelCsjMtkzxvw6jX_5binds
FNDA:0,_RNvXs0_NtNtCs3Snzs7u97BX_4skim3tui7backendINtB5_3TuiNtNtNtCs4CtSrCeEHDB_12ratatui_core7backend4test11TestBackendENtNtNtCs3IJltBbNwOJ_4core3ops5deref8DerefMut9deref_mutCsjMtkzxvw6jX_5binds
FNDA:0,_RNvXs1_NtNtCs3Snzs7u97BX_4skim3tui7backendINtB5_3TuiNtNtNtCs4CtSrCeEHDB_12ratatui_core7backend4test11TestBackendENtNtNtCs3IJltBbNwOJ_4core3ops4drop4Drop4dropCsjMtkzxvw6jX_5binds
FNDA:0,_RNvXs_NtNtCs3Snzs7u97BX_4skim3tui7backendINtB4_3TuiNtNtNtCs4CtSrCeEHDB_12ratatui_core7backend4test11TestBackendENtNtNtCs3IJltBbNwOJ_4core3ops5deref5Deref5derefCsjMtkzxvw6jX_5binds
FNDA:0,_RNvMNtNtCs3Snzs7u97BX_4skim3tui7backendINtB2_3TuiNtNtNtCs4CtSrCeEHDB_12ratatui_core7backend4test11TestBackendE4exitCsjZxsXVxeWnR_4case
FNDA:0,_RNvMNtNtCs3Snzs7u97BX_4skim3tui7backendINtB2_3TuiNtNtNtCs4CtSrCeEHDB_12ratatui_core7backend4test11TestBackendE4stopCsjZxsXVxeWnR_4case
FNDA:0,_RNvMNtNtCs3Snzs7u97BX_4skim3tui7backendINtB2_3TuiNtNtNtCs4CtSrCeEHDB_12ratatui_core7backend4test11TestBackendE6cancelCsjZxsXVxeWnR_4case
FNDA:0,_RNvXs0_NtNtCs3Snzs7u97BX_4skim3tui7backendINtB5_3TuiNtNtNtCs4CtSrCeEHDB_12ratatui_core7backend4test11TestBackendENtNtNtCs3IJltBbNwOJ_4core3ops5deref8DerefMut9deref_mutCsjZxsXVxeWnR_4case
FNDA:0,_RNvXs1_NtNtCs3Snzs7u97BX_4skim3tui7backendINtB5_3TuiNtNtNtCs4CtSrCeEHDB_12ratatui_core7backend4test11TestBackendENtNtNtCs3IJltBbNwOJ_4core3ops4drop4Drop4dropCsjZxsXVxeWnR_4case
FNDA:0,_RNvXs_NtNtCs3Snzs7u97BX_4skim3tui7backendINtB4_3TuiNtNtNtCs4CtSrCeEHDB_12ratatui_core7backend4test11TestBackendENtNtNtCs3IJltBbNwOJ_4core3ops5deref5Deref5derefCsjZxsXVxeWnR_4case
FNDA:0,_RNvMNtNtCs3Snzs7u97BX_4skim3tui7backendINtB2_3TuiNtNtNtCs4CtSrCeEHDB_12ratatui_core7backend4test11TestBackendE4exitCs7rs3rzKdeUa_8defaults
FNDA:0,_RNvMNtNtCs3Snzs7u97BX_4skim3tui7backendINtB2_3TuiNtNtNtCs4CtSrCeEHDB_12ratatui_core7backend4test11TestBackendE4stopCs7rs3rzKdeUa_8defaults
FNDA:0,_RNvMNtNtCs3Snzs7u97BX_4skim3tui7backendINtB2_3TuiNtNtNtCs4CtSrCeEHDB_12ratatui_core7backend4test11TestBackendE6cancelCs7rs3rzKdeUa_8defaults
FNDA:0,_RNvXs0_NtNtCs3Snzs7u97BX_4skim3tui7backendINtB5_3TuiNtNtNtCs4CtSrCeEHDB_12ratatui_core7backend4test11TestBackendENtNtNtCs3IJltBbNwOJ_4core3ops5deref8DerefMut9deref_mutCs7rs3rzKdeUa_8defaults
FNDA:0,_RNvXs1_NtNtCs3Snzs7u97BX_4skim3tui7backendINtB5_3TuiNtNtNtCs4CtSrCeEHDB_12ratatui_core7backend4test11TestBackendENtNtNtCs3IJltBbNwOJ_4core3ops4drop4Drop4dropCs7rs3rzKdeUa_8defaults
FNDA:0,_RNvXs_NtNtCs3Snzs7u97BX_4skim3tui7backendINtB4_3TuiNtNtNtCs4CtSrCeEHDB_12ratatui_core7backend4test11TestBackendENtNtNtCs3IJltBbNwOJ_4core3ops5deref5Deref5derefCs7rs3rzKdeUa_8defaults
FNDA:0,_RNvMNtNtCs3Snzs7u97BX_4skim3tui7backendINtB2_3TuiNtNtNtCs4CtSrCeEHDB_12ratatui_core7backend4test11TestBackendE4exitCs8SL1o0vS7q8_6issues
FNDA:0,_RNvMNtNtCs3Snzs7u97BX_4skim3tui7backendINtB2_3TuiNtNtNtCs4CtSrCeEHDB_12ratatui_core7backend4test11TestBackendE4stopCs8SL1o0vS7q8_6issues
FNDA:0,_RNvMNtNtCs3Snzs7u97BX_4skim3tui7backendINtB2_3TuiNtNtNtCs4CtSrCeEHDB_12ratatui_core7backend4test11TestBackendE6cancelCs8SL1o0vS7q8_6issues
FNDA:0,_RNvXs0_NtNtCs3Snzs7u97BX_4skim3tui7backendINtB5_3TuiNtNtNtCs4CtSrCeEHDB_12ratatui_core7backend4test11TestBackendENtNtNtCs3IJltBbNwOJ_4core3ops5deref8DerefMut9deref_mutCs8SL1o0vS7q8_6issues
FNDA:0,_RNvXs1_NtNtCs3Snzs7u97BX_4skim3tui7backendINtB5_3TuiNtNtNtCs4CtSrCeEHDB_12ratatui_core7backend4test11TestBackendENtNtNtCs3IJltBbNwOJ_4core3ops4drop4Drop4dropCs8SL1o0vS7q8_6issues
FNDA:0,_RNvXs_NtNtCs3Snzs7u97BX_4skim3tui7backendINtB4_3TuiNtNtNtCs4CtSrCeEHDB_12ratatui_core7backend4test11TestBackendENtNtNtCs3IJltBbNwOJ_4core3ops5deref5Deref5derefCs8SL1o0vS7q8_6issues
FNDA:0,_RNvMNtNtCs3Snzs7u97BX_4skim3tui7backendINtB2_3TuiNtNtNtCs4CtSrCeEHDB_12ratatui_core7backend4test11TestBackendE4exitCs7QtiJHxqkfB_4keys
FNDA:0,_RNvMNtNtCs3Snzs7u97BX_4skim3tui7backendINtB2_3TuiNtNtNtCs4CtSrCeEHDB_12ratatui_core7backend4test11TestBackendE4stopCs7QtiJHxqkfB_4keys
FNDA:0,_RNvMNtNtCs3Snzs7u97BX_4skim3tui7backendINtB2_3TuiNtNtNtCs4CtSrCeEHDB_12ratatui_core7backend4test11TestBackendE6cancelCs7QtiJHxqkfB_4keys
FNDA:0,_RNvXs0_NtNtCs3Snzs7u97BX_4skim3tui7backendINtB5_3TuiNtNtNtCs4CtSrCeEHDB_12ratatui_core7backend4test11TestBackendENtNtNtCs3IJltBbNwOJ_4core3ops5deref8DerefMut9deref_mutCs7QtiJHxqkfB_4keys
FNDA:0,_RNvXs1_NtNtCs3Snzs7u97BX_4skim3tui7backendINtB5_3TuiNtNtNtCs4CtSrCeEHDB_12ratatui_core7backend4test11TestBackendENtNtNtCs3IJltBbNwOJ_4core3ops4drop4Drop4dropCs7QtiJHxqkfB_4keys
FNDA:0,_RNvXs_NtNtCs3Snzs7u97BX_4skim3tui7backendINtB4_3TuiNtNtNtCs4CtSrCeEHDB_12ratatui_core7backend4test11TestBackendENtNtNtCs3IJltBbNwOJ_4core3ops5deref5Deref5derefCs7QtiJHxqkfB_4keys
FNDA:0,_RNvMNtNtCs3Snzs7u97BX_4skim3tui7backendINtB2_3TuiNtNtNtCs4CtSrCeEHDB_12ratatui_core7backend4test11TestBackendE4exitCscGCI3e7M0l9_16keys_interactive
FNDA:0,_RNvMNtNtCs3Snzs7u97BX_4skim3tui7backendINtB2_3TuiNtNtNtCs4CtSrCeEHDB_12ratatui_core7backend4test11TestBackendE4stopCscGCI3e7M0l9_16keys_interactive
FNDA:0,_RNvMNtNtCs3Snzs7u97BX_4skim3tui7backendINtB2_3TuiNtNtNtCs4CtSrCeEHDB_12ratatui_core7backend4test11TestBackendE6cancelCscGCI3e7M0l9_16keys_interactive
FNDA:0,_RNvXs0_NtNtCs3Snzs7u97BX_4skim3tui7backendINtB5_3TuiNtNtNtCs4CtSrCeEHDB_12ratatui_core7backend4test11TestBackendENtNtNtCs3IJltBbNwOJ_4core3ops5deref8DerefMut9deref_mutCscGCI3e7M0l9_16keys_interactive
FNDA:0,_RNvXs1_NtNtCs3Snzs7u97BX_4skim3tui7backendINtB5_3TuiNtNtNtCs4CtSrCeEHDB_12ratatui_core7backend4test11TestBackendENtNtNtCs3IJltBbNwOJ_4core3ops4drop4Drop4dropCscGCI3e7M0l9_16keys_interactive
FNDA:0,_RNvXs_NtNtCs3Snzs7u97BX_4skim3tui7backendINtB4_3TuiNtNtNtCs4CtSrCeEHDB_12ratatui_core7backend4test11TestBackendENtNtNtCs3IJltBbNwOJ_4core3ops5deref5Deref5derefCscGCI3e7M0l9_16keys_interactive
FNDA:0,_RNvMNtNtCs3Snzs7u97BX_4skim3tui7backendINtB2_3TuiNtNtNtCs4CtSrCeEHDB_12ratatui_core7backend4test11TestBackendE4exitCscYgvKuNiZ3L_6layout
FNDA:0,_RNvMNtNtCs3Snzs7u97BX_4skim3tui7backendINtB2_3TuiNtNtNtCs4CtSrCeEHDB_12ratatui_core7backend4test11TestBackendE4stopCscYgvKuNiZ3L_6layout
FNDA:0,_RNvMNtNtCs3Snzs7u97BX_4skim3tui7backendINtB2_3TuiNtNtNtCs4CtSrCeEHDB_12ratatui_core7backend4test11TestBackendE6cancelCscYgvKuNiZ3L_6layout
FNDA:0,_RNvXs0_NtNtCs3Snzs7u97BX_4skim3tui7backendINtB5_3TuiNtNtNtCs4CtSrCeEHDB_12ratatui_core7backend4test11TestBackendENtNtNtCs3IJltBbNwOJ_4core3ops5deref8DerefMut9deref_mutCscYgvKuNiZ3L_6layout
FNDA:0,_RNvXs1_NtNtCs3Snzs7u97BX_4skim3tui7backendINtB5_3TuiNtNtNtCs4CtSrCeEHDB_12ratatui_core7backend4test11TestBackendENtNtNtCs3IJltBbNwOJ_4core3ops4drop4Drop4dropCscYgvKuNiZ3L_6layout
FNDA:0,_RNvXs_NtNtCs3Snzs7u97BX_4skim3tui7backendINtB4_3TuiNtNtNtCs4CtSrCeEHDB_12ratatui_core7backend4test11TestBackendENtNtNtCs3IJltBbNwOJ_4core3ops5deref5Deref5derefCscYgvKuNiZ3L_6layout
FNDA:0,_RNvMNtNtCs3Snzs7u97BX_4skim3tui7backendINtB2_3TuiNtNtNtCs4CtSrCeEHDB_12ratatui_core7backend4test11TestBackendE4exitCsajW3zP0EBjk_9normalize
FNDA:0,_RNvMNtNtCs3Snzs7u97BX_4skim3tui7backendINtB2_3TuiNtNtNtCs4CtSrCeEHDB_12ratatui_core7backend4test11TestBackendE4stopCsajW3zP0EBjk_9normalize
FNDA:0,_RNvMNtNtCs3Snzs7u97BX_4skim3tui7backendINtB2_3TuiNtNtNtCs4CtSrCeEHDB_12ratatui_core7backend4test11TestBackendE6cancelCsajW3zP0EBjk_9normalize
FNDA:0,_RNvXs0_NtNtCs3Snzs7u97BX_4skim3tui7backendINtB5_3TuiNtNtNtCs4CtSrCeEHDB_12ratatui_core7backend4test11TestBackendENtNtNtCs3IJltBbNwOJ_4core3ops5deref8DerefMut9deref_mutCsajW3zP0EBjk_9normalize
FNDA:0,_RNvXs1_NtNtCs3Snzs7u97BX_4skim3tui7backendINtB5_3TuiNtNtNtCs4CtSrCeEHDB_12ratatui_core7backend4test11TestBackendENtNtNtCs3IJltBbNwOJ_4core3ops4drop4Drop4dropCsajW3zP0EBjk_9normalize
FNDA:0,_RNvXs_NtNtCs3Snzs7u97BX_4skim3tui7backendINtB4_3TuiNtNtNtCs4CtSrCeEHDB_12ratatui_core7backend4test11TestBackendENtNtNtCs3IJltBbNwOJ_4core3ops5deref5Deref5derefCsajW3zP0EBjk_9normalize
FNDA:0,_RNvMNtNtCs3Snzs7u97BX_4skim3tui7backendINtB2_3TuiNtNtNtCs4CtSrCeEHDB_12ratatui_core7backend4test11TestBackendE4exitCs1KNxiT1fe8Y_7options
FNDA:0,_RNvMNtNtCs3Snzs7u97BX_4skim3tui7backendINtB2_3TuiNtNtNtCs4CtSrCeEHDB_12ratatui_core7backend4test11TestBackendE4stopCs1KNxiT1fe8Y_7options
FNDA:0,_RNvMNtNtCs3Snzs7u97BX_4skim3tui7backendINtB2_3TuiNtNtNtCs4CtSrCeEHDB_12ratatui_core7backend4test11TestBackendE6cancelCs1KNxiT1fe8Y_7options
FNDA:0,_RNvXs0_NtNtCs3Snzs7u97BX_4skim3tui7backendINtB5_3TuiNtNtNtCs4CtSrCeEHDB_12ratatui_core7backend4test11TestBackendENtNtNtCs3IJltBbNwOJ_4core3ops5deref8DerefMut9deref_mutCs1KNxiT1fe8Y_7options
FNDA:0,_RNvXs1_NtNtCs3Snzs7u97BX_4skim3tui7backendINtB5_3TuiNtNtNtCs4CtSrCeEHDB_12ratatui_core7backend4test11TestBackendENtNtNtCs3IJltBbNwOJ_4core3ops4drop4Drop4dropCs1KNxiT1fe8Y_7options
FNDA:0,_RNvXs_NtNtCs3Snzs7u97BX_4skim3tui7backendINtB4_3TuiNtNtNtCs4CtSrCeEHDB_12ratatui_core7backend4test11TestBackendENtNtNtCs3IJltBbNwOJ_4core3ops5deref5Deref5derefCs1KNxiT1fe8Y_7options
FNDA:0,_RNvMNtNtCs3Snzs7u97BX_4skim3tui7backendINtB2_3TuiNtNtNtCs4CtSrCeEHDB_12ratatui_core7backend4test11TestBackendE4exitCs38oDVg7bgx1_7preview
FNDA:0,_RNvMNtNtCs3Snzs7u97BX_4skim3tui7backendINtB2_3TuiNtNtNtCs4CtSrCeEHDB_12ratatui_core7backend4test11TestBackendE4stopCs38oDVg7bgx1_7preview
FNDA:0,_RNvMNtNtCs3Snzs7u97BX_4skim3tui7backendINtB2_3TuiNtNtNtCs4CtSrCeEHDB_12ratatui_core7backend4test11TestBackendE6cancelCs38oDVg7bgx1_7preview
FNDA:0,_RNvXs0_NtNtCs3Snzs7u97BX_4skim3tui7backendINtB5_3TuiNtNtNtCs4CtSrCeEHDB_12ratatui_core7backend4test11TestBackendENtNtNtCs3IJltBbNwOJ_4core3ops5deref8DerefMut9deref_mutCs38oDVg7bgx1_7preview
FNDA:0,_RNvXs1_NtNtCs3Snzs7u97BX_4skim3tui7backendINtB5_3TuiNtNtNtCs4CtSrCeEHDB_12ratatui_core7backend4test11TestBackendENtNtNtCs3IJltBbNwOJ_4core3ops4drop4Drop4dropCs38oDVg7bgx1_7preview
FNDA:0,_RNvXs_NtNtCs3Snzs7u97BX_4skim3tui7backendINtB4_3TuiNtNtNtCs4CtSrCeEHDB_12ratatui_core7backend4test11TestBackendENtNtNtCs3IJltBbNwOJ_4core3ops5deref5Deref5derefCs38oDVg7bgx1_7preview
FNDA:0,_RNCNCNvNtNtCs2dRlemTKIe9_4skim3tui7backend14set_panic_hook00B9_
FNDA:0,_RNCNvMNtNtCs2dRlemTKIe9_4skim3tui7backendINtB4_3TuipE4next0B8_
FNDA:0,_RNCNvMNtNtCs2dRlemTKIe9_4skim3tui7backendINtB4_3TuipE5start0B8_
FNDA:0,_RNCNvNtNtCs2dRlemTKIe9_4skim3tui7backend14set_panic_hook0B7_
FNDA:0,_RNvMNtNtCs2dRlemTKIe9_4skim3tui7backendINtB2_3TuipE15new_with_heightB6_
FNDA:0,_RNvMNtNtCs2dRlemTKIe9_4skim3tui7backendINtB2_3TuipE4exitB6_
FNDA:0,_RNvMNtNtCs2dRlemTKIe9_4skim3tui7backendINtB2_3TuipE4nextB6_
FNDA:0,_RNvMNtNtCs2dRlemTKIe9_4skim3tui7backendINtB2_3TuipE4stopB6_
FNDA:0,_RNvMNtNtCs2dRlemTKIe9_4skim3tui7backendINtB2_3TuipE5enterB6_
FNDA:0,_RNvMNtNtCs2dRlemTKIe9_4skim3tui7backendINtB2_3TuipE5startB6_
FNDA:0,_RNvMNtNtCs2dRlemTKIe9_4skim3tui7backendINtB2_3TuipE6cancelB6_
FNDA:0,_RNvNtNtCs2dRlemTKIe9_4skim3tui7backend14set_panic_hook
FNDA:0,_RNvXININtNtCs2dRlemTKIe9_4skim3tui7backends0_0pEINtB5_3TuipENtNtNtCs3IJltBbNwOJ_4core3ops5deref8DerefMut9deref_mutB9_
FNDA:0,_RNvXININtNtCs2dRlemTKIe9_4skim3tui7backends1_0pEINtB5_3TuipENtNtNtCs3IJltBbNwOJ_4core3ops4drop4Drop4dropB9_
FNDA:0,_RNvXININtNtCs2dRlemTKIe9_4skim3tui7backends_0pEINtB5_3TuipENtNtNtCs3IJltBbNwOJ_4core3ops5deref5Deref5derefB9_
FNDA:0,_RNvMNtNtCs3Snzs7u97BX_4skim3tui7backendINtB2_3TuiNtNtNtCs4CtSrCeEHDB_12ratatui_core7backend4test11TestBackendE4exitCsdYHrDtgrOQb_11split_match
FNDA:0,_RNvMNtNtCs3Snzs7u97BX_4skim3tui7backendINtB2_3TuiNtNtNtCs4CtSrCeEHDB_12ratatui_core7backend4test11TestBackendE4stopCsdYHrDtgrOQb_11split_match
FNDA:0,_RNvMNtNtCs3Snzs7u97BX_4skim3tui7backendINtB2_3TuiNtNtNtCs4CtSrCeEHDB_12ratatui_core7backend4test11TestBackendE6cancelCsdYHrDtgrOQb_11split_match
FNDA:0,_RNvXs0_NtNtCs3Snzs7u97BX_4skim3tui7backendINtB5_3TuiNtNtNtCs4CtSrCeEHDB_12ratatui_core7backend4test11TestBackendENtNtNtCs3IJltBbNwOJ_4core3ops5deref8DerefMut9deref_mutCsdYHrDtgrOQb_11split_match
FNDA:0,_RNvXs1_NtNtCs3Snzs7u97BX_4skim3tui7backendINtB5_3TuiNtNtNtCs4CtSrCeEHDB_12ratatui_core7backend4test11TestBackendENtNtNtCs3IJltBbNwOJ_4core3ops4drop4Drop4dropCsdYHrDtgrOQb_11split_match
FNDA:0,_RNvXs_NtNtCs3Snzs7u97BX_4skim3tui7backendINtB4_3TuiNtNtNtCs4CtSrCeEHDB_12ratatui_core7backend4test11TestBackendENtNtNtCs3IJltBbNwOJ_4core3ops5deref5Deref5derefCsdYHrDtgrOQb_11split_match
FNDA:0,_RNvMNtNtCs3Snzs7u97BX_4skim3tui7backendINtB2_3TuiNtNtNtCs4CtSrCeEHDB_12ratatui_core7backend4test11TestBackendE4exitCskazwg9rDpax_8tiebreak
FNDA:0,_RNvMNtNtCs3Snzs7u97BX_4skim3tui7backendINtB2_3TuiNtNtNtCs4CtSrCeEHDB_12ratatui_core7backend4test11TestBackendE4stopCskazwg9rDpax_8tiebreak
FNDA:0,_RNvMNtNtCs3Snzs7u97BX_4skim3tui7backendINtB2_3TuiNtNtNtCs4CtSrCeEHDB_12ratatui_core7backend4test11TestBackendE6cancelCskazwg9rDpax_8tiebreak
FNDA:0,_RNvXs0_NtNtCs3Snzs7u97BX_4skim3tui7backendINtB5_3TuiNtNtNtCs4CtSrCeEHDB_12ratatui_core7backend4test11TestBackendENtNtNtCs3IJltBbNwOJ_4core3ops5deref8DerefMut9deref_mutCskazwg9rDpax_8tiebreak
FNDA:0,_RNvXs1_NtNtCs3Snzs7u97BX_4skim3tui7backendINtB5_3TuiNtNtNtCs4CtSrCeEHDB_12ratatui_core7backend4test11TestBackendENtNtNtCs3IJltBbNwOJ_4core3ops4drop4Drop4dropCskazwg9rDpax_8tiebreak
FNDA:0,_RNvXs_NtNtCs3Snzs7u97BX_4skim3tui7backendINtB4_3TuiNtNtNtCs4CtSrCeEHDB_12ratatui_core7backend4test11TestBackendENtNtNtCs3IJltBbNwOJ_4core3ops5deref5Deref5derefCskazwg9rDpax_8tiebreak
FNF:15
FNH:0
DA:56,0
DA:57,0
DA:59,0
DA:60,0
DA:61,0
DA:62,0
DA:63,0
DA:66,0
DA:68,0
DA:69,0
DA:70,0
DA:71,0
DA:72,0
DA:74,0
DA:75,0
DA:76,0
DA:77,0
DA:79,0
DA:80,0
DA:81,0
DA:82,0
DA:83,0
DA:84,0
DA:85,0
DA:86,0
DA:87,0
DA:88,0
DA:89,0
DA:90,0
DA:91,0
DA:93,0
DA:96,0
DA:98,0
DA:99,0
DA:100,0
DA:101,0
DA:104,0
DA:105,0
DA:107,0
DA:131,0
DA:132,0
DA:133,0
DA:134,0
DA:135,0
DA:136,0
DA:137,0
DA:138,0
DA:139,0
DA:142,0
DA:143,0
DA:144,0
DA:145,0
DA:146,0
DA:150,0
DA:151,0
DA:152,0
DA:155,0
DA:156,0
DA:157,0
DA:158,0
DA:159,0
DA:160,0
DA:161,0
DA:162,0
DA:165,0
DA:166,0
DA:167,0
DA:169,0
DA:170,0
DA:171,0
DA:173,0
DA:174,0
DA:175,0
DA:176,0
DA:177,0
DA:178,0
DA:179,0
DA:180,0
DA:181,0
DA:182,0
DA:183,0
DA:184,0
DA:186,0
DA:187,0
DA:188,0
DA:189,0
DA:190,0
DA:191,0
DA:193,0
DA:194,0
DA:195,0
DA:196,0
DA:197,0
DA:198,0
DA:200,0
DA:201,0
DA:202,0
DA:203,0
DA:204,0
DA:205,0
DA:206,0
DA:207,0
DA:208,0
DA:209,0
DA:210,0
DA:213,0
DA:214,0
DA:215,0
DA:216,0
DA:217,0
DA:218,0
DA:221,0
DA:222,0
DA:225,0
DA:226,0
DA:227,0
DA:236,0
DA:237,0
DA:238,0
DA:245,0
DA:246,0
DA:247,0
DA:254,0
DA:255,0
DA:256,0
DA:257,0
DA:258,0
DA:259,0
DA:262,0
DA:263,0
DA:264,0
DA:265,0
DA:266,0
DA:267,0
DA:268,0
DA:269,0
DA:270,0
BRF:0
BRH:0
LF:141
LH:0
end_of_record
SF:/home/loric/src/skim/src/tui/event.rs
FN:29,_RINvMs_NtNtCs3Snzs7u97BX_4skim3tui5eventNtB5_14ActionCallback3newNCNvB5_12parse_actionse_0EB9_
FN:35,_RNCINvMs_NtNtCs3Snzs7u97BX_4skim3tui5eventNtB7_14ActionCallback3newNCNvB7_12parse_actionse_0E0Bb_
FN:262,_RNCNvNtNtCs3Snzs7u97BX_4skim3tui5event12parse_action0B7_
FN:320,_RNCNvNtNtCs3Snzs7u97BX_4skim3tui5event12parse_actions0_0B7_
FN:321,_RNCNvNtNtCs3Snzs7u97BX_4skim3tui5event12parse_actions1_0B7_
FN:322,_RNCNvNtNtCs3Snzs7u97BX_4skim3tui5event12parse_actions2_0B7_
FN:323,_RNCNvNtNtCs3Snzs7u97BX_4skim3tui5event12parse_actions3_0B7_
FN:324,_RNCNvNtNtCs3Snzs7u97BX_4skim3tui5event12parse_actions4_0B7_
FN:325,_RNCNvNtNtCs3Snzs7u97BX_4skim3tui5event12parse_actions5_0B7_
FN:326,_RNCNvNtNtCs3Snzs7u97BX_4skim3tui5event12parse_actions6_0B7_
FN:327,_RNCNvNtNtCs3Snzs7u97BX_4skim3tui5event12parse_actions7_0B7_
FN:328,_RNCNvNtNtCs3Snzs7u97BX_4skim3tui5event12parse_actions8_0B7_
FN:329,_RNCNvNtNtCs3Snzs7u97BX_4skim3tui5event12parse_actions9_0B7_
FN:308,_RNCNvNtNtCs3Snzs7u97BX_4skim3tui5event12parse_actions_0B7_
FN:337,_RNCNvNtNtCs3Snzs7u97BX_4skim3tui5event12parse_actionsa_0B7_
FN:338,_RNCNvNtNtCs3Snzs7u97BX_4skim3tui5event12parse_actionsb_0B7_
FN:341,_RNCNvNtNtCs3Snzs7u97BX_4skim3tui5event12parse_actionsc_0B7_
FN:354,_RNCNvNtNtCs3Snzs7u97BX_4skim3tui5event12parse_actionsd_0B7_
FN:359,_RNCNvNtNtCs3Snzs7u97BX_4skim3tui5event12parse_actionse_0B7_
FN:49,_RNvMs_NtNtCs3Snzs7u97BX_4skim3tui5eventNtB4_14ActionCallback4call
FN:243,_RNvNtNtCs3Snzs7u97BX_4skim3tui5event12parse_action
FN:17,_RNvXNtNtCs3Snzs7u97BX_4skim3tui5eventNtB2_14ActionCallbackNtNtCs3IJltBbNwOJ_4core3fmt5Debug3fmt
FN:29,_RINvMs_NtNtCs2dRlemTKIe9_4skim3tui5eventNtB5_14ActionCallback3newNCNvB5_12parse_actionse_0EB9_
FN:35,_RNCINvMs_NtNtCs2dRlemTKIe9_4skim3tui5eventNtB7_14ActionCallback3newNCNvB7_12parse_actionse_0E0Bb_
FN:262,_RNCNvNtNtCs2dRlemTKIe9_4skim3tui5event12parse_action0B7_
FN:320,_RNCNvNtNtCs2dRlemTKIe9_4skim3tui5event12parse_actions0_0B7_
FN:321,_RNCNvNtNtCs2dRlemTKIe9_4skim3tui5event12parse_actions1_0B7_
FN:322,_RNCNvNtNtCs2dRlemTKIe9_4skim3tui5event12parse_actions2_0B7_
FN:323,_RNCNvNtNtCs2dRlemTKIe9_4skim3tui5event12parse_actions3_0B7_
FN:324,_RNCNvNtNtCs2dRlemTKIe9_4skim3tui5event12parse_actions4_0B7_
FN:325,_RNCNvNtNtCs2dRlemTKIe9_4skim3tui5event12parse_actions5_0B7_
FN:326,_RNCNvNtNtCs2dRlemTKIe9_4skim3tui5event12parse_actions6_0B7_
FN:327,_RNCNvNtNtCs2dRlemTKIe9_4skim3tui5event12parse_actions7_0B7_
FN:328,_RNCNvNtNtCs2dRlemTKIe9_4skim3tui5event12parse_actions8_0B7_
FN:329,_RNCNvNtNtCs2dRlemTKIe9_4skim3tui5event12parse_actions9_0B7_
FN:308,_RNCNvNtNtCs2dRlemTKIe9_4skim3tui5event12parse_actions_0B7_
FN:337,_RNCNvNtNtCs2dRlemTKIe9_4skim3tui5event12parse_actionsa_0B7_
FN:338,_RNCNvNtNtCs2dRlemTKIe9_4skim3tui5event12parse_actionsb_0B7_
FN:341,_RNCNvNtNtCs2dRlemTKIe9_4skim3tui5event12parse_actionsc_0B7_
FN:354,_RNCNvNtNtCs2dRlemTKIe9_4skim3tui5event12parse_actionsd_0B7_
FN:359,_RNCNvNtNtCs2dRlemTKIe9_4skim3tui5event12parse_actionse_0B7_
FN:243,_RNvNtNtCs2dRlemTKIe9_4skim3tui5event12parse_action
FN:49,_RNvMs_NtNtCs2dRlemTKIe9_4skim3tui5eventNtB4_14ActionCallback4call
FN:17,_RNvXNtNtCs2dRlemTKIe9_4skim3tui5eventNtB2_14ActionCallbackNtNtCs3IJltBbNwOJ_4core3fmt5Debug3fmt
FNDA:0,_RINvMs_NtNtCs3Snzs7u97BX_4skim3tui5eventNtB5_14ActionCallback3newNCNvB5_12parse_actionse_0EB9_
FNDA:0,_RNCINvMs_NtNtCs3Snzs7u97BX_4skim3tui5eventNtB7_14ActionCallback3newNCNvB7_12parse_actionse_0E0Bb_
FNDA:0,_RNCNvNtNtCs3Snzs7u97BX_4skim3tui5event12parse_action0B7_
FNDA:0,_RNCNvNtNtCs3Snzs7u97BX_4skim3tui5event12parse_actions0_0B7_
FNDA:0,_RNCNvNtNtCs3Snzs7u97BX_4skim3tui5event12parse_actions1_0B7_
FNDA:0,_RNCNvNtNtCs3Snzs7u97BX_4skim3tui5event12parse_actions2_0B7_
FNDA:0,_RNCNvNtNtCs3Snzs7u97BX_4skim3tui5event12parse_actions3_0B7_
FNDA:0,_RNCNvNtNtCs3Snzs7u97BX_4skim3tui5event12parse_actions4_0B7_
FNDA:0,_RNCNvNtNtCs3Snzs7u97BX_4skim3tui5event12parse_actions5_0B7_
FNDA:0,_RNCNvNtNtCs3Snzs7u97BX_4skim3tui5event12parse_actions6_0B7_
FNDA:0,_RNCNvNtNtCs3Snzs7u97BX_4skim3tui5event12parse_actions7_0B7_
FNDA:0,_RNCNvNtNtCs3Snzs7u97BX_4skim3tui5event12parse_actions8_0B7_
FNDA:0,_RNCNvNtNtCs3Snzs7u97BX_4skim3tui5event12parse_actions9_0B7_
FNDA:0,_RNCNvNtNtCs3Snzs7u97BX_4skim3tui5event12parse_actions_0B7_
FNDA:0,_RNCNvNtNtCs3Snzs7u97BX_4skim3tui5event12parse_actionsa_0B7_
FNDA:0,_RNCNvNtNtCs3Snzs7u97BX_4skim3tui5event12parse_actionsb_0B7_
FNDA:0,_RNCNvNtNtCs3Snzs7u97BX_4skim3tui5event12parse_actionsc_0B7_
FNDA:0,_RNCNvNtNtCs3Snzs7u97BX_4skim3tui5event12parse_actionsd_0B7_
FNDA:0,_RNCNvNtNtCs3Snzs7u97BX_4skim3tui5event12parse_actionse_0B7_
FNDA:0,_RNvMs_NtNtCs3Snzs7u97BX_4skim3tui5eventNtB4_14ActionCallback4call
FNDA:0,_RNvNtNtCs3Snzs7u97BX_4skim3tui5event12parse_action
FNDA:0,_RNvXNtNtCs3Snzs7u97BX_4skim3tui5eventNtB2_14ActionCallbackNtNtCs3IJltBbNwOJ_4core3fmt5Debug3fmt
FNDA:0,_RINvMs_NtNtCs2dRlemTKIe9_4skim3tui5eventNtB5_14ActionCallback3newNCNvB5_12parse_actionse_0EB9_
FNDA:0,_RNCINvMs_NtNtCs2dRlemTKIe9_4skim3tui5eventNtB7_14ActionCallback3newNCNvB7_12parse_actionse_0E0Bb_
FNDA:0,_RNCNvNtNtCs2dRlemTKIe9_4skim3tui5event12parse_action0B7_
FNDA:0,_RNCNvNtNtCs2dRlemTKIe9_4skim3tui5event12parse_actions0_0B7_
FNDA:0,_RNCNvNtNtCs2dRlemTKIe9_4skim3tui5event12parse_actions1_0B7_
FNDA:0,_RNCNvNtNtCs2dRlemTKIe9_4skim3tui5event12parse_actions2_0B7_
FNDA:0,_RNCNvNtNtCs2dRlemTKIe9_4skim3tui5event12parse_actions3_0B7_
FNDA:0,_RNCNvNtNtCs2dRlemTKIe9_4skim3tui5event12parse_actions4_0B7_
FNDA:0,_RNCNvNtNtCs2dRlemTKIe9_4skim3tui5event12parse_actions5_0B7_
FNDA:0,_RNCNvNtNtCs2dRlemTKIe9_4skim3tui5event12parse_actions6_0B7_
FNDA:0,_RNCNvNtNtCs2dRlemTKIe9_4skim3tui5event12parse_actions7_0B7_
FNDA:0,_RNCNvNtNtCs2dRlemTKIe9_4skim3tui5event12parse_actions8_0B7_
FNDA:0,_RNCNvNtNtCs2dRlemTKIe9_4skim3tui5event12parse_actions9_0B7_
FNDA:0,_RNCNvNtNtCs2dRlemTKIe9_4skim3tui5event12parse_actions_0B7_
FNDA:0,_RNCNvNtNtCs2dRlemTKIe9_4skim3tui5event12parse_actionsa_0B7_
FNDA:0,_RNCNvNtNtCs2dRlemTKIe9_4skim3tui5event12parse_actionsb_0B7_
FNDA:0,_RNCNvNtNtCs2dRlemTKIe9_4skim3tui5event12parse_actionsc_0B7_
FNDA:0,_RNCNvNtNtCs2dRlemTKIe9_4skim3tui5event12parse_actionsd_0B7_
FNDA:0,_RNCNvNtNtCs2dRlemTKIe9_4skim3tui5event12parse_actionse_0B7_
FNDA:0,_RNvNtNtCs2dRlemTKIe9_4skim3tui5event12parse_action
FNDA:0,_RNvMs_NtNtCs2dRlemTKIe9_4skim3tui5eventNtB4_14ActionCallback4call
FNDA:0,_RNvXNtNtCs2dRlemTKIe9_4skim3tui5eventNtB2_14ActionCallbackNtNtCs3IJltBbNwOJ_4core3fmt5Debug3fmt
FNF:22
FNH:0
DA:17,0
DA:18,0
DA:19,0
DA:29,0
DA:30,0
DA:31,0
DA:32,0
DA:33,0
DA:35,0
DA:40,0
DA:41,0
DA:42,0
DA:43,0
DA:49,0
DA:50,0
DA:51,0
DA:52,0
DA:53,0
DA:55,0
DA:56,0
DA:57,0
DA:243,0
DA:244,0
DA:246,0
DA:247,0
DA:248,0
DA:249,0
DA:250,0
DA:251,0
DA:252,0
DA:255,0
DA:258,0
DA:260,0
DA:262,0
DA:263,0
DA:264,0
DA:265,0
DA:266,0
DA:267,0
DA:268,0
DA:269,0
DA:270,0
DA:271,0
DA:272,0
DA:273,0
DA:275,0
DA:276,0
DA:277,0
DA:278,0
DA:279,0
DA:280,0
DA:281,0
DA:282,0
DA:285,0
DA:286,0
DA:288,0
DA:289,0
DA:290,0
DA:291,0
DA:292,0
DA:293,0
DA:294,0
DA:296,0
DA:297,0
DA:298,0
DA:299,0
DA:300,0
DA:301,0
DA:302,0
DA:303,0
DA:304,0
DA:305,0
DA:306,0
DA:307,0
DA:308,0
DA:309,0
DA:310,0
DA:311,0
DA:312,0
DA:313,0
DA:314,0
DA:315,0
DA:316,0
DA:317,0
DA:318,0
DA:319,0
DA:320,0
DA:321,0
DA:322,0
DA:323,0
DA:324,0
DA:325,0
DA:326,0
DA:327,0
DA:328,0
DA:329,0
DA:330,0
DA:331,0
DA:332,0
DA:333,0
DA:334,0
DA:335,0
DA:336,0
DA:337,0
DA:338,0
DA:339,0
DA:340,0
DA:341,0
DA:342,0
DA:343,0
DA:344,0
DA:345,0
DA:346,0
DA:347,0
DA:348,0
DA:349,0
DA:350,0
DA:351,0
DA:352,0
DA:353,0
DA:354,0
DA:355,0
DA:356,0
DA:357,0
DA:358,0
DA:359,0
DA:361,0
DA:364,0
BRF:0
BRH:0
LF:146
LH:0
end_of_record
SF:/home/loric/src/skim/src/tui/header.rs
FN:83,_RNvMs_NtNtCs3Snzs7u97BX_4skim3tui6headerNtB4_6Header11header_text
FN:77,_RNvMs_NtNtCs3Snzs7u97BX_4skim3tui6headerNtB4_6Header16set_header_lines
FN:59,_RNvMs_NtNtCs3Snzs7u97BX_4skim3tui6headerNtB4_6Header5theme
FN:64,_RNvMs_NtNtCs3Snzs7u97BX_4skim3tui6headerNtB4_6Header6height
FN:91,_RNvNtNtCs3Snzs7u97BX_4skim3tui6header13apply_tabstop
FN:44,_RNvXNtNtCs3Snzs7u97BX_4skim3tui6headerNtB2_6HeaderNtNtCs3IJltBbNwOJ_4core7default7Default7default
FN:110,_RNvXs0_NtNtCs3Snzs7u97BX_4skim3tui6headerNtB5_6HeaderNtNtB7_6widget10SkimWidget12from_options
FN:134,_RNvXs0_NtNtCs3Snzs7u97BX_4skim3tui6headerNtB5_6HeaderNtNtB7_6widget10SkimWidget6render
FN:83,_RNvMs_NtNtCs2dRlemTKIe9_4skim3tui6headerNtB4_6Header11header_text
FN:77,_RNvMs_NtNtCs2dRlemTKIe9_4skim3tui6headerNtB4_6Header16set_header_lines
FN:59,_RNvMs_NtNtCs2dRlemTKIe9_4skim3tui6headerNtB4_6Header5theme
FN:64,_RNvMs_NtNtCs2dRlemTKIe9_4skim3tui6headerNtB4_6Header6height
FN:91,_RNvNtNtCs2dRlemTKIe9_4skim3tui6header13apply_tabstop
FN:44,_RNvXNtNtCs2dRlemTKIe9_4skim3tui6headerNtB2_6HeaderNtNtCs3IJltBbNwOJ_4core7default7Default7default
FN:110,_RNvXs0_NtNtCs2dRlemTKIe9_4skim3tui6headerNtB5_6HeaderNtNtB7_6widget10SkimWidget12from_options
FN:134,_RNvXs0_NtNtCs2dRlemTKIe9_4skim3tui6headerNtB5_6HeaderNtNtB7_6widget10SkimWidget6render
FNDA:0,_RNvMs_NtNtCs3Snzs7u97BX_4skim3tui6headerNtB4_6Header11header_text
FNDA:0,_RNvMs_NtNtCs3Snzs7u97BX_4skim3tui6headerNtB4_6Header16set_header_lines
FNDA:0,_RNvMs_NtNtCs3Snzs7u97BX_4skim3tui6headerNtB4_6Header5theme
FNDA:0,_RNvMs_NtNtCs3Snzs7u97BX_4skim3tui6headerNtB4_6Header6height
FNDA:0,_RNvNtNtCs3Snzs7u97BX_4skim3tui6header13apply_tabstop
FNDA:0,_RNvXNtNtCs3Snzs7u97BX_4skim3tui6headerNtB2_6HeaderNtNtCs3IJltBbNwOJ_4core7default7Default7default
FNDA:0,_RNvXs0_NtNtCs3Snzs7u97BX_4skim3tui6headerNtB5_6HeaderNtNtB7_6widget10SkimWidget12from_options
FNDA:0,_RNvXs0_NtNtCs3Snzs7u97BX_4skim3tui6headerNtB5_6HeaderNtNtB7_6widget10SkimWidget6render
FNDA:0,_RNvMs_NtNtCs2dRlemTKIe9_4skim3tui6headerNtB4_6Header11header_text
FNDA:0,_RNvMs_NtNtCs2dRlemTKIe9_4skim3tui6headerNtB4_6Header16set_header_lines
FNDA:0,_RNvMs_NtNtCs2dRlemTKIe9_4skim3tui6headerNtB4_6Header5theme
FNDA:0,_RNvMs_NtNtCs2dRlemTKIe9_4skim3tui6headerNtB4_6Header6height
FNDA:0,_RNvNtNtCs2dRlemTKIe9_4skim3tui6header13apply_tabstop
FNDA:0,_RNvXNtNtCs2dRlemTKIe9_4skim3tui6headerNtB2_6HeaderNtNtCs3IJltBbNwOJ_4core7default7Default7default
FNDA:0,_RNvXs0_NtNtCs2dRlemTKIe9_4skim3tui6headerNtB5_6HeaderNtNtB7_6widget10SkimWidget12from_options
FNDA:0,_RNvXs0_NtNtCs2dRlemTKIe9_4skim3tui6headerNtB5_6HeaderNtNtB7_6widget10SkimWidget6render
FNF:8
FNH:0
DA:44,0
DA:45,0
DA:46,0
DA:47,0
DA:48,0
DA:49,0
DA:50,0
DA:51,0
DA:52,0
DA:53,0
DA:54,0
DA:59,0
DA:60,0
DA:61,0
DA:62,0
DA:64,0
DA:65,0
DA:66,0
DA:68,0
DA:70,0
DA:71,0
DA:72,0
DA:73,0
DA:74,0
DA:77,0
DA:78,0
DA:79,0
DA:80,0
DA:81,0
DA:82,0
DA:83,0
DA:84,0
DA:85,0
DA:86,0
DA:87,0
DA:91,0
DA:92,0
DA:93,0
DA:95,0
DA:96,0
DA:97,0
DA:98,0
DA:99,0
DA:100,0
DA:101,0
DA:102,0
DA:103,0
DA:106,0
DA:107,0
DA:110,0
DA:111,0
DA:112,0
DA:115,0
DA:119,0
DA:121,0
DA:122,0
DA:123,0
DA:124,0
DA:125,0
DA:126,0
DA:127,0
DA:128,0
DA:129,0
DA:130,0
DA:131,0
DA:132,0
DA:134,0
DA:135,0
DA:136,0
DA:137,0
DA:138,0
DA:139,0
DA:141,0
DA:143,0
DA:146,0
DA:147,0
DA:149,0
DA:152,0
DA:153,0
DA:154,0
DA:155,0
DA:157,0
DA:158,0
DA:159,0
DA:160,0
DA:161,0
DA:164,0
DA:165,0
DA:166,0
DA:168,0
DA:169,0
DA:170,0
DA:171,0
DA:173,0
DA:174,0
BRF:0
BRH:0
LF:95
LH:0
end_of_record
SF:/home/loric/src/skim/src/tui/input.rs
FN:453,_RNCNvXs1_NtNtCs3Snzs7u97BX_4skim3tui5inputNtB7_5InputNtNtB9_6widget10SkimWidget6render0Bb_
FN:454,_RNCNvXs1_NtNtCs3Snzs7u97BX_4skim3tui5inputNtB7_5InputNtNtB9_6widget10SkimWidget6renders_0Bb_
FN:48,_RNvMNtNtCs3Snzs7u97BX_4skim3tui5inputNtB2_10StatusInfo10left_title
FN:127,_RNvMNtNtCs3Snzs7u97BX_4skim3tui5inputNtB2_10StatusInfo11right_title
FN:101,_RNvMNtNtCs3Snzs7u97BX_4skim3tui5inputNtB2_10StatusInfo13inline_status
FN:87,_RNvMNtNtCs3Snzs7u97BX_4skim3tui5inputNtB2_10StatusInfo16inline_separator
FN:407,_RNvMs0_NtNtCs3Snzs7u97BX_4skim3tui5inputNtB5_5Input10cursor_pos
FN:176,_RNvMs0_NtNtCs3Snzs7u97BX_4skim3tui5inputNtB5_5Input10insert_str
FN:204,_RNvMs0_NtNtCs3Snzs7u97BX_4skim3tui5inputNtB5_5Input11move_cursor
FN:227,_RNvMs0_NtNtCs3Snzs7u97BX_4skim3tui5inputNtB5_5Input11move_to_end
FN:412,_RNvMs0_NtNtCs3Snzs7u97BX_4skim3tui5inputNtB5_5Input11switch_mode
FN:237,_RNvMs0_NtNtCs3Snzs7u97BX_4skim3tui5inputNtB5_5Input12is_word_char
FN:220,_RNvMs0_NtNtCs3Snzs7u97BX_4skim3tui5inputNtB5_5Input14move_cursor_to
FN:242,_RNvMs0_NtNtCs3Snzs7u97BX_4skim3tui5inputNtB5_5Input18find_next_word_end
FN:383,_RNvMs0_NtNtCs3Snzs7u97BX_4skim3tui5inputNtB5_5Input19delete_forward_word
FN:401,_RNvMs0_NtNtCs3Snzs7u97BX_4skim3tui5inputNtB5_5Input19delete_to_beginning
FN:344,_RNvMs0_NtNtCs3Snzs7u97BX_4skim3tui5inputNtB5_5Input20delete_backward_word
FN:292,_RNvMs0_NtNtCs3Snzs7u97BX_4skim3tui5inputNtB5_5Input20find_prev_word_start
FN:267,_RNvMs0_NtNtCs3Snzs7u97BX_4skim3tui5inputNtB5_5Input22find_compound_word_end
FN:316,_RNvMs0_NtNtCs3Snzs7u97BX_4skim3tui5inputNtB5_5Input24find_delete_backward_pos
FN:392,_RNvMs0_NtNtCs3Snzs7u97BX_4skim3tui5inputNtB5_5Input24move_cursor_forward_word
FN:397,_RNvMs0_NtNtCs3Snzs7u97BX_4skim3tui5inputNtB5_5Input25move_cursor_backward_word
FN:360,_RNvMs0_NtNtCs3Snzs7u97BX_4skim3tui5inputNtB5_5Input29delete_backward_to_whitespace
FN:188,_RNvMs0_NtNtCs3Snzs7u97BX_4skim3tui5inputNtB5_5Input6delete
FN:171,_RNvMs0_NtNtCs3Snzs7u97BX_4skim3tui5inputNtB5_5Input6insert
FN:185,_RNvMs0_NtNtCs3Snzs7u97BX_4skim3tui5inputNtB5_5Input6nchars
FN:420,_RNvXs1_NtNtCs3Snzs7u97BX_4skim3tui5inputNtB5_5InputNtNtB7_6widget10SkimWidget12from_options
FN:444,_RNvXs1_NtNtCs3Snzs7u97BX_4skim3tui5inputNtB5_5InputNtNtB7_6widget10SkimWidget6render
FN:557,_RNvXs2_NtNtCs3Snzs7u97BX_4skim3tui5inputNtB5_5InputNtNtNtCs3IJltBbNwOJ_4core3ops5deref5Deref5deref
FN:563,_RNvXs3_NtNtCs3Snzs7u97BX_4skim3tui5inputNtB5_5InputNtNtNtCs3IJltBbNwOJ_4core3ops5deref8DerefMut9deref_mut
FN:153,_RNvXs_NtNtCs3Snzs7u97BX_4skim3tui5inputNtB4_5InputNtNtCs3IJltBbNwOJ_4core7default7Default7default
FN:453,_RNCNvXs1_NtNtCs2dRlemTKIe9_4skim3tui5inputNtB7_5InputNtNtB9_6widget10SkimWidget6render0Bb_
FN:454,_RNCNvXs1_NtNtCs2dRlemTKIe9_4skim3tui5inputNtB7_5InputNtNtB9_6widget10SkimWidget6renders_0Bb_
FN:48,_RNvMNtNtCs2dRlemTKIe9_4skim3tui5inputNtB2_10StatusInfo10left_title
FN:127,_RNvMNtNtCs2dRlemTKIe9_4skim3tui5inputNtB2_10StatusInfo11right_title
FN:101,_RNvMNtNtCs2dRlemTKIe9_4skim3tui5inputNtB2_10StatusInfo13inline_status
FN:87,_RNvMNtNtCs2dRlemTKIe9_4skim3tui5inputNtB2_10StatusInfo16inline_separator
FN:407,_RNvMs0_NtNtCs2dRlemTKIe9_4skim3tui5inputNtB5_5Input10cursor_pos
FN:176,_RNvMs0_NtNtCs2dRlemTKIe9_4skim3tui5inputNtB5_5Input10insert_str
FN:204,_RNvMs0_NtNtCs2dRlemTKIe9_4skim3tui5inputNtB5_5Input11move_cursor
FN:227,_RNvMs0_NtNtCs2dRlemTKIe9_4skim3tui5inputNtB5_5Input11move_to_end
FN:412,_RNvMs0_NtNtCs2dRlemTKIe9_4skim3tui5inputNtB5_5Input11switch_mode
FN:237,_RNvMs0_NtNtCs2dRlemTKIe9_4skim3tui5inputNtB5_5Input12is_word_char
FN:220,_RNvMs0_NtNtCs2dRlemTKIe9_4skim3tui5inputNtB5_5Input14move_cursor_to
FN:242,_RNvMs0_NtNtCs2dRlemTKIe9_4skim3tui5inputNtB5_5Input18find_next_word_end
FN:383,_RNvMs0_NtNtCs2dRlemTKIe9_4skim3tui5inputNtB5_5Input19delete_forward_word
FN:401,_RNvMs0_NtNtCs2dRlemTKIe9_4skim3tui5inputNtB5_5Input19delete_to_beginning
FN:344,_RNvMs0_NtNtCs2dRlemTKIe9_4skim3tui5inputNtB5_5Input20delete_backward_word
FN:292,_RNvMs0_NtNtCs2dRlemTKIe9_4skim3tui5inputNtB5_5Input20find_prev_word_start
FN:267,_RNvMs0_NtNtCs2dRlemTKIe9_4skim3tui5inputNtB5_5Input22find_compound_word_end
FN:316,_RNvMs0_NtNtCs2dRlemTKIe9_4skim3tui5inputNtB5_5Input24find_delete_backward_pos
FN:392,_RNvMs0_NtNtCs2dRlemTKIe9_4skim3tui5inputNtB5_5Input24move_cursor_forward_word
FN:397,_RNvMs0_NtNtCs2dRlemTKIe9_4skim3tui5inputNtB5_5Input25move_cursor_backward_word
FN:360,_RNvMs0_NtNtCs2dRlemTKIe9_4skim3tui5inputNtB5_5Input29delete_backward_to_whitespace
FN:188,_RNvMs0_NtNtCs2dRlemTKIe9_4skim3tui5inputNtB5_5Input6delete
FN:171,_RNvMs0_NtNtCs2dRlemTKIe9_4skim3tui5inputNtB5_5Input6insert
FN:185,_RNvMs0_NtNtCs2dRlemTKIe9_4skim3tui5inputNtB5_5Input6nchars
FN:420,_RNvXs1_NtNtCs2dRlemTKIe9_4skim3tui5inputNtB5_5InputNtNtB7_6widget10SkimWidget12from_options
FN:444,_RNvXs1_NtNtCs2dRlemTKIe9_4skim3tui5inputNtB5_5InputNtNtB7_6widget10SkimWidget6render
FN:557,_RNvXs2_NtNtCs2dRlemTKIe9_4skim3tui5inputNtB5_5InputNtNtNtCs3IJltBbNwOJ_4core3ops5deref5Deref5deref
FN:563,_RNvXs3_NtNtCs2dRlemTKIe9_4skim3tui5inputNtB5_5InputNtNtNtCs3IJltBbNwOJ_4core3ops5deref8DerefMut9deref_mut
FN:153,_RNvXs_NtNtCs2dRlemTKIe9_4skim3tui5inputNtB4_5InputNtNtCs3IJltBbNwOJ_4core7default7Default7default
FNDA:0,_RNCNvXs1_NtNtCs3Snzs7u97BX_4skim3tui5inputNtB7_5InputNtNtB9_6widget10SkimWidget6render0Bb_
FNDA:0,_RNCNvXs1_NtNtCs3Snzs7u97BX_4skim3tui5inputNtB7_5InputNtNtB9_6widget10SkimWidget6renders_0Bb_
FNDA:0,_RNvMNtNtCs3Snzs7u97BX_4skim3tui5inputNtB2_10StatusInfo10left_title
FNDA:0,_RNvMNtNtCs3Snzs7u97BX_4skim3tui5inputNtB2_10StatusInfo11right_title
FNDA:0,_RNvMNtNtCs3Snzs7u97BX_4skim3tui5inputNtB2_10StatusInfo13inline_status
FNDA:0,_RNvMNtNtCs3Snzs7u97BX_4skim3tui5inputNtB2_10StatusInfo16inline_separator
FNDA:0,_RNvMs0_NtNtCs3Snzs7u97BX_4skim3tui5inputNtB5_5Input10cursor_pos
FNDA:0,_RNvMs0_NtNtCs3Snzs7u97BX_4skim3tui5inputNtB5_5Input10insert_str
FNDA:0,_RNvMs0_NtNtCs3Snzs7u97BX_4skim3tui5inputNtB5_5Input11move_cursor
FNDA:0,_RNvMs0_NtNtCs3Snzs7u97BX_4skim3tui5inputNtB5_5Input11move_to_end
FNDA:0,_RNvMs0_NtNtCs3Snzs7u97BX_4skim3tui5inputNtB5_5Input11switch_mode
FNDA:0,_RNvMs0_NtNtCs3Snzs7u97BX_4skim3tui5inputNtB5_5Input12is_word_char
FNDA:0,_RNvMs0_NtNtCs3Snzs7u97BX_4skim3tui5inputNtB5_5Input14move_cursor_to
FNDA:0,_RNvMs0_NtNtCs3Snzs7u97BX_4skim3tui5inputNtB5_5Input18find_next_word_end
FNDA:0,_RNvMs0_NtNtCs3Snzs7u97BX_4skim3tui5inputNtB5_5Input19delete_forward_word
FNDA:0,_RNvMs0_NtNtCs3Snzs7u97BX_4skim3tui5inputNtB5_5Input19delete_to_beginning
FNDA:0,_RNvMs0_NtNtCs3Snzs7u97BX_4skim3tui5inputNtB5_5Input20delete_backward_word
FNDA:0,_RNvMs0_NtNtCs3Snzs7u97BX_4skim3tui5inputNtB5_5Input20find_prev_word_start
FNDA:0,_RNvMs0_NtNtCs3Snzs7u97BX_4skim3tui5inputNtB5_5Input22find_compound_word_end
FNDA:0,_RNvMs0_NtNtCs3Snzs7u97BX_4skim3tui5inputNtB5_5Input24find_delete_backward_pos
FNDA:0,_RNvMs0_NtNtCs3Snzs7u97BX_4skim3tui5inputNtB5_5Input24move_cursor_forward_word
FNDA:0,_RNvMs0_NtNtCs3Snzs7u97BX_4skim3tui5inputNtB5_5Input25move_cursor_backward_word
FNDA:0,_RNvMs0_NtNtCs3Snzs7u97BX_4skim3tui5inputNtB5_5Input29delete_backward_to_whitespace
FNDA:0,_RNvMs0_NtNtCs3Snzs7u97BX_4skim3tui5inputNtB5_5Input6delete
FNDA:0,_RNvMs0_NtNtCs3Snzs7u97BX_4skim3tui5inputNtB5_5Input6insert
FNDA:0,_RNvMs0_NtNtCs3Snzs7u97BX_4skim3tui5inputNtB5_5Input6nchars
FNDA:0,_RNvXs1_NtNtCs3Snzs7u97BX_4skim3tui5inputNtB5_5InputNtNtB7_6widget10SkimWidget12from_options
FNDA:0,_RNvXs1_NtNtCs3Snzs7u97BX_4skim3tui5inputNtB5_5InputNtNtB7_6widget10SkimWidget6render
FNDA:0,_RNvXs2_NtNtCs3Snzs7u97BX_4skim3tui5inputNtB5_5InputNtNtNtCs3IJltBbNwOJ_4core3ops5deref5Deref5deref
FNDA:0,_RNvXs3_NtNtCs3Snzs7u97BX_4skim3tui5inputNtB5_5InputNtNtNtCs3IJltBbNwOJ_4core3ops5deref8DerefMut9deref_mut
FNDA:0,_RNvXs_NtNtCs3Snzs7u97BX_4skim3tui5inputNtB4_5InputNtNtCs3IJltBbNwOJ_4core7default7Default7default
FNDA:0,_RNCNvXs1_NtNtCs2dRlemTKIe9_4skim3tui5inputNtB7_5InputNtNtB9_6widget10SkimWidget6render0Bb_
FNDA:0,_RNCNvXs1_NtNtCs2dRlemTKIe9_4skim3tui5inputNtB7_5InputNtNtB9_6widget10SkimWidget6renders_0Bb_
FNDA:0,_RNvMNtNtCs2dRlemTKIe9_4skim3tui5inputNtB2_10StatusInfo10left_title
FNDA:0,_RNvMNtNtCs2dRlemTKIe9_4skim3tui5inputNtB2_10StatusInfo11right_title
FNDA:0,_RNvMNtNtCs2dRlemTKIe9_4skim3tui5inputNtB2_10StatusInfo13inline_status
FNDA:0,_RNvMNtNtCs2dRlemTKIe9_4skim3tui5inputNtB2_10StatusInfo16inline_separator
FNDA:0,_RNvMs0_NtNtCs2dRlemTKIe9_4skim3tui5inputNtB5_5Input10cursor_pos
FNDA:0,_RNvMs0_NtNtCs2dRlemTKIe9_4skim3tui5inputNtB5_5Input10insert_str
FNDA:0,_RNvMs0_NtNtCs2dRlemTKIe9_4skim3tui5inputNtB5_5Input11move_cursor
FNDA:0,_RNvMs0_NtNtCs2dRlemTKIe9_4skim3tui5inputNtB5_5Input11move_to_end
FNDA:0,_RNvMs0_NtNtCs2dRlemTKIe9_4skim3tui5inputNtB5_5Input11switch_mode
FNDA:0,_RNvMs0_NtNtCs2dRlemTKIe9_4skim3tui5inputNtB5_5Input12is_word_char
FNDA:0,_RNvMs0_NtNtCs2dRlemTKIe9_4skim3tui5inputNtB5_5Input14move_cursor_to
FNDA:0,_RNvMs0_NtNtCs2dRlemTKIe9_4skim3tui5inputNtB5_5Input18find_next_word_end
FNDA:0,_RNvMs0_NtNtCs2dRlemTKIe9_4skim3tui5inputNtB5_5Input19delete_forward_word
FNDA:0,_RNvMs0_NtNtCs2dRlemTKIe9_4skim3tui5inputNtB5_5Input19delete_to_beginning
FNDA:0,_RNvMs0_NtNtCs2dRlemTKIe9_4skim3tui5inputNtB5_5Input20delete_backward_word
FNDA:0,_RNvMs0_NtNtCs2dRlemTKIe9_4skim3tui5inputNtB5_5Input20find_prev_word_start
FNDA:0,_RNvMs0_NtNtCs2dRlemTKIe9_4skim3tui5inputNtB5_5Input22find_compound_word_end
FNDA:0,_RNvMs0_NtNtCs2dRlemTKIe9_4skim3tui5inputNtB5_5Input24find_delete_backward_pos
FNDA:0,_RNvMs0_NtNtCs2dRlemTKIe9_4skim3tui5inputNtB5_5Input24move_cursor_forward_word
FNDA:0,_RNvMs0_NtNtCs2dRlemTKIe9_4skim3tui5inputNtB5_5Input25move_cursor_backward_word
FNDA:0,_RNvMs0_NtNtCs2dRlemTKIe9_4skim3tui5inputNtB5_5Input29delete_backward_to_whitespace
FNDA:0,_RNvMs0_NtNtCs2dRlemTKIe9_4skim3tui5inputNtB5_5Input6delete
FNDA:0,_RNvMs0_NtNtCs2dRlemTKIe9_4skim3tui5inputNtB5_5Input6insert
FNDA:0,_RNvMs0_NtNtCs2dRlemTKIe9_4skim3tui5inputNtB5_5Input6nchars
FNDA:0,_RNvXs1_NtNtCs2dRlemTKIe9_4skim3tui5inputNtB5_5InputNtNtB7_6widget10SkimWidget12from_options
FNDA:0,_RNvXs1_NtNtCs2dRlemTKIe9_4skim3tui5inputNtB5_5InputNtNtB7_6widget10SkimWidget6render
FNDA:0,_RNvXs2_NtNtCs2dRlemTKIe9_4skim3tui5inputNtB5_5InputNtNtNtCs3IJltBbNwOJ_4core3ops5deref5Deref5deref
FNDA:0,_RNvXs3_NtNtCs2dRlemTKIe9_4skim3tui5inputNtB5_5InputNtNtNtCs3IJltBbNwOJ_4core3ops5deref8DerefMut9deref_mut
FNDA:0,_RNvXs_NtNtCs2dRlemTKIe9_4skim3tui5inputNtB4_5InputNtNtCs3IJltBbNwOJ_4core7default7Default7default
FNF:31
FNH:0
DA:48,0
DA:49,0
DA:52,0
DA:53,0
DA:54,0
DA:55,0
DA:56,0
DA:57,0
DA:58,0
DA:59,0
DA:60,0
DA:61,0
DA:64,0
DA:67,0
DA:68,0
DA:69,0
DA:72,0
DA:73,0
DA:74,0
DA:75,0
DA:78,0
DA:79,0
DA:80,0
DA:82,0
DA:83,0
DA:87,0
DA:88,0
DA:89,0
DA:91,0
DA:92,0
DA:93,0
DA:95,0
DA:97,0
DA:101,0
DA:102,0
DA:105,0
DA:108,0
DA:109,0
DA:110,0
DA:113,0
DA:114,0
DA:115,0
DA:116,0
DA:119,0
DA:120,0
DA:121,0
DA:123,0
DA:124,0
DA:127,0
DA:128,0
DA:129,0
DA:153,0
DA:154,0
DA:155,0
DA:156,0
DA:157,0
DA:158,0
DA:159,0
DA:160,0
DA:161,0
DA:162,0
DA:163,0
DA:164,0
DA:165,0
DA:166,0
DA:167,0
DA:171,0
DA:172,0
DA:174,0
DA:175,0
DA:176,0
DA:177,0
DA:178,0
DA:179,0
DA:180,0
DA:181,0
DA:182,0
DA:184,0
DA:185,0
DA:186,0
DA:187,0
DA:188,0
DA:189,0
DA:190,0
DA:191,0
DA:192,0
DA:193,0
DA:194,0
DA:195,0
DA:196,0
DA:197,0
DA:199,0
DA:200,0
DA:201,0
DA:202,0
DA:203,0
DA:204,0
DA:205,0
DA:206,0
DA:207,0
DA:208,0
DA:209,0
DA:210,0
DA:211,0
DA:212,0
DA:213,0
DA:214,0
DA:215,0
DA:216,0
DA:217,0
DA:218,0
DA:219,0
DA:220,0
DA:221,0
DA:222,0
DA:223,0
DA:224,0
DA:226,0
DA:227,0
DA:228,0
DA:229,0
DA:230,0
DA:231,0
DA:232,0
DA:234,0
DA:237,0
DA:238,0
DA:239,0
DA:242,0
DA:243,0
DA:246,0
DA:247,0
DA:248,0
DA:249,0
DA:250,0
DA:251,0
DA:255,0
DA:256,0
DA:257,0
DA:258,0
DA:259,0
DA:260,0
DA:263,0
DA:264,0
DA:267,0
DA:268,0
DA:271,0
DA:272,0
DA:273,0
DA:274,0
DA:275,0
DA:276,0
DA:280,0
DA:281,0
DA:282,0
DA:283,0
DA:284,0
DA:285,0
DA:288,0
DA:289,0
DA:292,0
DA:293,0
DA:294,0
DA:295,0
DA:297,0
DA:300,0
DA:303,0
DA:304,0
DA:305,0
DA:308,0
DA:309,0
DA:310,0
DA:312,0
DA:313,0
DA:316,0
DA:317,0
DA:318,0
DA:319,0
DA:321,0
DA:324,0
DA:325,0
DA:326,0
DA:327,0
DA:328,0
DA:329,0
DA:333,0
DA:334,0
DA:335,0
DA:336,0
DA:337,0
DA:338,0
DA:341,0
DA:342,0
DA:344,0
DA:345,0
DA:346,0
DA:347,0
DA:349,0
DA:350,0
DA:351,0
DA:353,0
DA:354,0
DA:356,0
DA:357,0
DA:358,0
DA:360,0
DA:361,0
DA:362,0
DA:363,0
DA:365,0
DA:368,0
DA:369,0
DA:370,0
DA:373,0
DA:374,0
DA:375,0
DA:377,0
DA:378,0
DA:379,0
DA:380,0
DA:381,0
DA:383,0
DA:384,0
DA:385,0
DA:386,0
DA:387,0
DA:388,0
DA:389,0
DA:390,0
DA:391,0
DA:392,0
DA:393,0
DA:394,0
DA:395,0
DA:397,0
DA:398,0
DA:399,0
DA:400,0
DA:401,0
DA:402,0
DA:403,0
DA:404,0
DA:405,0
DA:406,0
DA:407,0
DA:408,0
DA:409,0
DA:410,0
DA:411,0
DA:412,0
DA:413,0
DA:414,0
DA:415,0
DA:416,0
DA:420,0
DA:421,0
DA:422,0
DA:423,0
DA:424,0
DA:425,0
DA:426,0
DA:427,0
DA:428,0
DA:429,0
DA:430,0
DA:431,0
DA:432,0
DA:433,0
DA:434,0
DA:435,0
DA:436,0
DA:437,0
DA:438,0
DA:439,0
DA:440,0
DA:441,0
DA:442,0
DA:444,0
DA:450,0
DA:451,0
DA:452,0
DA:453,0
DA:454,0
DA:455,0
DA:456,0
DA:458,0
DA:461,0
DA:462,0
DA:463,0
DA:464,0
DA:465,0
DA:466,0
DA:469,0
DA:474,0
DA:475,0
DA:476,0
DA:477,0
DA:478,0
DA:479,0
DA:480,0
DA:481,0
DA:482,0
DA:483,0
DA:484,0
DA:485,0
DA:486,0
DA:487,0
DA:488,0
DA:489,0
DA:490,0
DA:491,0
DA:492,0
DA:493,0
DA:494,0
DA:495,0
DA:496,0
DA:497,0
DA:498,0
DA:499,0
DA:500,0
DA:501,0
DA:502,0
DA:503,0
DA:504,0
DA:505,0
DA:506,0
DA:507,0
DA:513,0
DA:514,0
DA:515,0
DA:517,0
DA:518,0
DA:519,0
DA:520,0
DA:521,0
DA:522,0
DA:523,0
DA:524,0
DA:525,0
DA:526,0
DA:527,0
DA:528,0
DA:529,0
DA:530,0
DA:531,0
DA:532,0
DA:533,0
DA:534,0
DA:536,0
DA:537,0
DA:538,0
DA:539,0
DA:541,0
DA:542,0
DA:543,0
DA:544,0
DA:545,0
DA:546,0
DA:547,0
DA:550,0
DA:551,0
DA:557,0
DA:558,0
DA:559,0
DA:563,0
DA:564,0
DA:565,0
BRF:0
BRH:0
LF:369
LH:0
end_of_record
SF:/home/loric/src/skim/src/tui/item_list.rs
FN:105,_RNCNvMs_NtNtCs3Snzs7u97BX_4skim3tui9item_listNtB6_8ItemList8selected0Csh7ZzE9tTlqq_4ansi
FN:135,_RNCNvMs_NtNtCs3Snzs7u97BX_4skim3tui9item_listNtB6_8ItemList12calc_hscroll0Ba_
FN:105,_RNCNvMs_NtNtCs3Snzs7u97BX_4skim3tui9item_listNtB6_8ItemList8selected0Ba_
FN:358,_RNCNvMs_NtNtCs3Snzs7u97BX_4skim3tui9item_listNtB6_8ItemList9toggle_at0Ba_
FN:449,_RNCNvXs0_NtNtCs3Snzs7u97BX_4skim3tui9item_listNtB7_8ItemListNtNtB9_6widget10SkimWidget12from_options0Bb_
FN:468,_RNCNvXs0_NtNtCs3Snzs7u97BX_4skim3tui9item_listNtB7_8ItemListNtNtB9_6widget10SkimWidget12from_optionss0_0Bb_
FN:467,_RNCNvXs0_NtNtCs3Snzs7u97BX_4skim3tui9item_listNtB7_8ItemListNtNtB9_6widget10SkimWidget12from_optionss_0Bb_
FN:565,_RNCNvXs0_NtNtCs3Snzs7u97BX_4skim3tui9item_listNtB7_8ItemListNtNtB9_6widget10SkimWidget6render0Bb_
FN:619,_RNCNvXs0_NtNtCs3Snzs7u97BX_4skim3tui9item_listNtB7_8ItemListNtNtB9_6widget10SkimWidget6renders_0Bb_
FN:384,_RNvMs_NtNtCs3Snzs7u97BX_4skim3tui9item_listNtB4_8ItemList10select_all
FN:379,_RNvMs_NtNtCs3Snzs7u97BX_4skim3tui9item_listNtB4_8ItemList10select_row
FN:366,_RNvMs_NtNtCs3Snzs7u97BX_4skim3tui9item_listNtB4_8ItemList10toggle_all
FN:330,_RNvMs_NtNtCs3Snzs7u97BX_4skim3tui9item_listNtB4_8ItemList11expand_tabs
FN:424,_RNvMs_NtNtCs3Snzs7u97BX_4skim3tui9item_listNtB4_8ItemList11select_next
FN:127,_RNvMs_NtNtCs3Snzs7u97BX_4skim3tui9item_listNtB4_8ItemList12calc_hscroll
FN:434,_RNvMs_NtNtCs3Snzs7u97BX_4skim3tui9item_listNtB4_8ItemList12jump_to_last
FN:235,_RNvMs_NtNtCs3Snzs7u97BX_4skim3tui9item_listNtB4_8ItemList13apply_hscroll
FN:428,_RNvMs_NtNtCs3Snzs7u97BX_4skim3tui9item_listNtB4_8ItemList13jump_to_first
FN:116,_RNvMs_NtNtCs3Snzs7u97BX_4skim3tui9item_listNtB4_8ItemList15calc_skip_width
FN:390,_RNvMs_NtNtCs3Snzs7u97BX_4skim3tui9item_listNtB4_8ItemList15clear_selection
FN:420,_RNvMs_NtNtCs3Snzs7u97BX_4skim3tui9item_listNtB4_8ItemList15select_previous
FN:306,_RNvMs_NtNtCs3Snzs7u97BX_4skim3tui9item_listNtB4_8ItemList19char_index_at_width
FN:394,_RNvMs_NtNtCs3Snzs7u97BX_4skim3tui9item_listNtB4_8ItemList5clear
FN:99,_RNvMs_NtNtCs3Snzs7u97BX_4skim3tui9item_listNtB4_8ItemList5count
FN:109,_RNvMs_NtNtCs3Snzs7u97BX_4skim3tui9item_listNtB4_8ItemList6append
FN:92,_RNvMs_NtNtCs3Snzs7u97BX_4skim3tui9item_listNtB4_8ItemList6cursor
FN:373,_RNvMs_NtNtCs3Snzs7u97BX_4skim3tui9item_listNtB4_8ItemList6select
FN:362,_RNvMs_NtNtCs3Snzs7u97BX_4skim3tui9item_listNtB4_8ItemList6toggle
FN:104,_RNvMs_NtNtCs3Snzs7u97BX_4skim3tui9item_listNtB4_8ItemList8selected
FN:402,_RNvMs_NtNtCs3Snzs7u97BX_4skim3tui9item_listNtB4_8ItemList9scroll_by
FN:349,_RNvMs_NtNtCs3Snzs7u97BX_4skim3tui9item_listNtB4_8ItemList9toggle_at
FN:735,_RNvNtNtCs3Snzs7u97BX_4skim3tui9item_list11toggle_item
FN:58,_RNvXNtNtCs3Snzs7u97BX_4skim3tui9item_listNtB2_8ItemListNtNtCs3IJltBbNwOJ_4core7default7Default7default
FN:442,_RNvXs0_NtNtCs3Snzs7u97BX_4skim3tui9item_listNtB5_8ItemListNtNtB7_6widget10SkimWidget12from_options
FN:536,_RNvXs0_NtNtCs3Snzs7u97BX_4skim3tui9item_listNtB5_8ItemListNtNtB7_6widget10SkimWidget6render
FN:105,_RNCNvMs_NtNtCs3Snzs7u97BX_4skim3tui9item_listNtB6_8ItemList8selected0CsjMtkzxvw6jX_5binds
FN:105,_RNCNvMs_NtNtCs3Snzs7u97BX_4skim3tui9item_listNtB6_8ItemList8selected0CsjZxsXVxeWnR_4case
FN:105,_RNCNvMs_NtNtCs3Snzs7u97BX_4skim3tui9item_listNtB6_8ItemList8selected0Cs7rs3rzKdeUa_8defaults
FN:105,_RNCNvMs_NtNtCs3Snzs7u97BX_4skim3tui9item_listNtB6_8ItemList8selected0Cs8SL1o0vS7q8_6issues
FN:105,_RNCNvMs_NtNtCs3Snzs7u97BX_4skim3tui9item_listNtB6_8ItemList8selected0Cs7QtiJHxqkfB_4keys
FN:105,_RNCNvMs_NtNtCs3Snzs7u97BX_4skim3tui9item_listNtB6_8ItemList8selected0CscGCI3e7M0l9_16keys_interactive
FN:105,_RNCNvMs_NtNtCs3Snzs7u97BX_4skim3tui9item_listNtB6_8ItemList8selected0CscYgvKuNiZ3L_6layout
FN:105,_RNCNvMs_NtNtCs3Snzs7u97BX_4skim3tui9item_listNtB6_8ItemList8selected0CsajW3zP0EBjk_9normalize
FN:105,_RNCNvMs_NtNtCs3Snzs7u97BX_4skim3tui9item_listNtB6_8ItemList8selected0Cs1KNxiT1fe8Y_7options
FN:105,_RNCNvMs_NtNtCs3Snzs7u97BX_4skim3tui9item_listNtB6_8ItemList8selected0Cs38oDVg7bgx1_7preview
FN:135,_RNCNvMs_NtNtCs2dRlemTKIe9_4skim3tui9item_listNtB6_8ItemList12calc_hscroll0Ba_
FN:105,_RNCNvMs_NtNtCs2dRlemTKIe9_4skim3tui9item_listNtB6_8ItemList8selected0Ba_
FN:358,_RNCNvMs_NtNtCs2dRlemTKIe9_4skim3tui9item_listNtB6_8ItemList9toggle_at0Ba_
FN:449,_RNCNvXs0_NtNtCs2dRlemTKIe9_4skim3tui9item_listNtB7_8ItemListNtNtB9_6widget10SkimWidget12from_options0Bb_
FN:468,_RNCNvXs0_NtNtCs2dRlemTKIe9_4skim3tui9item_listNtB7_8ItemListNtNtB9_6widget10SkimWidget12from_optionss0_0Bb_
FN:467,_RNCNvXs0_NtNtCs2dRlemTKIe9_4skim3tui9item_listNtB7_8ItemListNtNtB9_6widget10SkimWidget12from_optionss_0Bb_
FN:565,_RNCNvXs0_NtNtCs2dRlemTKIe9_4skim3tui9item_listNtB7_8ItemListNtNtB9_6widget10SkimWidget6render0Bb_
FN:619,_RNCNvXs0_NtNtCs2dRlemTKIe9_4skim3tui9item_listNtB7_8ItemListNtNtB9_6widget10SkimWidget6renders_0Bb_
FN:384,_RNvMs_NtNtCs2dRlemTKIe9_4skim3tui9item_listNtB4_8ItemList10select_all
FN:379,_RNvMs_NtNtCs2dRlemTKIe9_4skim3tui9item_listNtB4_8ItemList10select_row
FN:366,_RNvMs_NtNtCs2dRlemTKIe9_4skim3tui9item_listNtB4_8ItemList10toggle_all
FN:330,_RNvMs_NtNtCs2dRlemTKIe9_4skim3tui9item_listNtB4_8ItemList11expand_tabs
FN:424,_RNvMs_NtNtCs2dRlemTKIe9_4skim3tui9item_listNtB4_8ItemList11select_next
FN:127,_RNvMs_NtNtCs2dRlemTKIe9_4skim3tui9item_listNtB4_8ItemList12calc_hscroll
FN:434,_RNvMs_NtNtCs2dRlemTKIe9_4skim3tui9item_listNtB4_8ItemList12jump_to_last
FN:235,_RNvMs_NtNtCs2dRlemTKIe9_4skim3tui9item_listNtB4_8ItemList13apply_hscroll
FN:428,_RNvMs_NtNtCs2dRlemTKIe9_4skim3tui9item_listNtB4_8ItemList13jump_to_first
FN:116,_RNvMs_NtNtCs2dRlemTKIe9_4skim3tui9item_listNtB4_8ItemList15calc_skip_width
FN:390,_RNvMs_NtNtCs2dRlemTKIe9_4skim3tui9item_listNtB4_8ItemList15clear_selection
FN:420,_RNvMs_NtNtCs2dRlemTKIe9_4skim3tui9item_listNtB4_8ItemList15select_previous
FN:306,_RNvMs_NtNtCs2dRlemTKIe9_4skim3tui9item_listNtB4_8ItemList19char_index_at_width
FN:394,_RNvMs_NtNtCs2dRlemTKIe9_4skim3tui9item_listNtB4_8ItemList5clear
FN:99,_RNvMs_NtNtCs2dRlemTKIe9_4skim3tui9item_listNtB4_8ItemList5count
FN:109,_RNvMs_NtNtCs2dRlemTKIe9_4skim3tui9item_listNtB4_8ItemList6append
FN:92,_RNvMs_NtNtCs2dRlemTKIe9_4skim3tui9item_listNtB4_8ItemList6cursor
FN:373,_RNvMs_NtNtCs2dRlemTKIe9_4skim3tui9item_listNtB4_8ItemList6select
FN:362,_RNvMs_NtNtCs2dRlemTKIe9_4skim3tui9item_listNtB4_8ItemList6toggle
FN:104,_RNvMs_NtNtCs2dRlemTKIe9_4skim3tui9item_listNtB4_8ItemList8selected
FN:402,_RNvMs_NtNtCs2dRlemTKIe9_4skim3tui9item_listNtB4_8ItemList9scroll_by
FN:349,_RNvMs_NtNtCs2dRlemTKIe9_4skim3tui9item_listNtB4_8ItemList9toggle_at
FN:735,_RNvNtNtCs2dRlemTKIe9_4skim3tui9item_list11toggle_item
FN:58,_RNvXNtNtCs2dRlemTKIe9_4skim3tui9item_listNtB2_8ItemListNtNtCs3IJltBbNwOJ_4core7default7Default7default
FN:442,_RNvXs0_NtNtCs2dRlemTKIe9_4skim3tui9item_listNtB5_8ItemListNtNtB7_6widget10SkimWidget12from_options
FN:536,_RNvXs0_NtNtCs2dRlemTKIe9_4skim3tui9item_listNtB5_8ItemListNtNtB7_6widget10SkimWidget6render
FN:105,_RNCNvMs_NtNtCs3Snzs7u97BX_4skim3tui9item_listNtB6_8ItemList8selected0CsdYHrDtgrOQb_11split_match
FN:105,_RNCNvMs_NtNtCs3Snzs7u97BX_4skim3tui9item_listNtB6_8ItemList8selected0Cskazwg9rDpax_8tiebreak
FNDA:0,_RNCNvMs_NtNtCs3Snzs7u97BX_4skim3tui9item_listNtB6_8ItemList8selected0Csh7ZzE9tTlqq_4ansi
FNDA:0,_RNCNvMs_NtNtCs3Snzs7u97BX_4skim3tui9item_listNtB6_8ItemList12calc_hscroll0Ba_
FNDA:0,_RNCNvMs_NtNtCs3Snzs7u97BX_4skim3tui9item_listNtB6_8ItemList8selected0Ba_
FNDA:0,_RNCNvMs_NtNtCs3Snzs7u97BX_4skim3tui9item_listNtB6_8ItemList9toggle_at0Ba_
FNDA:0,_RNCNvXs0_NtNtCs3Snzs7u97BX_4skim3tui9item_listNtB7_8ItemListNtNtB9_6widget10SkimWidget12from_options0Bb_
FNDA:0,_RNCNvXs0_NtNtCs3Snzs7u97BX_4skim3tui9item_listNtB7_8ItemListNtNtB9_6widget10SkimWidget12from_optionss0_0Bb_
FNDA:0,_RNCNvXs0_NtNtCs3Snzs7u97BX_4skim3tui9item_listNtB7_8ItemListNtNtB9_6widget10SkimWidget12from_optionss_0Bb_
FNDA:0,_RNCNvXs0_NtNtCs3Snzs7u97BX_4skim3tui9item_listNtB7_8ItemListNtNtB9_6widget10SkimWidget6render0Bb_
FNDA:0,_RNCNvXs0_NtNtCs3Snzs7u97BX_4skim3tui9item_listNtB7_8ItemListNtNtB9_6widget10SkimWidget6renders_0Bb_
FNDA:0,_RNvMs_NtNtCs3Snzs7u97BX_4skim3tui9item_listNtB4_8ItemList10select_all
FNDA:0,_RNvMs_NtNtCs3Snzs7u97BX_4skim3tui9item_listNtB4_8ItemList10select_row
FNDA:0,_RNvMs_NtNtCs3Snzs7u97BX_4skim3tui9item_listNtB4_8ItemList10toggle_all
FNDA:0,_RNvMs_NtNtCs3Snzs7u97BX_4skim3tui9item_listNtB4_8ItemList11expand_tabs
FNDA:0,_RNvMs_NtNtCs3Snzs7u97BX_4skim3tui9item_listNtB4_8ItemList11select_next
FNDA:0,_RNvMs_NtNtCs3Snzs7u97BX_4skim3tui9item_listNtB4_8ItemList12calc_hscroll
FNDA:0,_RNvMs_NtNtCs3Snzs7u97BX_4skim3tui9item_listNtB4_8ItemList12jump_to_last
FNDA:0,_RNvMs_NtNtCs3Snzs7u97BX_4skim3tui9item_listNtB4_8ItemList13apply_hscroll
FNDA:0,_RNvMs_NtNtCs3Snzs7u97BX_4skim3tui9item_listNtB4_8ItemList13jump_to_first
FNDA:0,_RNvMs_NtNtCs3Snzs7u97BX_4skim3tui9item_listNtB4_8ItemList15calc_skip_width
FNDA:0,_RNvMs_NtNtCs3Snzs7u97BX_4skim3tui9item_listNtB4_8ItemList15clear_selection
FNDA:0,_RNvMs_NtNtCs3Snzs7u97BX_4skim3tui9item_listNtB4_8ItemList15select_previous
FNDA:0,_RNvMs_NtNtCs3Snzs7u97BX_4skim3tui9item_listNtB4_8ItemList19char_index_at_width
FNDA:0,_RNvMs_NtNtCs3Snzs7u97BX_4skim3tui9item_listNtB4_8ItemList5clear
FNDA:0,_RNvMs_NtNtCs3Snzs7u97BX_4skim3tui9item_listNtB4_8ItemList5count
FNDA:0,_RNvMs_NtNtCs3Snzs7u97BX_4skim3tui9item_listNtB4_8ItemList6append
FNDA:0,_RNvMs_NtNtCs3Snzs7u97BX_4skim3tui9item_listNtB4_8ItemList6cursor
FNDA:0,_RNvMs_NtNtCs3Snzs7u97BX_4skim3tui9item_listNtB4_8ItemList6select
FNDA:0,_RNvMs_NtNtCs3Snzs7u97BX_4skim3tui9item_listNtB4_8ItemList6toggle
FNDA:0,_RNvMs_NtNtCs3Snzs7u97BX_4skim3tui9item_listNtB4_8ItemList8selected
FNDA:0,_RNvMs_NtNtCs3Snzs7u97BX_4skim3tui9item_listNtB4_8ItemList9scroll_by
FNDA:0,_RNvMs_NtNtCs3Snzs7u97BX_4skim3tui9item_listNtB4_8ItemList9toggle_at
FNDA:0,_RNvNtNtCs3Snzs7u97BX_4skim3tui9item_list11toggle_item
FNDA:0,_RNvXNtNtCs3Snzs7u97BX_4skim3tui9item_listNtB2_8ItemListNtNtCs3IJltBbNwOJ_4core7default7Default7default
FNDA:0,_RNvXs0_NtNtCs3Snzs7u97BX_4skim3tui9item_listNtB5_8ItemListNtNtB7_6widget10SkimWidget12from_options
FNDA:0,_RNvXs0_NtNtCs3Snzs7u97BX_4skim3tui9item_listNtB5_8ItemListNtNtB7_6widget10SkimWidget6render
FNDA:0,_RNCNvMs_NtNtCs3Snzs7u97BX_4skim3tui9item_listNtB6_8ItemList8selected0CsjMtkzxvw6jX_5binds
FNDA:0,_RNCNvMs_NtNtCs3Snzs7u97BX_4skim3tui9item_listNtB6_8ItemList8selected0CsjZxsXVxeWnR_4case
FNDA:0,_RNCNvMs_NtNtCs3Snzs7u97BX_4skim3tui9item_listNtB6_8ItemList8selected0Cs7rs3rzKdeUa_8defaults
FNDA:0,_RNCNvMs_NtNtCs3Snzs7u97BX_4skim3tui9item_listNtB6_8ItemList8selected0Cs8SL1o0vS7q8_6issues
FNDA:0,_RNCNvMs_NtNtCs3Snzs7u97BX_4skim3tui9item_listNtB6_8ItemList8selected0Cs7QtiJHxqkfB_4keys
FNDA:0,_RNCNvMs_NtNtCs3Snzs7u97BX_4skim3tui9item_listNtB6_8ItemList8selected0CscGCI3e7M0l9_16keys_interactive
FNDA:0,_RNCNvMs_NtNtCs3Snzs7u97BX_4skim3tui9item_listNtB6_8ItemList8selected0CscYgvKuNiZ3L_6layout
FNDA:0,_RNCNvMs_NtNtCs3Snzs7u97BX_4skim3tui9item_listNtB6_8ItemList8selected0CsajW3zP0EBjk_9normalize
FNDA:0,_RNCNvMs_NtNtCs3Snzs7u97BX_4skim3tui9item_listNtB6_8ItemList8selected0Cs1KNxiT1fe8Y_7options
FNDA:0,_RNCNvMs_NtNtCs3Snzs7u97BX_4skim3tui9item_listNtB6_8ItemList8selected0Cs38oDVg7bgx1_7preview
FNDA:0,_RNCNvMs_NtNtCs2dRlemTKIe9_4skim3tui9item_listNtB6_8ItemList12calc_hscroll0Ba_
FNDA:0,_RNCNvMs_NtNtCs2dRlemTKIe9_4skim3tui9item_listNtB6_8ItemList8selected0Ba_
FNDA:0,_RNCNvMs_NtNtCs2dRlemTKIe9_4skim3tui9item_listNtB6_8ItemList9toggle_at0Ba_
FNDA:0,_RNCNvXs0_NtNtCs2dRlemTKIe9_4skim3tui9item_listNtB7_8ItemListNtNtB9_6widget10SkimWidget12from_options0Bb_
FNDA:0,_RNCNvXs0_NtNtCs2dRlemTKIe9_4skim3tui9item_listNtB7_8ItemListNtNtB9_6widget10SkimWidget12from_optionss0_0Bb_
FNDA:0,_RNCNvXs0_NtNtCs2dRlemTKIe9_4skim3tui9item_listNtB7_8ItemListNtNtB9_6widget10SkimWidget12from_optionss_0Bb_
FNDA:0,_RNCNvXs0_NtNtCs2dRlemTKIe9_4skim3tui9item_listNtB7_8ItemListNtNtB9_6widget10SkimWidget6render0Bb_
FNDA:0,_RNCNvXs0_NtNtCs2dRlemTKIe9_4skim3tui9item_listNtB7_8ItemListNtNtB9_6widget10SkimWidget6renders_0Bb_
FNDA:0,_RNvMs_NtNtCs2dRlemTKIe9_4skim3tui9item_listNtB4_8ItemList10select_all
FNDA:0,_RNvMs_NtNtCs2dRlemTKIe9_4skim3tui9item_listNtB4_8ItemList10select_row
FNDA:0,_RNvMs_NtNtCs2dRlemTKIe9_4skim3tui9item_listNtB4_8ItemList10toggle_all
FNDA:0,_RNvMs_NtNtCs2dRlemTKIe9_4skim3tui9item_listNtB4_8ItemList11expand_tabs
FNDA:0,_RNvMs_NtNtCs2dRlemTKIe9_4skim3tui9item_listNtB4_8ItemList11select_next
FNDA:0,_RNvMs_NtNtCs2dRlemTKIe9_4skim3tui9item_listNtB4_8ItemList12calc_hscroll
FNDA:0,_RNvMs_NtNtCs2dRlemTKIe9_4skim3tui9item_listNtB4_8ItemList12jump_to_last
FNDA:0,_RNvMs_NtNtCs2dRlemTKIe9_4skim3tui9item_listNtB4_8ItemList13apply_hscroll
FNDA:0,_RNvMs_NtNtCs2dRlemTKIe9_4skim3tui9item_listNtB4_8ItemList13jump_to_first
FNDA:0,_RNvMs_NtNtCs2dRlemTKIe9_4skim3tui9item_listNtB4_8ItemList15calc_skip_width
FNDA:0,_RNvMs_NtNtCs2dRlemTKIe9_4skim3tui9item_listNtB4_8ItemList15clear_selection
FNDA:0,_RNvMs_NtNtCs2dRlemTKIe9_4skim3tui9item_listNtB4_8ItemList15select_previous
FNDA:0,_RNvMs_NtNtCs2dRlemTKIe9_4skim3tui9item_listNtB4_8ItemList19char_index_at_width
FNDA:0,_RNvMs_NtNtCs2dRlemTKIe9_4skim3tui9item_listNtB4_8ItemList5clear
FNDA:0,_RNvMs_NtNtCs2dRlemTKIe9_4skim3tui9item_listNtB4_8ItemList5count
FNDA:0,_RNvMs_NtNtCs2dRlemTKIe9_4skim3tui9item_listNtB4_8ItemList6append
FNDA:0,_RNvMs_NtNtCs2dRlemTKIe9_4skim3tui9item_listNtB4_8ItemList6cursor
FNDA:0,_RNvMs_NtNtCs2dRlemTKIe9_4skim3tui9item_listNtB4_8ItemList6select
FNDA:0,_RNvMs_NtNtCs2dRlemTKIe9_4skim3tui9item_listNtB4_8ItemList6toggle
FNDA:0,_RNvMs_NtNtCs2dRlemTKIe9_4skim3tui9item_listNtB4_8ItemList8selected
FNDA:0,_RNvMs_NtNtCs2dRlemTKIe9_4skim3tui9item_listNtB4_8ItemList9scroll_by
FNDA:0,_RNvMs_NtNtCs2dRlemTKIe9_4skim3tui9item_listNtB4_8ItemList9toggle_at
FNDA:0,_RNvNtNtCs2dRlemTKIe9_4skim3tui9item_list11toggle_item
FNDA:0,_RNvXNtNtCs2dRlemTKIe9_4skim3tui9item_listNtB2_8ItemListNtNtCs3IJltBbNwOJ_4core7default7Default7default
FNDA:0,_RNvXs0_NtNtCs2dRlemTKIe9_4skim3tui9item_listNtB5_8ItemListNtNtB7_6widget10SkimWidget12from_options
FNDA:0,_RNvXs0_NtNtCs2dRlemTKIe9_4skim3tui9item_listNtB5_8ItemListNtNtB7_6widget10SkimWidget6render
FNDA:0,_RNCNvMs_NtNtCs3Snzs7u97BX_4skim3tui9item_listNtB6_8ItemList8selected0CsdYHrDtgrOQb_11split_match
FNDA:0,_RNCNvMs_NtNtCs3Snzs7u97BX_4skim3tui9item_listNtB6_8ItemList8selected0Cskazwg9rDpax_8tiebreak
FNF:34
FNH:0
DA:58,0
DA:59,0
DA:61,0
DA:62,0
DA:63,0
DA:64,0
DA:65,0
DA:66,0
DA:67,0
DA:68,0
DA:69,0
DA:70,0
DA:71,0
DA:72,0
DA:73,0
DA:74,0
DA:75,0
DA:76,0
DA:77,0
DA:78,0
DA:79,0
DA:80,0
DA:81,0
DA:82,0
DA:83,0
DA:84,0
DA:85,0
DA:86,0
DA:87,0
DA:88,0
DA:92,0
DA:93,0
DA:94,0
DA:99,0
DA:100,0
DA:101,0
DA:104,0
DA:105,0
DA:106,0
DA:109,0
DA:110,0
DA:111,0
DA:112,0
DA:116,0
DA:117,0
DA:118,0
DA:120,0
DA:121,0
DA:122,0
DA:123,0
DA:127,0
DA:128,0
DA:129,0
DA:130,0
DA:131,0
DA:132,0
DA:133,0
DA:135,0
DA:136,0
DA:137,0
DA:139,0
DA:141,0
DA:144,0
DA:145,0
DA:147,0
DA:150,0
DA:152,0
DA:153,0
DA:155,0
DA:156,0
DA:158,0
DA:159,0
DA:161,0
DA:164,0
DA:169,0
DA:170,0
DA:171,0
DA:172,0
DA:173,0
DA:175,0
DA:176,0
DA:177,0
DA:178,0
DA:179,0
DA:180,0
DA:181,0
DA:182,0
DA:183,0
DA:184,0
DA:186,0
DA:187,0
DA:188,0
DA:189,0
DA:190,0
DA:194,0
DA:195,0
DA:196,0
DA:198,0
DA:201,0
DA:203,0
DA:206,0
DA:208,0
DA:209,0
DA:216,0
DA:220,0
DA:221,0
DA:222,0
DA:224,0
DA:227,0
DA:228,0
DA:230,0
DA:231,0
DA:235,0
DA:236,0
DA:237,0
DA:240,0
DA:241,0
DA:242,0
DA:245,0
DA:248,0
DA:249,0
DA:250,0
DA:253,0
DA:254,0
DA:255,0
DA:256,0
DA:258,0
DA:259,0
DA:260,0
DA:262,0
DA:263,0
DA:266,0
DA:268,0
DA:270,0
DA:271,0
DA:273,0
DA:276,0
DA:277,0
DA:278,0
DA:279,0
DA:282,0
DA:283,0
DA:285,0
DA:288,0
DA:289,0
DA:290,0
DA:291,0
DA:292,0
DA:294,0
DA:295,0
DA:299,0
DA:300,0
DA:301,0
DA:303,0
DA:304,0
DA:306,0
DA:307,0
DA:308,0
DA:310,0
DA:311,0
DA:312,0
DA:313,0
DA:315,0
DA:318,0
DA:319,0
DA:320,0
DA:322,0
DA:323,0
DA:327,0
DA:328,0
DA:330,0
DA:331,0
DA:332,0
DA:334,0
DA:335,0
DA:336,0
DA:337,0
DA:338,0
DA:339,0
DA:340,0
DA:341,0
DA:345,0
DA:346,0
DA:349,0
DA:350,0
DA:351,0
DA:352,0
DA:353,0
DA:354,0
DA:355,0
DA:356,0
DA:358,0
DA:360,0
DA:362,0
DA:363,0
DA:364,0
DA:366,0
DA:367,0
DA:368,0
DA:369,0
DA:370,0
DA:373,0
DA:374,0
DA:375,0
DA:376,0
DA:379,0
DA:380,0
DA:381,0
DA:382,0
DA:384,0
DA:385,0
DA:386,0
DA:387,0
DA:388,0
DA:390,0
DA:391,0
DA:392,0
DA:394,0
DA:395,0
DA:396,0
DA:397,0
DA:398,0
DA:399,0
DA:400,0
DA:402,0
DA:403,0
DA:404,0
DA:405,0
DA:406,0
DA:407,0
DA:408,0
DA:409,0
DA:410,0
DA:411,0
DA:412,0
DA:413,0
DA:414,0
DA:415,0
DA:416,0
DA:417,0
DA:418,0
DA:420,0
DA:421,0
DA:422,0
DA:424,0
DA:425,0
DA:426,0
DA:428,0
DA:429,0
DA:430,0
DA:431,0
DA:432,0
DA:434,0
DA:435,0
DA:436,0
DA:437,0
DA:438,0
DA:442,0
DA:446,0
DA:447,0
DA:448,0
DA:449,0
DA:452,0
DA:453,0
DA:454,0
DA:455,0
DA:456,0
DA:458,0
DA:459,0
DA:461,0
DA:464,0
DA:465,0
DA:466,0
DA:467,0
DA:468,0
DA:469,0
DA:471,0
DA:472,0
DA:473,0
DA:474,0
DA:475,0
DA:477,0
DA:478,0
DA:479,0
DA:480,0
DA:484,0
DA:485,0
DA:487,0
DA:490,0
DA:494,0
DA:497,0
DA:499,0
DA:500,0
DA:501,0
DA:505,0
DA:507,0
DA:508,0
DA:509,0
DA:512,0
DA:513,0
DA:514,0
DA:515,0
DA:516,0
DA:517,0
DA:518,0
DA:519,0
DA:520,0
DA:521,0
DA:524,0
DA:525,0
DA:526,0
DA:527,0
DA:528,0
DA:529,0
DA:530,0
DA:531,0
DA:532,0
DA:534,0
DA:536,0
DA:537,0
DA:540,0
DA:541,0
DA:542,0
DA:543,0
DA:544,0
DA:545,0
DA:546,0
DA:548,0
DA:551,0
DA:552,0
DA:553,0
DA:554,0
DA:555,0
DA:556,0
DA:557,0
DA:560,0
DA:561,0
DA:564,0
DA:565,0
DA:567,0
DA:568,0
DA:570,0
DA:572,0
DA:574,0
DA:575,0
DA:579,0
DA:580,0
DA:581,0
DA:583,0
DA:585,0
DA:586,0
DA:589,0
DA:590,0
DA:591,0
DA:592,0
DA:593,0
DA:594,0
DA:595,0
DA:596,0
DA:597,0
DA:599,0
DA:600,0
DA:603,0
DA:605,0
DA:608,0
DA:609,0
DA:610,0
DA:611,0
DA:613,0
DA:614,0
DA:615,0
DA:616,0
DA:617,0
DA:618,0
DA:619,0
DA:620,0
DA:621,0
DA:624,0
DA:625,0
DA:628,0
DA:631,0
DA:632,0
DA:633,0
DA:634,0
DA:636,0
DA:639,0
DA:640,0
DA:641,0
DA:642,0
DA:644,0
DA:648,0
DA:649,0
DA:653,0
DA:654,0
DA:655,0
DA:656,0
DA:659,0
DA:660,0
DA:661,0
DA:662,0
DA:663,0
DA:664,0
DA:667,0
DA:668,0
DA:669,0
DA:670,0
DA:674,0
DA:675,0
DA:676,0
DA:677,0
DA:679,0
DA:681,0
DA:683,0
DA:684,0
DA:685,0
DA:687,0
DA:689,0
DA:691,0
DA:693,0
DA:694,0
DA:696,0
DA:698,0
DA:699,0
DA:701,0
DA:702,0
DA:704,0
DA:707,0
DA:708,0
DA:709,0
DA:710,0
DA:711,0
DA:712,0
DA:713,0
DA:715,0
DA:716,0
DA:717,0
DA:718,0
DA:719,0
DA:721,0
DA:722,0
DA:724,0
DA:726,0
DA:728,0
DA:729,0
DA:730,0
DA:731,0
DA:732,0
DA:735,0
DA:736,0
DA:737,0
DA:738,0
DA:739,0
DA:740,0
DA:741,0
BRF:0
BRH:0
LF:462
LH:0
end_of_record
SF:/home/loric/src/skim/src/tui/mod.rs
FN:88,_RNCNvXs_NtCs3Snzs7u97BX_4skim3tuiNtB6_4SizeINtNtCs3IJltBbNwOJ_4core7convert7TryFromReE8try_from0B8_
FN:97,_RNCNvXs_NtCs3Snzs7u97BX_4skim3tuiNtB6_4SizeINtNtCs3IJltBbNwOJ_4core7convert7TryFromReE8try_froms_0B8_
FN:57,_RNvXNtCs3Snzs7u97BX_4skim3tuiNtB2_9DirectionINtNtCs3IJltBbNwOJ_4core7convert7TryFromReE8try_from
FN:136,_RNvXs1_NtCs3Snzs7u97BX_4skim3tuiNtNtCs5pM711ZThdX_15ratatui_widgets7borders10BorderTypeINtNtCs3IJltBbNwOJ_4core7convert4FromNtB5_10BorderTypeE4from
FN:82,_RNvXs_NtCs3Snzs7u97BX_4skim3tuiNtB4_4SizeINtNtCs3IJltBbNwOJ_4core7convert7TryFromReE8try_from
FN:104,_RNvXs0_NtCs3Snzs7u97BX_4skim3tuiNtB5_4SizeNtNtCs3IJltBbNwOJ_4core7default7Default7default
FN:88,_RNCNvXs_NtCs2dRlemTKIe9_4skim3tuiNtB6_4SizeINtNtCs3IJltBbNwOJ_4core7convert7TryFromReE8try_from0B8_
FN:97,_RNCNvXs_NtCs2dRlemTKIe9_4skim3tuiNtB6_4SizeINtNtCs3IJltBbNwOJ_4core7convert7TryFromReE8try_froms_0B8_
FN:57,_RNvXNtCs2dRlemTKIe9_4skim3tuiNtB2_9DirectionINtNtCs3IJltBbNwOJ_4core7convert7TryFromReE8try_from
FN:82,_RNvXs_NtCs2dRlemTKIe9_4skim3tuiNtB4_4SizeINtNtCs3IJltBbNwOJ_4core7convert7TryFromReE8try_from
FN:104,_RNvXs0_NtCs2dRlemTKIe9_4skim3tuiNtB5_4SizeNtNtCs3IJltBbNwOJ_4core7default7Default7default
FN:136,_RNvXs1_NtCs2dRlemTKIe9_4skim3tuiNtNtCs5pM711ZThdX_15ratatui_widgets7borders10BorderTypeINtNtCs3IJltBbNwOJ_4core7convert4FromNtB5_10BorderTypeE4from
FNDA:0,_RNCNvXs_NtCs3Snzs7u97BX_4skim3tuiNtB6_4SizeINtNtCs3IJltBbNwOJ_4core7convert7TryFromReE8try_from0B8_
FNDA:0,_RNCNvXs_NtCs3Snzs7u97BX_4skim3tuiNtB6_4SizeINtNtCs3IJltBbNwOJ_4core7convert7TryFromReE8try_froms_0B8_
FNDA:0,_RNvXNtCs3Snzs7u97BX_4skim3tuiNtB2_9DirectionINtNtCs3IJltBbNwOJ_4core7convert7TryFromReE8try_from
FNDA:0,_RNvXs1_NtCs3Snzs7u97BX_4skim3tuiNtNtCs5pM711ZThdX_15ratatui_widgets7borders10BorderTypeINtNtCs3IJltBbNwOJ_4core7convert4FromNtB5_10BorderTypeE4from
FNDA:0,_RNvXs_NtCs3Snzs7u97BX_4skim3tuiNtB4_4SizeINtNtCs3IJltBbNwOJ_4core7convert7TryFromReE8try_from
FNDA:0,_RNvXs0_NtCs3Snzs7u97BX_4skim3tuiNtB5_4SizeNtNtCs3IJltBbNwOJ_4core7default7Default7default
FNDA:0,_RNCNvXs_NtCs2dRlemTKIe9_4skim3tuiNtB6_4SizeINtNtCs3IJltBbNwOJ_4core7convert7TryFromReE8try_from0B8_
FNDA:0,_RNCNvXs_NtCs2dRlemTKIe9_4skim3tuiNtB6_4SizeINtNtCs3IJltBbNwOJ_4core7convert7TryFromReE8try_froms_0B8_
FNDA:0,_RNvXNtCs2dRlemTKIe9_4skim3tuiNtB2_9DirectionINtNtCs3IJltBbNwOJ_4core7convert7TryFromReE8try_from
FNDA:0,_RNvXs_NtCs2dRlemTKIe9_4skim3tuiNtB4_4SizeINtNtCs3IJltBbNwOJ_4core7convert7TryFromReE8try_from
FNDA:0,_RNvXs0_NtCs2dRlemTKIe9_4skim3tuiNtB5_4SizeNtNtCs3IJltBbNwOJ_4core7default7Default7default
FNDA:0,_RNvXs1_NtCs2dRlemTKIe9_4skim3tuiNtNtCs5pM711ZThdX_15ratatui_widgets7borders10BorderTypeINtNtCs3IJltBbNwOJ_4core7convert4FromNtB5_10BorderTypeE4from
FNF:6
FNH:0
DA:57,0
DA:58,0
DA:59,0
DA:60,0
DA:61,0
DA:62,0
DA:63,0
DA:65,0
DA:82,0
DA:83,0
DA:84,0
DA:85,0
DA:86,0
DA:87,0
DA:88,0
DA:89,0
DA:90,0
DA:91,0
DA:92,0
DA:95,0
DA:96,0
DA:97,0
DA:100,0
DA:104,0
DA:105,0
DA:106,0
DA:136,0
DA:137,0
DA:138,0
DA:139,0
DA:140,0
DA:141,0
DA:142,0
DA:143,0
DA:144,0
DA:145,0
DA:146,0
DA:147,0
DA:148,0
DA:149,0
DA:151,0
BRF:0
BRH:0
LF:43
LH:0
end_of_record
SF:/home/loric/src/skim/src/tui/options.rs
FN:32,_RNvXNtNtCs3Snzs7u97BX_4skim3tui7optionsNtB2_13PreviewLayoutNtNtCs3IJltBbNwOJ_4core7default7Default7default
FN:44,_RNvXs_NtNtCs3Snzs7u97BX_4skim3tui7optionsNtB4_13PreviewLayoutINtNtCs3IJltBbNwOJ_4core7convert4FromReE4from
FN:32,_RNvXNtNtCs2dRlemTKIe9_4skim3tui7optionsNtB2_13PreviewLayoutNtNtCs3IJltBbNwOJ_4core7default7Default7default
FN:44,_RNvXs_NtNtCs2dRlemTKIe9_4skim3tui7optionsNtB4_13PreviewLayoutINtNtCs3IJltBbNwOJ_4core7convert4FromReE4from
FNDA:0,_RNvXNtNtCs3Snzs7u97BX_4skim3tui7optionsNtB2_13PreviewLayoutNtNtCs3IJltBbNwOJ_4core7default7Default7default
FNDA:0,_RNvXs_NtNtCs3Snzs7u97BX_4skim3tui7optionsNtB4_13PreviewLayoutINtNtCs3IJltBbNwOJ_4core7convert4FromReE4from
FNDA:0,_RNvXNtNtCs2dRlemTKIe9_4skim3tui7optionsNtB2_13PreviewLayoutNtNtCs3IJltBbNwOJ_4core7default7Default7default
FNDA:0,_RNvXs_NtNtCs2dRlemTKIe9_4skim3tui7optionsNtB4_13PreviewLayoutINtNtCs3IJltBbNwOJ_4core7convert4FromReE4from
FNF:2
FNH:0
DA:32,0
DA:33,0
DA:34,0
DA:35,0
DA:36,0
DA:37,0
DA:38,0
DA:39,0
DA:40,0
DA:44,0
DA:45,0
DA:47,0
DA:49,0
DA:50,0
DA:51,0
DA:52,0
DA:54,0
DA:55,0
DA:56,0
DA:57,0
DA:58,0
DA:59,0
DA:60,0
DA:61,0
DA:62,0
DA:63,0
DA:64,0
DA:65,0
DA:67,0
DA:68,0
DA:69,0
DA:70,0
DA:71,0
DA:72,0
DA:75,0
DA:76,0
BRF:0
BRH:0
LF:36
LH:0
end_of_record
SF:/home/loric/src/skim/src/tui/preview.rs
FN:270,_RINvMs2_NtNtCs3Snzs7u97BX_4skim3tui7previewNtB6_7Preview5spawnNtNtNtCs4CtSrCeEHDB_12ratatui_core7backend4test11TestBackendECsh7ZzE9tTlqq_4ansi
FN:313,_RNCINvMs2_NtNtCs3Snzs7u97BX_4skim3tui7previewNtB8_7Preview5spawnNtNtNtCs4CtSrCeEHDB_12ratatui_core7backend4test11TestBackendE0Csh7ZzE9tTlqq_4ansi
FN:327,_RNCINvMs2_NtNtCs3Snzs7u97BX_4skim3tui7previewNtB8_7Preview5spawnNtNtNtCs4CtSrCeEHDB_12ratatui_core7backend4test11TestBackendEs0_0Csh7ZzE9tTlqq_4ansi
FN:341,_RNCINvMs2_NtNtCs3Snzs7u97BX_4skim3tui7previewNtB8_7Preview5spawnNtNtNtCs4CtSrCeEHDB_12ratatui_core7backend4test11TestBackendEs1_0Csh7ZzE9tTlqq_4ansi
FN:406,_RNCINvMs2_NtNtCs3Snzs7u97BX_4skim3tui7previewNtB8_7Preview5spawnNtNtNtCs4CtSrCeEHDB_12ratatui_core7backend4test11TestBackendEs2_0Csh7ZzE9tTlqq_4ansi
FN:321,_RNCINvMs2_NtNtCs3Snzs7u97BX_4skim3tui7previewNtB8_7Preview5spawnNtNtNtCs4CtSrCeEHDB_12ratatui_core7backend4test11TestBackendEs_0Csh7ZzE9tTlqq_4ansi
FN:270,_RINvMs2_NtNtCs3Snzs7u97BX_4skim3tui7previewNtB6_7Preview5spawnINtCsa8sjCXQ6JGg_17ratatui_crossterm16CrosstermBackendINtNtNtNtCs5U62srxYbFV_3std2io8buffered9bufwriter9BufWriterNtNtB1X_5stdio6StderrEEEBa_
FN:313,_RNCINvMs2_NtNtCs3Snzs7u97BX_4skim3tui7previewNtB8_7Preview5spawnINtCsa8sjCXQ6JGg_17ratatui_crossterm16CrosstermBackendINtNtNtNtCs5U62srxYbFV_3std2io8buffered9bufwriter9BufWriterNtNtB1Z_5stdio6StderrEEE0Bc_
FN:327,_RNCINvMs2_NtNtCs3Snzs7u97BX_4skim3tui7previewNtB8_7Preview5spawnINtCsa8sjCXQ6JGg_17ratatui_crossterm16CrosstermBackendINtNtNtNtCs5U62srxYbFV_3std2io8buffered9bufwriter9BufWriterNtNtB1Z_5stdio6StderrEEEs0_0Bc_
FN:341,_RNCINvMs2_NtNtCs3Snzs7u97BX_4skim3tui7previewNtB8_7Preview5spawnINtCsa8sjCXQ6JGg_17ratatui_crossterm16CrosstermBackendINtNtNtNtCs5U62srxYbFV_3std2io8buffered9bufwriter9BufWriterNtNtB1Z_5stdio6StderrEEEs1_0Bc_
FN:406,_RNCINvMs2_NtNtCs3Snzs7u97BX_4skim3tui7previewNtB8_7Preview5spawnINtCsa8sjCXQ6JGg_17ratatui_crossterm16CrosstermBackendINtNtNtNtCs5U62srxYbFV_3std2io8buffered9bufwriter9BufWriterNtNtB1Z_5stdio6StderrEEEs2_0Bc_
FN:321,_RNCINvMs2_NtNtCs3Snzs7u97BX_4skim3tui7previewNtB8_7Preview5spawnINtCsa8sjCXQ6JGg_17ratatui_crossterm16CrosstermBackendINtNtNtNtCs5U62srxYbFV_3std2io8buffered9bufwriter9BufWriterNtNtB1Z_5stdio6StderrEEEs_0Bc_
FN:191,_RNCNvMs2_NtNtCs3Snzs7u97BX_4skim3tui7previewNtB7_7Preview21content_with_position0Bb_
FN:481,_RNCNvXs4_NtNtCs3Snzs7u97BX_4skim3tui7previewNtB7_7PreviewNtNtB9_6widget10SkimWidget6render0Bb_
FN:231,_RNvMs2_NtNtCs3Snzs7u97BX_4skim3tui7previewNtB5_7Preview10set_offset
FN:207,_RNvMs2_NtNtCs3Snzs7u97BX_4skim3tui7previewNtB5_7Preview11scroll_down
FN:223,_RNvMs2_NtNtCs3Snzs7u97BX_4skim3tui7previewNtB5_7Preview11scroll_left
FN:227,_RNvMs2_NtNtCs3Snzs7u97BX_4skim3tui7previewNtB5_7Preview12scroll_right
FN:112,_RNvMs2_NtNtCs3Snzs7u97BX_4skim3tui7previewNtB5_7Preview14size_to_offset
FN:190,_RNvMs2_NtNtCs3Snzs7u97BX_4skim3tui7previewNtB5_7Preview21content_with_position
FN:140,_RNvMs2_NtNtCs3Snzs7u97BX_4skim3tui7previewNtB5_7Preview29filter_and_respond_to_queries
FN:245,_RNvMs2_NtNtCs3Snzs7u97BX_4skim3tui7previewNtB5_7Preview4kill
FN:178,_RNvMs2_NtNtCs3Snzs7u97BX_4skim3tui7previewNtB5_7Preview7content
FN:235,_RNvMs2_NtNtCs3Snzs7u97BX_4skim3tui7previewNtB5_7Preview7page_up
FN:122,_RNvMs2_NtNtCs3Snzs7u97BX_4skim3tui7previewNtB5_7Preview8init_pty
FN:240,_RNvMs2_NtNtCs3Snzs7u97BX_4skim3tui7previewNtB5_7Preview9page_down
FN:203,_RNvMs2_NtNtCs3Snzs7u97BX_4skim3tui7previewNtB5_7Preview9scroll_up
FN:40,_RNvXNtNtCs3Snzs7u97BX_4skim3tui7previewNtB2_14PreviewContentNtNtCs3IJltBbNwOJ_4core7default7Default7default
FN:63,_RNvXs0_NtNtCs3Snzs7u97BX_4skim3tui7previewNtB5_15PreviewCallbackNtNtNtCs3IJltBbNwOJ_4core3ops5deref5Deref5deref
FN:89,_RNvXs1_NtNtCs3Snzs7u97BX_4skim3tui7previewNtB5_7PreviewNtNtCs3IJltBbNwOJ_4core7default7Default7default
FN:441,_RNvXs3_NtNtCs3Snzs7u97BX_4skim3tui7previewNtB5_7PreviewNtNtNtCs3IJltBbNwOJ_4core3ops4drop4Drop4drop
FN:451,_RNvXs4_NtNtCs3Snzs7u97BX_4skim3tui7previewNtB5_7PreviewNtNtB7_6widget10SkimWidget12from_options
FN:477,_RNvXs4_NtNtCs3Snzs7u97BX_4skim3tui7previewNtB5_7PreviewNtNtB7_6widget10SkimWidget6render
FN:55,_RNvXININtNtCs3Snzs7u97BX_4skim3tui7previews_0pENtB5_15PreviewCallbackINtNtCs3IJltBbNwOJ_4core7convert4FrompE4fromB9_
FN:270,_RINvMs2_NtNtCs3Snzs7u97BX_4skim3tui7previewNtB6_7Preview5spawnNtNtNtCs4CtSrCeEHDB_12ratatui_core7backend4test11TestBackendECsjMtkzxvw6jX_5binds
FN:313,_RNCINvMs2_NtNtCs3Snzs7u97BX_4skim3tui7previewNtB8_7Preview5spawnNtNtNtCs4CtSrCeEHDB_12ratatui_core7backend4test11TestBackendE0CsjMtkzxvw6jX_5binds
FN:327,_RNCINvMs2_NtNtCs3Snzs7u97BX_4skim3tui7previewNtB8_7Preview5spawnNtNtNtCs4CtSrCeEHDB_12ratatui_core7backend4test11TestBackendEs0_0CsjMtkzxvw6jX_5binds
FN:341,_RNCINvMs2_NtNtCs3Snzs7u97BX_4skim3tui7previewNtB8_7Preview5spawnNtNtNtCs4CtSrCeEHDB_12ratatui_core7backend4test11TestBackendEs1_0CsjMtkzxvw6jX_5binds
FN:406,_RNCINvMs2_NtNtCs3Snzs7u97BX_4skim3tui7previewNtB8_7Preview5spawnNtNtNtCs4CtSrCeEHDB_12ratatui_core7backend4test11TestBackendEs2_0CsjMtkzxvw6jX_5binds
FN:321,_RNCINvMs2_NtNtCs3Snzs7u97BX_4skim3tui7previewNtB8_7Preview5spawnNtNtNtCs4CtSrCeEHDB_12ratatui_core7backend4test11TestBackendEs_0CsjMtkzxvw6jX_5binds
FN:270,_RINvMs2_NtNtCs3Snzs7u97BX_4skim3tui7previewNtB6_7Preview5spawnNtNtNtCs4CtSrCeEHDB_12ratatui_core7backend4test11TestBackendECsjZxsXVxeWnR_4case
FN:313,_RNCINvMs2_NtNtCs3Snzs7u97BX_4skim3tui7previewNtB8_7Preview5spawnNtNtNtCs4CtSrCeEHDB_12ratatui_core7backend4test11TestBackendE0CsjZxsXVxeWnR_4case
FN:327,_RNCINvMs2_NtNtCs3Snzs7u97BX_4skim3tui7previewNtB8_7Preview5spawnNtNtNtCs4CtSrCeEHDB_12ratatui_core7backend4test11TestBackendEs0_0CsjZxsXVxeWnR_4case
FN:341,_RNCINvMs2_NtNtCs3Snzs7u97BX_4skim3tui7previewNtB8_7Preview5spawnNtNtNtCs4CtSrCeEHDB_12ratatui_core7backend4test11TestBackendEs1_0CsjZxsXVxeWnR_4case
FN:406,_RNCINvMs2_NtNtCs3Snzs7u97BX_4skim3tui7previewNtB8_7Preview5spawnNtNtNtCs4CtSrCeEHDB_12ratatui_core7backend4test11TestBackendEs2_0CsjZxsXVxeWnR_4case
FN:321,_RNCINvMs2_NtNtCs3Snzs7u97BX_4skim3tui7previewNtB8_7Preview5spawnNtNtNtCs4CtSrCeEHDB_12ratatui_core7backend4test11TestBackendEs_0CsjZxsXVxeWnR_4case
FN:270,_RINvMs2_NtNtCs3Snzs7u97BX_4skim3tui7previewNtB6_7Preview5spawnNtNtNtCs4CtSrCeEHDB_12ratatui_core7backend4test11TestBackendECs7rs3rzKdeUa_8defaults
FN:313,_RNCINvMs2_NtNtCs3Snzs7u97BX_4skim3tui7previewNtB8_7Preview5spawnNtNtNtCs4CtSrCeEHDB_12ratatui_core7backend4test11TestBackendE0Cs7rs3rzKdeUa_8defaults
FN:327,_RNCINvMs2_NtNtCs3Snzs7u97BX_4skim3tui7previewNtB8_7Preview5spawnNtNtNtCs4CtSrCeEHDB_12ratatui_core7backend4test11TestBackendEs0_0Cs7rs3rzKdeUa_8defaults
FN:341,_RNCINvMs2_NtNtCs3Snzs7u97BX_4skim3tui7previewNtB8_7Preview5spawnNtNtNtCs4CtSrCeEHDB_12ratatui_core7backend4test11TestBackendEs1_0Cs7rs3rzKdeUa_8defaults
FN:406,_RNCINvMs2_NtNtCs3Snzs7u97BX_4skim3tui7previewNtB8_7Preview5spawnNtNtNtCs4CtSrCeEHDB_12ratatui_core7backend4test11TestBackendEs2_0Cs7rs3rzKdeUa_8defaults
FN:321,_RNCINvMs2_NtNtCs3Snzs7u97BX_4skim3tui7previewNtB8_7Preview5spawnNtNtNtCs4CtSrCeEHDB_12ratatui_core7backend4test11TestBackendEs_0Cs7rs3rzKdeUa_8defaults
FN:270,_RINvMs2_NtNtCs3Snzs7u97BX_4skim3tui7previewNtB6_7Preview5spawnNtNtNtCs4CtSrCeEHDB_12ratatui_core7backend4test11TestBackendECs8SL1o0vS7q8_6issues
FN:313,_RNCINvMs2_NtNtCs3Snzs7u97BX_4skim3tui7previewNtB8_7Preview5spawnNtNtNtCs4CtSrCeEHDB_12ratatui_core7backend4test11TestBackendE0Cs8SL1o0vS7q8_6issues
FN:327,_RNCINvMs2_NtNtCs3Snzs7u97BX_4skim3tui7previewNtB8_7Preview5spawnNtNtNtCs4CtSrCeEHDB_12ratatui_core7backend4test11TestBackendEs0_0Cs8SL1o0vS7q8_6issues
FN:341,_RNCINvMs2_NtNtCs3Snzs7u97BX_4skim3tui7previewNtB8_7Preview5spawnNtNtNtCs4CtSrCeEHDB_12ratatui_core7backend4test11TestBackendEs1_0Cs8SL1o0vS7q8_6issues
FN:406,_RNCINvMs2_NtNtCs3Snzs7u97BX_4skim3tui7previewNtB8_7Preview5spawnNtNtNtCs4CtSrCeEHDB_12ratatui_core7backend4test11TestBackendEs2_0Cs8SL1o0vS7q8_6issues
FN:321,_RNCINvMs2_NtNtCs3Snzs7u97BX_4skim3tui7previewNtB8_7Preview5spawnNtNtNtCs4CtSrCeEHDB_12ratatui_core7backend4test11TestBackendEs_0Cs8SL1o0vS7q8_6issues
FN:270,_RINvMs2_NtNtCs3Snzs7u97BX_4skim3tui7previewNtB6_7Preview5spawnNtNtNtCs4CtSrCeEHDB_12ratatui_core7backend4test11TestBackendECs7QtiJHxqkfB_4keys
FN:313,_RNCINvMs2_NtNtCs3Snzs7u97BX_4skim3tui7previewNtB8_7Preview5spawnNtNtNtCs4CtSrCeEHDB_12ratatui_core7backend4test11TestBackendE0Cs7QtiJHxqkfB_4keys
FN:327,_RNCINvMs2_NtNtCs3Snzs7u97BX_4skim3tui7previewNtB8_7Preview5spawnNtNtNtCs4CtSrCeEHDB_12ratatui_core7backend4test11TestBackendEs0_0Cs7QtiJHxqkfB_4keys
FN:341,_RNCINvMs2_NtNtCs3Snzs7u97BX_4skim3tui7previewNtB8_7Preview5spawnNtNtNtCs4CtSrCeEHDB_12ratatui_core7backend4test11TestBackendEs1_0Cs7QtiJHxqkfB_4keys
FN:406,_RNCINvMs2_NtNtCs3Snzs7u97BX_4skim3tui7previewNtB8_7Preview5spawnNtNtNtCs4CtSrCeEHDB_12ratatui_core7backend4test11TestBackendEs2_0Cs7QtiJHxqkfB_4keys
FN:321,_RNCINvMs2_NtNtCs3Snzs7u97BX_4skim3tui7previewNtB8_7Preview5spawnNtNtNtCs4CtSrCeEHDB_12ratatui_core7backend4test11TestBackendEs_0Cs7QtiJHxqkfB_4keys
FN:270,_RINvMs2_NtNtCs3Snzs7u97BX_4skim3tui7previewNtB6_7Preview5spawnNtNtNtCs4CtSrCeEHDB_12ratatui_core7backend4test11TestBackendECscGCI3e7M0l9_16keys_interactive
FN:313,_RNCINvMs2_NtNtCs3Snzs7u97BX_4skim3tui7previewNtB8_7Preview5spawnNtNtNtCs4CtSrCeEHDB_12ratatui_core7backend4test11TestBackendE0CscGCI3e7M0l9_16keys_interactive
FN:327,_RNCINvMs2_NtNtCs3Snzs7u97BX_4skim3tui7previewNtB8_7Preview5spawnNtNtNtCs4CtSrCeEHDB_12ratatui_core7backend4test11TestBackendEs0_0CscGCI3e7M0l9_16keys_interactive
FN:341,_RNCINvMs2_NtNtCs3Snzs7u97BX_4skim3tui7previewNtB8_7Preview5spawnNtNtNtCs4CtSrCeEHDB_12ratatui_core7backend4test11TestBackendEs1_0CscGCI3e7M0l9_16keys_interactive
FN:406,_RNCINvMs2_NtNtCs3Snzs7u97BX_4skim3tui7previewNtB8_7Preview5spawnNtNtNtCs4CtSrCeEHDB_12ratatui_core7backend4test11TestBackendEs2_0CscGCI3e7M0l9_16keys_interactive
FN:321,_RNCINvMs2_NtNtCs3Snzs7u97BX_4skim3tui7previewNtB8_7Preview5spawnNtNtNtCs4CtSrCeEHDB_12ratatui_core7backend4test11TestBackendEs_0CscGCI3e7M0l9_16keys_interactive
FN:270,_RINvMs2_NtNtCs3Snzs7u97BX_4skim3tui7previewNtB6_7Preview5spawnNtNtNtCs4CtSrCeEHDB_12ratatui_core7backend4test11TestBackendECscYgvKuNiZ3L_6layout
FN:313,_RNCINvMs2_NtNtCs3Snzs7u97BX_4skim3tui7previewNtB8_7Preview5spawnNtNtNtCs4CtSrCeEHDB_12ratatui_core7backend4test11TestBackendE0CscYgvKuNiZ3L_6layout
FN:327,_RNCINvMs2_NtNtCs3Snzs7u97BX_4skim3tui7previewNtB8_7Preview5spawnNtNtNtCs4CtSrCeEHDB_12ratatui_core7backend4test11TestBackendEs0_0CscYgvKuNiZ3L_6layout
FN:341,_RNCINvMs2_NtNtCs3Snzs7u97BX_4skim3tui7previewNtB8_7Preview5spawnNtNtNtCs4CtSrCeEHDB_12ratatui_core7backend4test11TestBackendEs1_0CscYgvKuNiZ3L_6layout
FN:406,_RNCINvMs2_NtNtCs3Snzs7u97BX_4skim3tui7previewNtB8_7Preview5spawnNtNtNtCs4CtSrCeEHDB_12ratatui_core7backend4test11TestBackendEs2_0CscYgvKuNiZ3L_6layout
FN:321,_RNCINvMs2_NtNtCs3Snzs7u97BX_4skim3tui7previewNtB8_7Preview5spawnNtNtNtCs4CtSrCeEHDB_12ratatui_core7backend4test11TestBackendEs_0CscYgvKuNiZ3L_6layout
FN:270,_RINvMs2_NtNtCs3Snzs7u97BX_4skim3tui7previewNtB6_7Preview5spawnNtNtNtCs4CtSrCeEHDB_12ratatui_core7backend4test11TestBackendECsajW3zP0EBjk_9normalize
FN:313,_RNCINvMs2_NtNtCs3Snzs7u97BX_4skim3tui7previewNtB8_7Preview5spawnNtNtNtCs4CtSrCeEHDB_12ratatui_core7backend4test11TestBackendE0CsajW3zP0EBjk_9normalize
FN:327,_RNCINvMs2_NtNtCs3Snzs7u97BX_4skim3tui7previewNtB8_7Preview5spawnNtNtNtCs4CtSrCeEHDB_12ratatui_core7backend4test11TestBackendEs0_0CsajW3zP0EBjk_9normalize
FN:341,_RNCINvMs2_NtNtCs3Snzs7u97BX_4skim3tui7previewNtB8_7Preview5spawnNtNtNtCs4CtSrCeEHDB_12ratatui_core7backend4test11TestBackendEs1_0CsajW3zP0EBjk_9normalize
FN:406,_RNCINvMs2_NtNtCs3Snzs7u97BX_4skim3tui7previewNtB8_7Preview5spawnNtNtNtCs4CtSrCeEHDB_12ratatui_core7backend4test11TestBackendEs2_0CsajW3zP0EBjk_9normalize
FN:321,_RNCINvMs2_NtNtCs3Snzs7u97BX_4skim3tui7previewNtB8_7Preview5spawnNtNtNtCs4CtSrCeEHDB_12ratatui_core7backend4test11TestBackendEs_0CsajW3zP0EBjk_9normalize
FN:270,_RINvMs2_NtNtCs3Snzs7u97BX_4skim3tui7previewNtB6_7Preview5spawnNtNtNtCs4CtSrCeEHDB_12ratatui_core7backend4test11TestBackendECs1KNxiT1fe8Y_7options
FN:313,_RNCINvMs2_NtNtCs3Snzs7u97BX_4skim3tui7previewNtB8_7Preview5spawnNtNtNtCs4CtSrCeEHDB_12ratatui_core7backend4test11TestBackendE0Cs1KNxiT1fe8Y_7options
FN:327,_RNCINvMs2_NtNtCs3Snzs7u97BX_4skim3tui7previewNtB8_7Preview5spawnNtNtNtCs4CtSrCeEHDB_12ratatui_core7backend4test11TestBackendEs0_0Cs1KNxiT1fe8Y_7options
FN:341,_RNCINvMs2_NtNtCs3Snzs7u97BX_4skim3tui7previewNtB8_7Preview5spawnNtNtNtCs4CtSrCeEHDB_12ratatui_core7backend4test11TestBackendEs1_0Cs1KNxiT1fe8Y_7options
FN:406,_RNCINvMs2_NtNtCs3Snzs7u97BX_4skim3tui7previewNtB8_7Preview5spawnNtNtNtCs4CtSrCeEHDB_12ratatui_core7backend4test11TestBackendEs2_0Cs1KNxiT1fe8Y_7options
FN:321,_RNCINvMs2_NtNtCs3Snzs7u97BX_4skim3tui7previewNtB8_7Preview5spawnNtNtNtCs4CtSrCeEHDB_12ratatui_core7backend4test11TestBackendEs_0Cs1KNxiT1fe8Y_7options
FN:270,_RINvMs2_NtNtCs3Snzs7u97BX_4skim3tui7previewNtB6_7Preview5spawnNtNtNtCs4CtSrCeEHDB_12ratatui_core7backend4test11TestBackendECs38oDVg7bgx1_7preview
FN:313,_RNCINvMs2_NtNtCs3Snzs7u97BX_4skim3tui7previewNtB8_7Preview5spawnNtNtNtCs4CtSrCeEHDB_12ratatui_core7backend4test11TestBackendE0Cs38oDVg7bgx1_7preview
FN:327,_RNCINvMs2_NtNtCs3Snzs7u97BX_4skim3tui7previewNtB8_7Preview5spawnNtNtNtCs4CtSrCeEHDB_12ratatui_core7backend4test11TestBackendEs0_0Cs38oDVg7bgx1_7preview
FN:341,_RNCINvMs2_NtNtCs3Snzs7u97BX_4skim3tui7previewNtB8_7Preview5spawnNtNtNtCs4CtSrCeEHDB_12ratatui_core7backend4test11TestBackendEs1_0Cs38oDVg7bgx1_7preview
FN:406,_RNCINvMs2_NtNtCs3Snzs7u97BX_4skim3tui7previewNtB8_7Preview5spawnNtNtNtCs4CtSrCeEHDB_12ratatui_core7backend4test11TestBackendEs2_0Cs38oDVg7bgx1_7preview
FN:321,_RNCINvMs2_NtNtCs3Snzs7u97BX_4skim3tui7previewNtB8_7Preview5spawnNtNtNtCs4CtSrCeEHDB_12ratatui_core7backend4test11TestBackendEs_0Cs38oDVg7bgx1_7preview
FN:270,_RINvMs2_NtNtCs2dRlemTKIe9_4skim3tui7previewNtB6_7Preview5spawnpEBa_
FN:313,_RNCINvMs2_NtNtCs2dRlemTKIe9_4skim3tui7previewNtB8_7Preview5spawnpE0Bc_
FN:327,_RNCINvMs2_NtNtCs2dRlemTKIe9_4skim3tui7previewNtB8_7Preview5spawnpEs0_0Bc_
FN:341,_RNCINvMs2_NtNtCs2dRlemTKIe9_4skim3tui7previewNtB8_7Preview5spawnpEs1_0Bc_
FN:406,_RNCINvMs2_NtNtCs2dRlemTKIe9_4skim3tui7previewNtB8_7Preview5spawnpEs2_0Bc_
FN:321,_RNCINvMs2_NtNtCs2dRlemTKIe9_4skim3tui7previewNtB8_7Preview5spawnpEs_0Bc_
FN:191,_RNCNvMs2_NtNtCs2dRlemTKIe9_4skim3tui7previewNtB7_7Preview21content_with_position0Bb_
FN:481,_RNCNvXs4_NtNtCs2dRlemTKIe9_4skim3tui7previewNtB7_7PreviewNtNtB9_6widget10SkimWidget6render0Bb_
FN:231,_RNvMs2_NtNtCs2dRlemTKIe9_4skim3tui7previewNtB5_7Preview10set_offset
FN:207,_RNvMs2_NtNtCs2dRlemTKIe9_4skim3tui7previewNtB5_7Preview11scroll_down
FN:223,_RNvMs2_NtNtCs2dRlemTKIe9_4skim3tui7previewNtB5_7Preview11scroll_left
FN:227,_RNvMs2_NtNtCs2dRlemTKIe9_4skim3tui7previewNtB5_7Preview12scroll_right
FN:112,_RNvMs2_NtNtCs2dRlemTKIe9_4skim3tui7previewNtB5_7Preview14size_to_offset
FN:190,_RNvMs2_NtNtCs2dRlemTKIe9_4skim3tui7previewNtB5_7Preview21content_with_position
FN:140,_RNvMs2_NtNtCs2dRlemTKIe9_4skim3tui7previewNtB5_7Preview29filter_and_respond_to_queries
FN:245,_RNvMs2_NtNtCs2dRlemTKIe9_4skim3tui7previewNtB5_7Preview4kill
FN:178,_RNvMs2_NtNtCs2dRlemTKIe9_4skim3tui7previewNtB5_7Preview7content
FN:235,_RNvMs2_NtNtCs2dRlemTKIe9_4skim3tui7previewNtB5_7Preview7page_up
FN:122,_RNvMs2_NtNtCs2dRlemTKIe9_4skim3tui7previewNtB5_7Preview8init_pty
FN:240,_RNvMs2_NtNtCs2dRlemTKIe9_4skim3tui7previewNtB5_7Preview9page_down
FN:203,_RNvMs2_NtNtCs2dRlemTKIe9_4skim3tui7previewNtB5_7Preview9scroll_up
FN:55,_RNvXININtNtCs2dRlemTKIe9_4skim3tui7previews_0pENtB5_15PreviewCallbackINtNtCs3IJltBbNwOJ_4core7convert4FrompE4fromB9_
FN:40,_RNvXNtNtCs2dRlemTKIe9_4skim3tui7previewNtB2_14PreviewContentNtNtCs3IJltBbNwOJ_4core7default7Default7default
FN:63,_RNvXs0_NtNtCs2dRlemTKIe9_4skim3tui7previewNtB5_15PreviewCallbackNtNtNtCs3IJltBbNwOJ_4core3ops5deref5Deref5deref
FN:89,_RNvXs1_NtNtCs2dRlemTKIe9_4skim3tui7previewNtB5_7PreviewNtNtCs3IJltBbNwOJ_4core7default7Default7default
FN:441,_RNvXs3_NtNtCs2dRlemTKIe9_4skim3tui7previewNtB5_7PreviewNtNtNtCs3IJltBbNwOJ_4core3ops4drop4Drop4drop
FN:451,_RNvXs4_NtNtCs2dRlemTKIe9_4skim3tui7previewNtB5_7PreviewNtNtB7_6widget10SkimWidget12from_options
FN:477,_RNvXs4_NtNtCs2dRlemTKIe9_4skim3tui7previewNtB5_7PreviewNtNtB7_6widget10SkimWidget6render
FN:270,_RINvMs2_NtNtCs3Snzs7u97BX_4skim3tui7previewNtB6_7Preview5spawnNtNtNtCs4CtSrCeEHDB_12ratatui_core7backend4test11TestBackendECsdYHrDtgrOQb_11split_match
FN:313,_RNCINvMs2_NtNtCs3Snzs7u97BX_4skim3tui7previewNtB8_7Preview5spawnNtNtNtCs4CtSrCeEHDB_12ratatui_core7backend4test11TestBackendE0CsdYHrDtgrOQb_11split_match
FN:327,_RNCINvMs2_NtNtCs3Snzs7u97BX_4skim3tui7previewNtB8_7Preview5spawnNtNtNtCs4CtSrCeEHDB_12ratatui_core7backend4test11TestBackendEs0_0CsdYHrDtgrOQb_11split_match
FN:341,_RNCINvMs2_NtNtCs3Snzs7u97BX_4skim3tui7previewNtB8_7Preview5spawnNtNtNtCs4CtSrCeEHDB_12ratatui_core7backend4test11TestBackendEs1_0CsdYHrDtgrOQb_11split_match
FN:406,_RNCINvMs2_NtNtCs3Snzs7u97BX_4skim3tui7previewNtB8_7Preview5spawnNtNtNtCs4CtSrCeEHDB_12ratatui_core7backend4test11TestBackendEs2_0CsdYHrDtgrOQb_11split_match
FN:321,_RNCINvMs2_NtNtCs3Snzs7u97BX_4skim3tui7previewNtB8_7Preview5spawnNtNtNtCs4CtSrCeEHDB_12ratatui_core7backend4test11TestBackendEs_0CsdYHrDtgrOQb_11split_match
FN:270,_RINvMs2_NtNtCs3Snzs7u97BX_4skim3tui7previewNtB6_7Preview5spawnNtNtNtCs4CtSrCeEHDB_12ratatui_core7backend4test11TestBackendECskazwg9rDpax_8tiebreak
FN:313,_RNCINvMs2_NtNtCs3Snzs7u97BX_4skim3tui7previewNtB8_7Preview5spawnNtNtNtCs4CtSrCeEHDB_12ratatui_core7backend4test11TestBackendE0Cskazwg9rDpax_8tiebreak
FN:327,_RNCINvMs2_NtNtCs3Snzs7u97BX_4skim3tui7previewNtB8_7Preview5spawnNtNtNtCs4CtSrCeEHDB_12ratatui_core7backend4test11TestBackendEs0_0Cskazwg9rDpax_8tiebreak
FN:341,_RNCINvMs2_NtNtCs3Snzs7u97BX_4skim3tui7previewNtB8_7Preview5spawnNtNtNtCs4CtSrCeEHDB_12ratatui_core7backend4test11TestBackendEs1_0Cskazwg9rDpax_8tiebreak
FN:406,_RNCINvMs2_NtNtCs3Snzs7u97BX_4skim3tui7previewNtB8_7Preview5spawnNtNtNtCs4CtSrCeEHDB_12ratatui_core7backend4test11TestBackendEs2_0Cskazwg9rDpax_8tiebreak
FN:321,_RNCINvMs2_NtNtCs3Snzs7u97BX_4skim3tui7previewNtB8_7Preview5spawnNtNtNtCs4CtSrCeEHDB_12ratatui_core7backend4test11TestBackendEs_0Cskazwg9rDpax_8tiebreak
FNDA:0,_RINvMs2_NtNtCs3Snzs7u97BX_4skim3tui7previewNtB6_7Preview5spawnNtNtNtCs4CtSrCeEHDB_12ratatui_core7backend4test11TestBackendECsh7ZzE9tTlqq_4ansi
FNDA:0,_RNCINvMs2_NtNtCs3Snzs7u97BX_4skim3tui7previewNtB8_7Preview5spawnNtNtNtCs4CtSrCeEHDB_12ratatui_core7backend4test11TestBackendE0Csh7ZzE9tTlqq_4ansi
FNDA:0,_RNCINvMs2_NtNtCs3Snzs7u97BX_4skim3tui7previewNtB8_7Preview5spawnNtNtNtCs4CtSrCeEHDB_12ratatui_core7backend4test11TestBackendEs0_0Csh7ZzE9tTlqq_4ansi
FNDA:0,_RNCINvMs2_NtNtCs3Snzs7u97BX_4skim3tui7previewNtB8_7Preview5spawnNtNtNtCs4CtSrCeEHDB_12ratatui_core7backend4test11TestBackendEs1_0Csh7ZzE9tTlqq_4ansi
FNDA:0,_RNCINvMs2_NtNtCs3Snzs7u97BX_4skim3tui7previewNtB8_7Preview5spawnNtNtNtCs4CtSrCeEHDB_12ratatui_core7backend4test11TestBackendEs2_0Csh7ZzE9tTlqq_4ansi
FNDA:0,_RNCINvMs2_NtNtCs3Snzs7u97BX_4skim3tui7previewNtB8_7Preview5spawnNtNtNtCs4CtSrCeEHDB_12ratatui_core7backend4test11TestBackendEs_0Csh7ZzE9tTlqq_4ansi
FNDA:0,_RINvMs2_NtNtCs3Snzs7u97BX_4skim3tui7previewNtB6_7Preview5spawnINtCsa8sjCXQ6JGg_17ratatui_crossterm16CrosstermBackendINtNtNtNtCs5U62srxYbFV_3std2io8buffered9bufwriter9BufWriterNtNtB1X_5stdio6StderrEEEBa_
FNDA:0,_RNCINvMs2_NtNtCs3Snzs7u97BX_4skim3tui7previewNtB8_7Preview5spawnINtCsa8sjCXQ6JGg_17ratatui_crossterm16CrosstermBackendINtNtNtNtCs5U62srxYbFV_3std2io8buffered9bufwriter9BufWriterNtNtB1Z_5stdio6StderrEEE0Bc_
FNDA:0,_RNCINvMs2_NtNtCs3Snzs7u97BX_4skim3tui7previewNtB8_7Preview5spawnINtCsa8sjCXQ6JGg_17ratatui_crossterm16CrosstermBackendINtNtNtNtCs5U62srxYbFV_3std2io8buffered9bufwriter9BufWriterNtNtB1Z_5stdio6StderrEEEs0_0Bc_
FNDA:0,_RNCINvMs2_NtNtCs3Snzs7u97BX_4skim3tui7previewNtB8_7Preview5spawnINtCsa8sjCXQ6JGg_17ratatui_crossterm16CrosstermBackendINtNtNtNtCs5U62srxYbFV_3std2io8buffered9bufwriter9BufWriterNtNtB1Z_5stdio6StderrEEEs1_0Bc_
FNDA:0,_RNCINvMs2_NtNtCs3Snzs7u97BX_4skim3tui7previewNtB8_7Preview5spawnINtCsa8sjCXQ6JGg_17ratatui_crossterm16CrosstermBackendINtNtNtNtCs5U62srxYbFV_3std2io8buffered9bufwriter9BufWriterNtNtB1Z_5stdio6StderrEEEs2_0Bc_
FNDA:0,_RNCINvMs2_NtNtCs3Snzs7u97BX_4skim3tui7previewNtB8_7Preview5spawnINtCsa8sjCXQ6JGg_17ratatui_crossterm16CrosstermBackendINtNtNtNtCs5U62srxYbFV_3std2io8buffered9bufwriter9BufWriterNtNtB1Z_5stdio6StderrEEEs_0Bc_
FNDA:0,_RNCNvMs2_NtNtCs3Snzs7u97BX_4skim3tui7previewNtB7_7Preview21content_with_position0Bb_
FNDA:0,_RNCNvXs4_NtNtCs3Snzs7u97BX_4skim3tui7previewNtB7_7PreviewNtNtB9_6widget10SkimWidget6render0Bb_
FNDA:0,_RNvMs2_NtNtCs3Snzs7u97BX_4skim3tui7previewNtB5_7Preview10set_offset
FNDA:0,_RNvMs2_NtNtCs3Snzs7u97BX_4skim3tui7previewNtB5_7Preview11scroll_down
FNDA:0,_RNvMs2_NtNtCs3Snzs7u97BX_4skim3tui7previewNtB5_7Preview11scroll_left
FNDA:0,_RNvMs2_NtNtCs3Snzs7u97BX_4skim3tui7previewNtB5_7Preview12scroll_right
FNDA:0,_RNvMs2_NtNtCs3Snzs7u97BX_4skim3tui7previewNtB5_7Preview14size_to_offset
FNDA:0,_RNvMs2_NtNtCs3Snzs7u97BX_4skim3tui7previewNtB5_7Preview21content_with_position
FNDA:0,_RNvMs2_NtNtCs3Snzs7u97BX_4skim3tui7previewNtB5_7Preview29filter_and_respond_to_queries
FNDA:0,_RNvMs2_NtNtCs3Snzs7u97BX_4skim3tui7previewNtB5_7Preview4kill
FNDA:0,_RNvMs2_NtNtCs3Snzs7u97BX_4skim3tui7previewNtB5_7Preview7content
FNDA:0,_RNvMs2_NtNtCs3Snzs7u97BX_4skim3tui7previewNtB5_7Preview7page_up
FNDA:0,_RNvMs2_NtNtCs3Snzs7u97BX_4skim3tui7previewNtB5_7Preview8init_pty
FNDA:0,_RNvMs2_NtNtCs3Snzs7u97BX_4skim3tui7previewNtB5_7Preview9page_down
FNDA:0,_RNvMs2_NtNtCs3Snzs7u97BX_4skim3tui7previewNtB5_7Preview9scroll_up
FNDA:0,_RNvXNtNtCs3Snzs7u97BX_4skim3tui7previewNtB2_14PreviewContentNtNtCs3IJltBbNwOJ_4core7default7Default7default
FNDA:0,_RNvXs0_NtNtCs3Snzs7u97BX_4skim3tui7previewNtB5_15PreviewCallbackNtNtNtCs3IJltBbNwOJ_4core3ops5deref5Deref5deref
FNDA:0,_RNvXs1_NtNtCs3Snzs7u97BX_4skim3tui7previewNtB5_7PreviewNtNtCs3IJltBbNwOJ_4core7default7Default7default
FNDA:0,_RNvXs3_NtNtCs3Snzs7u97BX_4skim3tui7previewNtB5_7PreviewNtNtNtCs3IJltBbNwOJ_4core3ops4drop4Drop4drop
FNDA:0,_RNvXs4_NtNtCs3Snzs7u97BX_4skim3tui7previewNtB5_7PreviewNtNtB7_6widget10SkimWidget12from_options
FNDA:0,_RNvXs4_NtNtCs3Snzs7u97BX_4skim3tui7previewNtB5_7PreviewNtNtB7_6widget10SkimWidget6render
FNDA:0,_RNvXININtNtCs3Snzs7u97BX_4skim3tui7previews_0pENtB5_15PreviewCallbackINtNtCs3IJltBbNwOJ_4core7convert4FrompE4fromB9_
FNDA:0,_RINvMs2_NtNtCs3Snzs7u97BX_4skim3tui7previewNtB6_7Preview5spawnNtNtNtCs4CtSrCeEHDB_12ratatui_core7backend4test11TestBackendECsjMtkzxvw6jX_5binds
FNDA:0,_RNCINvMs2_NtNtCs3Snzs7u97BX_4skim3tui7previewNtB8_7Preview5spawnNtNtNtCs4CtSrCeEHDB_12ratatui_core7backend4test11TestBackendE0CsjMtkzxvw6jX_5binds
FNDA:0,_RNCINvMs2_NtNtCs3Snzs7u97BX_4skim3tui7previewNtB8_7Preview5spawnNtNtNtCs4CtSrCeEHDB_12ratatui_core7backend4test11TestBackendEs0_0CsjMtkzxvw6jX_5binds
FNDA:0,_RNCINvMs2_NtNtCs3Snzs7u97BX_4skim3tui7previewNtB8_7Preview5spawnNtNtNtCs4CtSrCeEHDB_12ratatui_core7backend4test11TestBackendEs1_0CsjMtkzxvw6jX_5binds
FNDA:0,_RNCINvMs2_NtNtCs3Snzs7u97BX_4skim3tui7previewNtB8_7Preview5spawnNtNtNtCs4CtSrCeEHDB_12ratatui_core7backend4test11TestBackendEs2_0CsjMtkzxvw6jX_5binds
FNDA:0,_RNCINvMs2_NtNtCs3Snzs7u97BX_4skim3tui7previewNtB8_7Preview5spawnNtNtNtCs4CtSrCeEHDB_12ratatui_core7backend4test11TestBackendEs_0CsjMtkzxvw6jX_5binds
FNDA:0,_RINvMs2_NtNtCs3Snzs7u97BX_4skim3tui7previewNtB6_7Preview5spawnNtNtNtCs4CtSrCeEHDB_12ratatui_core7backend4test11TestBackendECsjZxsXVxeWnR_4case
FNDA:0,_RNCINvMs2_NtNtCs3Snzs7u97BX_4skim3tui7previewNtB8_7Preview5spawnNtNtNtCs4CtSrCeEHDB_12ratatui_core7backend4test11TestBackendE0CsjZxsXVxeWnR_4case
FNDA:0,_RNCINvMs2_NtNtCs3Snzs7u97BX_4skim3tui7previewNtB8_7Preview5spawnNtNtNtCs4CtSrCeEHDB_12ratatui_core7backend4test11TestBackendEs0_0CsjZxsXVxeWnR_4case
FNDA:0,_RNCINvMs2_NtNtCs3Snzs7u97BX_4skim3tui7previewNtB8_7Preview5spawnNtNtNtCs4CtSrCeEHDB_12ratatui_core7backend4test11TestBackendEs1_0CsjZxsXVxeWnR_4case
FNDA:0,_RNCINvMs2_NtNtCs3Snzs7u97BX_4skim3tui7previewNtB8_7Preview5spawnNtNtNtCs4CtSrCeEHDB_12ratatui_core7backend4test11TestBackendEs2_0CsjZxsXVxeWnR_4case
FNDA:0,_RNCINvMs2_NtNtCs3Snzs7u97BX_4skim3tui7previewNtB8_7Preview5spawnNtNtNtCs4CtSrCeEHDB_12ratatui_core7backend4test11TestBackendEs_0CsjZxsXVxeWnR_4case
FNDA:0,_RINvMs2_NtNtCs3Snzs7u97BX_4skim3tui7previewNtB6_7Preview5spawnNtNtNtCs4CtSrCeEHDB_12ratatui_core7backend4test11TestBackendECs7rs3rzKdeUa_8defaults
FNDA:0,_RNCINvMs2_NtNtCs3Snzs7u97BX_4skim3tui7previewNtB8_7Preview5spawnNtNtNtCs4CtSrCeEHDB_12ratatui_core7backend4test11TestBackendE0Cs7rs3rzKdeUa_8defaults
FNDA:0,_RNCINvMs2_NtNtCs3Snzs7u97BX_4skim3tui7previewNtB8_7Preview5spawnNtNtNtCs4CtSrCeEHDB_12ratatui_core7backend4test11TestBackendEs0_0Cs7rs3rzKdeUa_8defaults
FNDA:0,_RNCINvMs2_NtNtCs3Snzs7u97BX_4skim3tui7previewNtB8_7Preview5spawnNtNtNtCs4CtSrCeEHDB_12ratatui_core7backend4test11TestBackendEs1_0Cs7rs3rzKdeUa_8defaults
FNDA:0,_RNCINvMs2_NtNtCs3Snzs7u97BX_4skim3tui7previewNtB8_7Preview5spawnNtNtNtCs4CtSrCeEHDB_12ratatui_core7backend4test11TestBackendEs2_0Cs7rs3rzKdeUa_8defaults
FNDA:0,_RNCINvMs2_NtNtCs3Snzs7u97BX_4skim3tui7previewNtB8_7Preview5spawnNtNtNtCs4CtSrCeEHDB_12ratatui_core7backend4test11TestBackendEs_0Cs7rs3rzKdeUa_8defaults
FNDA:0,_RINvMs2_NtNtCs3Snzs7u97BX_4skim3tui7previewNtB6_7Preview5spawnNtNtNtCs4CtSrCeEHDB_12ratatui_core7backend4test11TestBackendECs8SL1o0vS7q8_6issues
FNDA:0,_RNCINvMs2_NtNtCs3Snzs7u97BX_4skim3tui7previewNtB8_7Preview5spawnNtNtNtCs4CtSrCeEHDB_12ratatui_core7backend4test11TestBackendE0Cs8SL1o0vS7q8_6issues
FNDA:0,_RNCINvMs2_NtNtCs3Snzs7u97BX_4skim3tui7previewNtB8_7Preview5spawnNtNtNtCs4CtSrCeEHDB_12ratatui_core7backend4test11TestBackendEs0_0Cs8SL1o0vS7q8_6issues
FNDA:0,_RNCINvMs2_NtNtCs3Snzs7u97BX_4skim3tui7previewNtB8_7Preview5spawnNtNtNtCs4CtSrCeEHDB_12ratatui_core7backend4test11TestBackendEs1_0Cs8SL1o0vS7q8_6issues
FNDA:0,_RNCINvMs2_NtNtCs3Snzs7u97BX_4skim3tui7previewNtB8_7Preview5spawnNtNtNtCs4CtSrCeEHDB_12ratatui_core7backend4test11TestBackendEs2_0Cs8SL1o0vS7q8_6issues
FNDA:0,_RNCINvMs2_NtNtCs3Snzs7u97BX_4skim3tui7previewNtB8_7Preview5spawnNtNtNtCs4CtSrCeEHDB_12ratatui_core7backend4test11TestBackendEs_0Cs8SL1o0vS7q8_6issues
FNDA:0,_RINvMs2_NtNtCs3Snzs7u97BX_4skim3tui7previewNtB6_7Preview5spawnNtNtNtCs4CtSrCeEHDB_12ratatui_core7backend4test11TestBackendECs7QtiJHxqkfB_4keys
FNDA:0,_RNCINvMs2_NtNtCs3Snzs7u97BX_4skim3tui7previewNtB8_7Preview5spawnNtNtNtCs4CtSrCeEHDB_12ratatui_core7backend4test11TestBackendE0Cs7QtiJHxqkfB_4keys
FNDA:0,_RNCINvMs2_NtNtCs3Snzs7u97BX_4skim3tui7previewNtB8_7Preview5spawnNtNtNtCs4CtSrCeEHDB_12ratatui_core7backend4test11TestBackendEs0_0Cs7QtiJHxqkfB_4keys
FNDA:0,_RNCINvMs2_NtNtCs3Snzs7u97BX_4skim3tui7previewNtB8_7Preview5spawnNtNtNtCs4CtSrCeEHDB_12ratatui_core7backend4test11TestBackendEs1_0Cs7QtiJHxqkfB_4keys
FNDA:0,_RNCINvMs2_NtNtCs3Snzs7u97BX_4skim3tui7previewNtB8_7Preview5spawnNtNtNtCs4CtSrCeEHDB_12ratatui_core7backend4test11TestBackendEs2_0Cs7QtiJHxqkfB_4keys
FNDA:0,_RNCINvMs2_NtNtCs3Snzs7u97BX_4skim3tui7previewNtB8_7Preview5spawnNtNtNtCs4CtSrCeEHDB_12ratatui_core7backend4test11TestBackendEs_0Cs7QtiJHxqkfB_4keys
FNDA:0,_RINvMs2_NtNtCs3Snzs7u97BX_4skim3tui7previewNtB6_7Preview5spawnNtNtNtCs4CtSrCeEHDB_12ratatui_core7backend4test11TestBackendECscGCI3e7M0l9_16keys_interactive
FNDA:0,_RNCINvMs2_NtNtCs3Snzs7u97BX_4skim3tui7previewNtB8_7Preview5spawnNtNtNtCs4CtSrCeEHDB_12ratatui_core7backend4test11TestBackendE0CscGCI3e7M0l9_16keys_interactive
FNDA:0,_RNCINvMs2_NtNtCs3Snzs7u97BX_4skim3tui7previewNtB8_7Preview5spawnNtNtNtCs4CtSrCeEHDB_12ratatui_core7backend4test11TestBackendEs0_0CscGCI3e7M0l9_16keys_interactive
FNDA:0,_RNCINvMs2_NtNtCs3Snzs7u97BX_4skim3tui7previewNtB8_7Preview5spawnNtNtNtCs4CtSrCeEHDB_12ratatui_core7backend4test11TestBackendEs1_0CscGCI3e7M0l9_16keys_interactive
FNDA:0,_RNCINvMs2_NtNtCs3Snzs7u97BX_4skim3tui7previewNtB8_7Preview5spawnNtNtNtCs4CtSrCeEHDB_12ratatui_core7backend4test11TestBackendEs2_0CscGCI3e7M0l9_16keys_interactive
FNDA:0,_RNCINvMs2_NtNtCs3Snzs7u97BX_4skim3tui7previewNtB8_7Preview5spawnNtNtNtCs4CtSrCeEHDB_12ratatui_core7backend4test11TestBackendEs_0CscGCI3e7M0l9_16keys_interactive
FNDA:0,_RINvMs2_NtNtCs3Snzs7u97BX_4skim3tui7previewNtB6_7Preview5spawnNtNtNtCs4CtSrCeEHDB_12ratatui_core7backend4test11TestBackendECscYgvKuNiZ3L_6layout
FNDA:0,_RNCINvMs2_NtNtCs3Snzs7u97BX_4skim3tui7previewNtB8_7Preview5spawnNtNtNtCs4CtSrCeEHDB_12ratatui_core7backend4test11TestBackendE0CscYgvKuNiZ3L_6layout
FNDA:0,_RNCINvMs2_NtNtCs3Snzs7u97BX_4skim3tui7previewNtB8_7Preview5spawnNtNtNtCs4CtSrCeEHDB_12ratatui_core7backend4test11TestBackendEs0_0CscYgvKuNiZ3L_6layout
FNDA:0,_RNCINvMs2_NtNtCs3Snzs7u97BX_4skim3tui7previewNtB8_7Preview5spawnNtNtNtCs4CtSrCeEHDB_12ratatui_core7backend4test11TestBackendEs1_0CscYgvKuNiZ3L_6layout
FNDA:0,_RNCINvMs2_NtNtCs3Snzs7u97BX_4skim3tui7previewNtB8_7Preview5spawnNtNtNtCs4CtSrCeEHDB_12ratatui_core7backend4test11TestBackendEs2_0CscYgvKuNiZ3L_6layout
FNDA:0,_RNCINvMs2_NtNtCs3Snzs7u97BX_4skim3tui7previewNtB8_7Preview5spawnNtNtNtCs4CtSrCeEHDB_12ratatui_core7backend4test11TestBackendEs_0CscYgvKuNiZ3L_6layout
FNDA:0,_RINvMs2_NtNtCs3Snzs7u97BX_4skim3tui7previewNtB6_7Preview5spawnNtNtNtCs4CtSrCeEHDB_12ratatui_core7backend4test11TestBackendECsajW3zP0EBjk_9normalize
FNDA:0,_RNCINvMs2_NtNtCs3Snzs7u97BX_4skim3tui7previewNtB8_7Preview5spawnNtNtNtCs4CtSrCeEHDB_12ratatui_core7backend4test11TestBackendE0CsajW3zP0EBjk_9normalize
FNDA:0,_RNCINvMs2_NtNtCs3Snzs7u97BX_4skim3tui7previewNtB8_7Preview5spawnNtNtNtCs4CtSrCeEHDB_12ratatui_core7backend4test11TestBackendEs0_0CsajW3zP0EBjk_9normalize
FNDA:0,_RNCINvMs2_NtNtCs3Snzs7u97BX_4skim3tui7previewNtB8_7Preview5spawnNtNtNtCs4CtSrCeEHDB_12ratatui_core7backend4test11TestBackendEs1_0CsajW3zP0EBjk_9normalize
FNDA:0,_RNCINvMs2_NtNtCs3Snzs7u97BX_4skim3tui7previewNtB8_7Preview5spawnNtNtNtCs4CtSrCeEHDB_12ratatui_core7backend4test11TestBackendEs2_0CsajW3zP0EBjk_9normalize
FNDA:0,_RNCINvMs2_NtNtCs3Snzs7u97BX_4skim3tui7previewNtB8_7Preview5spawnNtNtNtCs4CtSrCeEHDB_12ratatui_core7backend4test11TestBackendEs_0CsajW3zP0EBjk_9normalize
FNDA:0,_RINvMs2_NtNtCs3Snzs7u97BX_4skim3tui7previewNtB6_7Preview5spawnNtNtNtCs4CtSrCeEHDB_12ratatui_core7backend4test11TestBackendECs1KNxiT1fe8Y_7options
FNDA:0,_RNCINvMs2_NtNtCs3Snzs7u97BX_4skim3tui7previewNtB8_7Preview5spawnNtNtNtCs4CtSrCeEHDB_12ratatui_core7backend4test11TestBackendE0Cs1KNxiT1fe8Y_7options
FNDA:0,_RNCINvMs2_NtNtCs3Snzs7u97BX_4skim3tui7previewNtB8_7Preview5spawnNtNtNtCs4CtSrCeEHDB_12ratatui_core7backend4test11TestBackendEs0_0Cs1KNxiT1fe8Y_7options
FNDA:0,_RNCINvMs2_NtNtCs3Snzs7u97BX_4skim3tui7previewNtB8_7Preview5spawnNtNtNtCs4CtSrCeEHDB_12ratatui_core7backend4test11TestBackendEs1_0Cs1KNxiT1fe8Y_7options
FNDA:0,_RNCINvMs2_NtNtCs3Snzs7u97BX_4skim3tui7previewNtB8_7Preview5spawnNtNtNtCs4CtSrCeEHDB_12ratatui_core7backend4test11TestBackendEs2_0Cs1KNxiT1fe8Y_7options
FNDA:0,_RNCINvMs2_NtNtCs3Snzs7u97BX_4skim3tui7previewNtB8_7Preview5spawnNtNtNtCs4CtSrCeEHDB_12ratatui_core7backend4test11TestBackendEs_0Cs1KNxiT1fe8Y_7options
FNDA:0,_RINvMs2_NtNtCs3Snzs7u97BX_4skim3tui7previewNtB6_7Preview5spawnNtNtNtCs4CtSrCeEHDB_12ratatui_core7backend4test11TestBackendECs38oDVg7bgx1_7preview
FNDA:0,_RNCINvMs2_NtNtCs3Snzs7u97BX_4skim3tui7previewNtB8_7Preview5spawnNtNtNtCs4CtSrCeEHDB_12ratatui_core7backend4test11TestBackendE0Cs38oDVg7bgx1_7preview
FNDA:0,_RNCINvMs2_NtNtCs3Snzs7u97BX_4skim3tui7previewNtB8_7Preview5spawnNtNtNtCs4CtSrCeEHDB_12ratatui_core7backend4test11TestBackendEs0_0Cs38oDVg7bgx1_7preview
FNDA:0,_RNCINvMs2_NtNtCs3Snzs7u97BX_4skim3tui7previewNtB8_7Preview5spawnNtNtNtCs4CtSrCeEHDB_12ratatui_core7backend4test11TestBackendEs1_0Cs38oDVg7bgx1_7preview
FNDA:0,_RNCINvMs2_NtNtCs3Snzs7u97BX_4skim3tui7previewNtB8_7Preview5spawnNtNtNtCs4CtSrCeEHDB_12ratatui_core7backend4test11TestBackendEs2_0Cs38oDVg7bgx1_7preview
FNDA:0,_RNCINvMs2_NtNtCs3Snzs7u97BX_4skim3tui7previewNtB8_7Preview5spawnNtNtNtCs4CtSrCeEHDB_12ratatui_core7backend4test11TestBackendEs_0Cs38oDVg7bgx1_7preview
FNDA:0,_RINvMs2_NtNtCs2dRlemTKIe9_4skim3tui7previewNtB6_7Preview5spawnpEBa_
FNDA:0,_RNCINvMs2_NtNtCs2dRlemTKIe9_4skim3tui7previewNtB8_7Preview5spawnpE0Bc_
FNDA:0,_RNCINvMs2_NtNtCs2dRlemTKIe9_4skim3tui7previewNtB8_7Preview5spawnpEs0_0Bc_
FNDA:0,_RNCINvMs2_NtNtCs2dRlemTKIe9_4skim3tui7previewNtB8_7Preview5spawnpEs1_0Bc_
FNDA:0,_RNCINvMs2_NtNtCs2dRlemTKIe9_4skim3tui7previewNtB8_7Preview5spawnpEs2_0Bc_
FNDA:0,_RNCINvMs2_NtNtCs2dRlemTKIe9_4skim3tui7previewNtB8_7Preview5spawnpEs_0Bc_
FNDA:0,_RNCNvMs2_NtNtCs2dRlemTKIe9_4skim3tui7previewNtB7_7Preview21content_with_position0Bb_
FNDA:0,_RNCNvXs4_NtNtCs2dRlemTKIe9_4skim3tui7previewNtB7_7PreviewNtNtB9_6widget10SkimWidget6render0Bb_
FNDA:0,_RNvMs2_NtNtCs2dRlemTKIe9_4skim3tui7previewNtB5_7Preview10set_offset
FNDA:0,_RNvMs2_NtNtCs2dRlemTKIe9_4skim3tui7previewNtB5_7Preview11scroll_down
FNDA:0,_RNvMs2_NtNtCs2dRlemTKIe9_4skim3tui7previewNtB5_7Preview11scroll_left
FNDA:0,_RNvMs2_NtNtCs2dRlemTKIe9_4skim3tui7previewNtB5_7Preview12scroll_right
FNDA:0,_RNvMs2_NtNtCs2dRlemTKIe9_4skim3tui7previewNtB5_7Preview14size_to_offset
FNDA:0,_RNvMs2_NtNtCs2dRlemTKIe9_4skim3tui7previewNtB5_7Preview21content_with_position
FNDA:0,_RNvMs2_NtNtCs2dRlemTKIe9_4skim3tui7previewNtB5_7Preview29filter_and_respond_to_queries
FNDA:0,_RNvMs2_NtNtCs2dRlemTKIe9_4skim3tui7previewNtB5_7Preview4kill
FNDA:0,_RNvMs2_NtNtCs2dRlemTKIe9_4skim3tui7previewNtB5_7Preview7content
FNDA:0,_RNvMs2_NtNtCs2dRlemTKIe9_4skim3tui7previewNtB5_7Preview7page_up
FNDA:0,_RNvMs2_NtNtCs2dRlemTKIe9_4skim3tui7previewNtB5_7Preview8init_pty
FNDA:0,_RNvMs2_NtNtCs2dRlemTKIe9_4skim3tui7previewNtB5_7Preview9page_down
FNDA:0,_RNvMs2_NtNtCs2dRlemTKIe9_4skim3tui7previewNtB5_7Preview9scroll_up
FNDA:0,_RNvXININtNtCs2dRlemTKIe9_4skim3tui7previews_0pENtB5_15PreviewCallbackINtNtCs3IJltBbNwOJ_4core7convert4FrompE4fromB9_
FNDA:0,_RNvXNtNtCs2dRlemTKIe9_4skim3tui7previewNtB2_14PreviewContentNtNtCs3IJltBbNwOJ_4core7default7Default7default
FNDA:0,_RNvXs0_NtNtCs2dRlemTKIe9_4skim3tui7previewNtB5_15PreviewCallbackNtNtNtCs3IJltBbNwOJ_4core3ops5deref5Deref5deref
FNDA:0,_RNvXs1_NtNtCs2dRlemTKIe9_4skim3tui7previewNtB5_7PreviewNtNtCs3IJltBbNwOJ_4core7default7Default7default
FNDA:0,_RNvXs3_NtNtCs2dRlemTKIe9_4skim3tui7previewNtB5_7PreviewNtNtNtCs3IJltBbNwOJ_4core3ops4drop4Drop4drop
FNDA:0,_RNvXs4_NtNtCs2dRlemTKIe9_4skim3tui7previewNtB5_7PreviewNtNtB7_6widget10SkimWidget12from_options
FNDA:0,_RNvXs4_NtNtCs2dRlemTKIe9_4skim3tui7previewNtB5_7PreviewNtNtB7_6widget10SkimWidget6render
FNDA:0,_RINvMs2_NtNtCs3Snzs7u97BX_4skim3tui7previewNtB6_7Preview5spawnNtNtNtCs4CtSrCeEHDB_12ratatui_core7backend4test11TestBackendECsdYHrDtgrOQb_11split_match
FNDA:0,_RNCINvMs2_NtNtCs3Snzs7u97BX_4skim3tui7previewNtB8_7Preview5spawnNtNtNtCs4CtSrCeEHDB_12ratatui_core7backend4test11TestBackendE0CsdYHrDtgrOQb_11split_match
FNDA:0,_RNCINvMs2_NtNtCs3Snzs7u97BX_4skim3tui7previewNtB8_7Preview5spawnNtNtNtCs4CtSrCeEHDB_12ratatui_core7backend4test11TestBackendEs0_0CsdYHrDtgrOQb_11split_match
FNDA:0,_RNCINvMs2_NtNtCs3Snzs7u97BX_4skim3tui7previewNtB8_7Preview5spawnNtNtNtCs4CtSrCeEHDB_12ratatui_core7backend4test11TestBackendEs1_0CsdYHrDtgrOQb_11split_match
FNDA:0,_RNCINvMs2_NtNtCs3Snzs7u97BX_4skim3tui7previewNtB8_7Preview5spawnNtNtNtCs4CtSrCeEHDB_12ratatui_core7backend4test11TestBackendEs2_0CsdYHrDtgrOQb_11split_match
FNDA:0,_RNCINvMs2_NtNtCs3Snzs7u97BX_4skim3tui7previewNtB8_7Preview5spawnNtNtNtCs4CtSrCeEHDB_12ratatui_core7backend4test11TestBackendEs_0CsdYHrDtgrOQb_11split_match
FNDA:0,_RINvMs2_NtNtCs3Snzs7u97BX_4skim3tui7previewNtB6_7Preview5spawnNtNtNtCs4CtSrCeEHDB_12ratatui_core7backend4test11TestBackendECskazwg9rDpax_8tiebreak
FNDA:0,_RNCINvMs2_NtNtCs3Snzs7u97BX_4skim3tui7previewNtB8_7Preview5spawnNtNtNtCs4CtSrCeEHDB_12ratatui_core7backend4test11TestBackendE0Cskazwg9rDpax_8tiebreak
FNDA:0,_RNCINvMs2_NtNtCs3Snzs7u97BX_4skim3tui7previewNtB8_7Preview5spawnNtNtNtCs4CtSrCeEHDB_12ratatui_core7backend4test11TestBackendEs0_0Cskazwg9rDpax_8tiebreak
FNDA:0,_RNCINvMs2_NtNtCs3Snzs7u97BX_4skim3tui7previewNtB8_7Preview5spawnNtNtNtCs4CtSrCeEHDB_12ratatui_core7backend4test11TestBackendEs1_0Cskazwg9rDpax_8tiebreak
FNDA:0,_RNCINvMs2_NtNtCs3Snzs7u97BX_4skim3tui7previewNtB8_7Preview5spawnNtNtNtCs4CtSrCeEHDB_12ratatui_core7backend4test11TestBackendEs2_0Cskazwg9rDpax_8tiebreak
FNDA:0,_RNCINvMs2_NtNtCs3Snzs7u97BX_4skim3tui7previewNtB8_7Preview5spawnNtNtNtCs4CtSrCeEHDB_12ratatui_core7backend4test11TestBackendEs_0Cskazwg9rDpax_8tiebreak
FNF:28
FNH:0
DA:40,0
DA:41,0
DA:42,0
DA:55,0
DA:56,0
DA:57,0
DA:63,0
DA:64,0
DA:65,0
DA:89,0
DA:90,0
DA:91,0
DA:92,0
DA:93,0
DA:94,0
DA:95,0
DA:96,0
DA:97,0
DA:98,0
DA:99,0
DA:100,0
DA:101,0
DA:102,0
DA:103,0
DA:104,0
DA:105,0
DA:106,0
DA:107,0
DA:112,0
DA:113,0
DA:114,0
DA:115,0
DA:116,0
DA:117,0
DA:120,0
DA:122,0
DA:123,0
DA:124,0
DA:125,0
DA:126,0
DA:127,0
DA:128,0
DA:129,0
DA:130,0
DA:131,0
DA:132,0
DA:133,0
DA:135,0
DA:140,0
DA:141,0
DA:142,0
DA:144,0
DA:145,0
DA:146,0
DA:149,0
DA:150,0
DA:151,0
DA:152,0
DA:153,0
DA:154,0
DA:158,0
DA:159,0
DA:160,0
DA:162,0
DA:163,0
DA:164,0
DA:166,0
DA:168,0
DA:170,0
DA:171,0
DA:172,0
DA:175,0
DA:176,0
DA:178,0
DA:179,0
DA:180,0
DA:181,0
DA:183,0
DA:184,0
DA:185,0
DA:186,0
DA:187,0
DA:188,0
DA:190,0
DA:191,0
DA:193,0
DA:194,0
DA:195,0
DA:197,0
DA:198,0
DA:199,0
DA:200,0
DA:201,0
DA:203,0
DA:204,0
DA:205,0
DA:207,0
DA:208,0
DA:212,0
DA:213,0
DA:214,0
DA:215,0
DA:216,0
DA:217,0
DA:219,0
DA:221,0
DA:223,0
DA:224,0
DA:225,0
DA:227,0
DA:228,0
DA:229,0
DA:231,0
DA:232,0
DA:233,0
DA:235,0
DA:236,0
DA:237,0
DA:238,0
DA:240,0
DA:241,0
DA:242,0
DA:243,0
DA:245,0
DA:246,0
DA:247,0
DA:248,0
DA:250,0
DA:251,0
DA:252,0
DA:253,0
DA:254,0
DA:257,0
DA:258,0
DA:259,0
DA:260,0
DA:262,0
DA:263,0
DA:264,0
DA:267,0
DA:268,0
DA:270,0
DA:271,0
DA:272,0
DA:274,0
DA:275,0
DA:278,0
DA:279,0
DA:281,0
DA:282,0
DA:284,0
DA:290,0
DA:291,0
DA:292,0
DA:293,0
DA:294,0
DA:295,0
DA:296,0
DA:297,0
DA:298,0
DA:302,0
DA:303,0
DA:304,0
DA:305,0
DA:306,0
DA:307,0
DA:308,0
DA:309,0
DA:310,0
DA:311,0
DA:312,0
DA:313,0
DA:314,0
DA:315,0
DA:316,0
DA:318,0
DA:319,0
DA:320,0
DA:321,0
DA:324,0
DA:325,0
DA:326,0
DA:327,0
DA:329,0
DA:330,0
DA:333,0
DA:334,0
DA:337,0
DA:338,0
DA:339,0
DA:341,0
DA:342,0
DA:343,0
DA:345,0
DA:348,0
DA:349,0
DA:350,0
DA:351,0
DA:353,0
DA:355,0
DA:356,0
DA:358,0
DA:359,0
DA:360,0
DA:364,0
DA:366,0
DA:367,0
DA:368,0
DA:369,0
DA:372,0
DA:375,0
DA:376,0
DA:377,0
DA:378,0
DA:380,0
DA:381,0
DA:382,0
DA:387,0
DA:388,0
DA:389,0
DA:391,0
DA:392,0
DA:393,0
DA:394,0
DA:395,0
DA:396,0
DA:397,0
DA:398,0
DA:399,0
DA:400,0
DA:401,0
DA:403,0
DA:404,0
DA:406,0
DA:407,0
DA:408,0
DA:409,0
DA:411,0
DA:412,0
DA:413,0
DA:414,0
DA:415,0
DA:417,0
DA:419,0
DA:420,0
DA:421,0
DA:423,0
DA:424,0
DA:425,0
DA:426,0
DA:427,0
DA:428,0
DA:429,0
DA:430,0
DA:432,0
DA:433,0
DA:434,0
DA:436,0
DA:437,0
DA:441,0
DA:442,0
DA:443,0
DA:444,0
DA:445,0
DA:446,0
DA:447,0
DA:451,0
DA:453,0
DA:454,0
DA:455,0
DA:456,0
DA:457,0
DA:458,0
DA:459,0
DA:460,0
DA:461,0
DA:462,0
DA:463,0
DA:464,0
DA:465,0
DA:466,0
DA:467,0
DA:468,0
DA:469,0
DA:471,0
DA:472,0
DA:473,0
DA:474,0
DA:475,0
DA:477,0
DA:478,0
DA:479,0
DA:480,0
DA:481,0
DA:482,0
DA:483,0
DA:484,0
DA:485,0
DA:486,0
DA:487,0
DA:488,0
DA:489,0
DA:490,0
DA:493,0
DA:496,0
DA:497,0
DA:498,0
DA:500,0
DA:501,0
DA:502,0
DA:503,0
DA:504,0
DA:508,0
DA:510,0
DA:511,0
DA:513,0
DA:516,0
DA:519,0
DA:520,0
DA:521,0
DA:524,0
DA:525,0
DA:526,0
DA:529,0
DA:530,0
DA:532,0
DA:533,0
DA:535,0
DA:537,0
DA:538,0
DA:540,0
DA:542,0
DA:543,0
DA:544,0
DA:545,0
DA:546,0
DA:547,0
DA:549,0
DA:550,0
DA:551,0
DA:552,0
DA:553,0
DA:556,0
DA:557,0
DA:560,0
DA:561,0
DA:563,0
DA:564,0
DA:567,0
DA:568,0
DA:569,0
DA:570,0
DA:571,0
DA:574,0
DA:575,0
DA:576,0
DA:577,0
DA:578,0
DA:582,0
DA:583,0
BRF:0
BRH:0
LF:368
LH:0
end_of_record
SF:/home/loric/src/skim/src/tui/statusline.rs
FN:20,_RNvXNtNtCs3Snzs7u97BX_4skim3tui10statuslineNtB2_11InfoDisplayNtNtCs6o9uXgfffF5_12clap_builder6derive9ValueEnum14value_variants
FN:25,_RNvXNtNtCs3Snzs7u97BX_4skim3tui10statuslineNtB2_11InfoDisplayNtNtCs6o9uXgfffF5_12clap_builder6derive9ValueEnum17to_possible_value
FN:20,_RNvXNtNtCs2dRlemTKIe9_4skim3tui10statuslineNtB2_11InfoDisplayNtNtCs6o9uXgfffF5_12clap_builder6derive9ValueEnum14value_variants
FN:25,_RNvXNtNtCs2dRlemTKIe9_4skim3tui10statuslineNtB2_11InfoDisplayNtNtCs6o9uXgfffF5_12clap_builder6derive9ValueEnum17to_possible_value
FNDA:0,_RNvXNtNtCs3Snzs7u97BX_4skim3tui10statuslineNtB2_11InfoDisplayNtNtCs6o9uXgfffF5_12clap_builder6derive9ValueEnum14value_variants
FNDA:0,_RNvXNtNtCs3Snzs7u97BX_4skim3tui10statuslineNtB2_11InfoDisplayNtNtCs6o9uXgfffF5_12clap_builder6derive9ValueEnum17to_possible_value
FNDA:0,_RNvXNtNtCs2dRlemTKIe9_4skim3tui10statuslineNtB2_11InfoDisplayNtNtCs6o9uXgfffF5_12clap_builder6derive9ValueEnum14value_variants
FNDA:0,_RNvXNtNtCs2dRlemTKIe9_4skim3tui10statuslineNtB2_11InfoDisplayNtNtCs6o9uXgfffF5_12clap_builder6derive9ValueEnum17to_possible_value
FNF:2
FNH:0
DA:20,0
DA:22,0
DA:23,0
DA:25,0
DA:27,0
DA:28,0
DA:29,0
DA:30,0
DA:32,0
BRF:0
BRH:0
LF:9
LH:0
end_of_record
SF:/home/loric/src/skim/src/tui/util.rs
FN:91,_RNCNvNtNtCs3Snzs7u97BX_4skim3tui4util10style_line0B7_
FN:94,_RNCNvNtNtCs3Snzs7u97BX_4skim3tui4util10style_text0B7_
FN:146,_RNCNvNtNtCs3Snzs7u97BX_4skim3tui4util16handle_osc_query0B7_
FN:147,_RNCNvNtNtCs3Snzs7u97BX_4skim3tui4util16handle_osc_querys_0B7_
FN:90,_RNvNtNtCs3Snzs7u97BX_4skim3tui4util10style_line
FN:87,_RNvNtNtCs3Snzs7u97BX_4skim3tui4util10style_span
FN:93,_RNvNtNtCs3Snzs7u97BX_4skim3tui4util10style_text
FN:113,_RNvNtNtCs3Snzs7u97BX_4skim3tui4util12find_csi_end
FN:98,_RNvNtNtCs3Snzs7u97BX_4skim3tui4util12find_osc_end
FN:64,_RNvNtNtCs3Snzs7u97BX_4skim3tui4util12merge_styles
FN:162,_RNvNtNtCs3Snzs7u97BX_4skim3tui4util16handle_csi_query
FN:124,_RNvNtNtCs3Snzs7u97BX_4skim3tui4util16handle_osc_query
FN:9,_RNvNtNtCs3Snzs7u97BX_4skim3tui4util18char_display_width
FN:16,_RNvNtNtCs3Snzs7u97BX_4skim3tui4util9wrap_text
FN:91,_RNCNvNtNtCs2dRlemTKIe9_4skim3tui4util10style_line0B7_
FN:94,_RNCNvNtNtCs2dRlemTKIe9_4skim3tui4util10style_text0B7_
FN:90,_RNvNtNtCs2dRlemTKIe9_4skim3tui4util10style_line
FN:87,_RNvNtNtCs2dRlemTKIe9_4skim3tui4util10style_span
FN:93,_RNvNtNtCs2dRlemTKIe9_4skim3tui4util10style_text
FN:64,_RNvNtNtCs2dRlemTKIe9_4skim3tui4util12merge_styles
FN:9,_RNvNtNtCs2dRlemTKIe9_4skim3tui4util18char_display_width
FN:16,_RNvNtNtCs2dRlemTKIe9_4skim3tui4util9wrap_text
FN:146,_RNCNvNtNtCs2dRlemTKIe9_4skim3tui4util16handle_osc_query0B7_
FN:147,_RNCNvNtNtCs2dRlemTKIe9_4skim3tui4util16handle_osc_querys_0B7_
FN:113,_RNvNtNtCs2dRlemTKIe9_4skim3tui4util12find_csi_end
FN:98,_RNvNtNtCs2dRlemTKIe9_4skim3tui4util12find_osc_end
FN:162,_RNvNtNtCs2dRlemTKIe9_4skim3tui4util16handle_csi_query
FN:124,_RNvNtNtCs2dRlemTKIe9_4skim3tui4util16handle_osc_query
FNDA:0,_RNCNvNtNtCs3Snzs7u97BX_4skim3tui4util10style_line0B7_
FNDA:0,_RNCNvNtNtCs3Snzs7u97BX_4skim3tui4util10style_text0B7_
FNDA:0,_RNCNvNtNtCs3Snzs7u97BX_4skim3tui4util16handle_osc_query0B7_
FNDA:0,_RNCNvNtNtCs3Snzs7u97BX_4skim3tui4util16handle_osc_querys_0B7_
FNDA:0,_RNvNtNtCs3Snzs7u97BX_4skim3tui4util10style_line
FNDA:0,_RNvNtNtCs3Snzs7u97BX_4skim3tui4util10style_span
FNDA:0,_RNvNtNtCs3Snzs7u97BX_4skim3tui4util10style_text
FNDA:0,_RNvNtNtCs3Snzs7u97BX_4skim3tui4util12find_csi_end
FNDA:0,_RNvNtNtCs3Snzs7u97BX_4skim3tui4util12find_osc_end
FNDA:0,_RNvNtNtCs3Snzs7u97BX_4skim3tui4util12merge_styles
FNDA:0,_RNvNtNtCs3Snzs7u97BX_4skim3tui4util16handle_csi_query
FNDA:0,_RNvNtNtCs3Snzs7u97BX_4skim3tui4util16handle_osc_query
FNDA:0,_RNvNtNtCs3Snzs7u97BX_4skim3tui4util18char_display_width
FNDA:0,_RNvNtNtCs3Snzs7u97BX_4skim3tui4util9wrap_text
FNDA:0,_RNCNvNtNtCs2dRlemTKIe9_4skim3tui4util10style_line0B7_
FNDA:0,_RNCNvNtNtCs2dRlemTKIe9_4skim3tui4util10style_text0B7_
FNDA:0,_RNvNtNtCs2dRlemTKIe9_4skim3tui4util10style_line
FNDA:0,_RNvNtNtCs2dRlemTKIe9_4skim3tui4util10style_span
FNDA:0,_RNvNtNtCs2dRlemTKIe9_4skim3tui4util10style_text
FNDA:0,_RNvNtNtCs2dRlemTKIe9_4skim3tui4util12merge_styles
FNDA:0,_RNvNtNtCs2dRlemTKIe9_4skim3tui4util18char_display_width
FNDA:0,_RNvNtNtCs2dRlemTKIe9_4skim3tui4util9wrap_text
FNDA:0,_RNCNvNtNtCs2dRlemTKIe9_4skim3tui4util16handle_osc_query0B7_
FNDA:0,_RNCNvNtNtCs2dRlemTKIe9_4skim3tui4util16handle_osc_querys_0B7_
FNDA:0,_RNvNtNtCs2dRlemTKIe9_4skim3tui4util12find_csi_end
FNDA:0,_RNvNtNtCs2dRlemTKIe9_4skim3tui4util12find_osc_end
FNDA:0,_RNvNtNtCs2dRlemTKIe9_4skim3tui4util16handle_csi_query
FNDA:0,_RNvNtNtCs2dRlemTKIe9_4skim3tui4util16handle_osc_query
FNF:14
FNH:0
DA:9,0
DA:10,0
DA:11,0
DA:12,0
DA:13,0
DA:14,0
DA:16,0
DA:17,0
DA:18,0
DA:19,0
DA:21,0
DA:23,0
DA:24,0
DA:25,0
DA:26,0
DA:27,0
DA:28,0
DA:29,0
DA:30,0
DA:32,0
DA:33,0
DA:34,0
DA:35,0
DA:36,0
DA:38,0
DA:39,0
DA:40,0
DA:41,0
DA:42,0
DA:43,0
DA:44,0
DA:47,0
DA:48,0
DA:49,0
DA:50,0
DA:53,0
DA:54,0
DA:55,0
DA:58,0
DA:59,0
DA:64,0
DA:66,0
DA:79,0
DA:80,0
DA:81,0
DA:82,0
DA:84,0
DA:85,0
DA:87,0
DA:88,0
DA:89,0
DA:90,0
DA:91,0
DA:92,0
DA:93,0
DA:94,0
DA:95,0
DA:98,0
DA:99,0
DA:100,0
DA:102,0
DA:103,0
DA:104,0
DA:106,0
DA:107,0
DA:109,0
DA:110,0
DA:113,0
DA:114,0
DA:116,0
DA:117,0
DA:118,0
DA:120,0
DA:121,0
DA:124,0
DA:126,0
DA:127,0
DA:128,0
DA:131,0
DA:132,0
DA:133,0
DA:134,0
DA:137,0
DA:138,0
DA:139,0
DA:140,0
DA:143,0
DA:146,0
DA:147,0
DA:149,0
DA:150,0
DA:151,0
DA:152,0
DA:153,0
DA:154,0
DA:155,0
DA:156,0
DA:157,0
DA:158,0
DA:162,0
DA:164,0
DA:165,0
DA:166,0
DA:167,0
DA:168,0
DA:171,0
DA:172,0
DA:173,0
DA:174,0
DA:175,0
DA:178,0
DA:179,0
DA:180,0
DA:181,0
DA:182,0
DA:185,0
DA:186,0
DA:187,0
DA:188,0
DA:189,0
DA:192,0
DA:193,0
DA:194,0
DA:195,0
DA:196,0
DA:197,0
DA:199,0
DA:200,0
BRF:0
BRH:0
LF:132
LH:0
end_of_record
SF:/home/loric/src/skim/src/tui/widget.rs
FN:19,_RNvXNtNtCs3Snzs7u97BX_4skim3tui6widgetNtB2_10SkimRenderNtNtNtCs3IJltBbNwOJ_4core3ops3bit11BitOrAssign12bitor_assign
FN:19,_RNvXNtNtCs2dRlemTKIe9_4skim3tui6widgetNtB2_10SkimRenderNtNtNtCs3IJltBbNwOJ_4core3ops3bit11BitOrAssign12bitor_assign
FNDA:0,_RNvXNtNtCs3Snzs7u97BX_4skim3tui6widgetNtB2_10SkimRenderNtNtNtCs3IJltBbNwOJ_4core3ops3bit11BitOrAssign12bitor_assign
FNDA:0,_RNvXNtNtCs2dRlemTKIe9_4skim3tui6widgetNtB2_10SkimRenderNtNtNtCs3IJltBbNwOJ_4core3ops3bit11BitOrAssign12bitor_assign
FNF:1
FNH:0
DA:19,0
DA:20,0
DA:21,0
DA:22,0
BRF:0
BRH:0
LF:4
LH:0
end_of_record
SF:/home/loric/src/skim/src/util.rs
FN:93,_RINvNtCs3Snzs7u97BX_4skim4util6printfINtNtNtNtCs3IJltBbNwOJ_4core4iter8adapters3map3MapINtNtNtCsWQAYhADTKq_8indexmap3set4iter4IterNtNtB4_4item11MatchedItemENCNvMs1_NtNtB4_3tui3appNtB2C_3App10expand_cmd0EEB4_
FN:104,_RNCINvNtCs3Snzs7u97BX_4skim4util6printfINtNtNtNtCs3IJltBbNwOJ_4core4iter8adapters3map3MapINtNtNtCsWQAYhADTKq_8indexmap3set4iter4IterNtNtB6_4item11MatchedItemENCNvMs1_NtNtB6_3tui3appNtB2E_3App10expand_cmd0EE0B6_
FN:108,_RNCINvNtCs3Snzs7u97BX_4skim4util6printfINtNtNtNtCs3IJltBbNwOJ_4core4iter8adapters3map3MapINtNtNtCsWQAYhADTKq_8indexmap3set4iter4IterNtNtB6_4item11MatchedItemENCNvMs1_NtNtB6_3tui3appNtB2E_3App10expand_cmd0EEs0_0B6_
FN:115,_RNCINvNtCs3Snzs7u97BX_4skim4util6printfINtNtNtNtCs3IJltBbNwOJ_4core4iter8adapters3map3MapINtNtNtCsWQAYhADTKq_8indexmap3set4iter4IterNtNtB6_4item11MatchedItemENCNvMs1_NtNtB6_3tui3appNtB2E_3App10expand_cmd0EEs1_0B6_
FN:116,_RNCINvNtCs3Snzs7u97BX_4skim4util6printfINtNtNtNtCs3IJltBbNwOJ_4core4iter8adapters3map3MapINtNtNtCsWQAYhADTKq_8indexmap3set4iter4IterNtNtB6_4item11MatchedItemENCNvMs1_NtNtB6_3tui3appNtB2E_3App10expand_cmd0EEs2_0B6_
FN:149,_RNCINvNtCs3Snzs7u97BX_4skim4util6printfINtNtNtNtCs3IJltBbNwOJ_4core4iter8adapters3map3MapINtNtNtCsWQAYhADTKq_8indexmap3set4iter4IterNtNtB6_4item11MatchedItemENCNvMs1_NtNtB6_3tui3appNtB2E_3App10expand_cmd0EEs3_0B6_
FN:150,_RNCINvNtCs3Snzs7u97BX_4skim4util6printfINtNtNtNtCs3IJltBbNwOJ_4core4iter8adapters3map3MapINtNtNtCsWQAYhADTKq_8indexmap3set4iter4IterNtNtB6_4item11MatchedItemENCNvMs1_NtNtB6_3tui3appNtB2E_3App10expand_cmd0EEs4_0B6_
FN:188,_RNCINvNtCs3Snzs7u97BX_4skim4util6printfINtNtNtNtCs3IJltBbNwOJ_4core4iter8adapters3map3MapINtNtNtCsWQAYhADTKq_8indexmap3set4iter4IterNtNtB6_4item11MatchedItemENCNvMs1_NtNtB6_3tui3appNtB2E_3App10expand_cmd0EEs5_0B6_
FN:106,_RNCINvNtCs3Snzs7u97BX_4skim4util6printfINtNtNtNtCs3IJltBbNwOJ_4core4iter8adapters3map3MapINtNtNtCsWQAYhADTKq_8indexmap3set4iter4IterNtNtB6_4item11MatchedItemENCNvMs1_NtNtB6_3tui3appNtB2E_3App10expand_cmd0EEs_0B6_
FN:78,_RNvNtCs3Snzs7u97BX_4skim4util15read_file_lines
FN:31,_RNvNtCs3Snzs7u97BX_4skim4util18unescape_delimiter
FN:93,_RINvNtCs2dRlemTKIe9_4skim4util6printfINtNtNtCshYl8hDvVEcY_5alloc3vec9into_iter8IntoIterINtNtBG_4sync3ArcDNtNtB4_9skim_item8SkimItemEL_EEEB4_
FN:93,_RINvNtCs2dRlemTKIe9_4skim4util6printfINtNtNtNtCs3IJltBbNwOJ_4core4iter8adapters3map3MapINtNtNtBI_5slice4iter4IterINtNtCshYl8hDvVEcY_5alloc4sync3ArcDNtNtB4_9skim_item8SkimItemEL_EENCNvNtB2_4tests_11test_printf0EEB4_
FN:93,_RINvNtCs2dRlemTKIe9_4skim4util6printfINtNtNtNtCs3IJltBbNwOJ_4core4iter8adapters3map3MapINtNtNtBI_5slice4iter4IterINtNtCshYl8hDvVEcY_5alloc4sync3ArcReEENCNvNtB2_4tests_16test_printf_plus0EEB4_
FN:104,_RNCINvNtCs2dRlemTKIe9_4skim4util6printfINtNtNtCshYl8hDvVEcY_5alloc3vec9into_iter8IntoIterINtNtBI_4sync3ArcDNtNtB6_9skim_item8SkimItemEL_EEE0B6_
FN:108,_RNCINvNtCs2dRlemTKIe9_4skim4util6printfINtNtNtCshYl8hDvVEcY_5alloc3vec9into_iter8IntoIterINtNtBI_4sync3ArcDNtNtB6_9skim_item8SkimItemEL_EEEs0_0B6_
FN:115,_RNCINvNtCs2dRlemTKIe9_4skim4util6printfINtNtNtCshYl8hDvVEcY_5alloc3vec9into_iter8IntoIterINtNtBI_4sync3ArcDNtNtB6_9skim_item8SkimItemEL_EEEs1_0B6_
FN:116,_RNCINvNtCs2dRlemTKIe9_4skim4util6printfINtNtNtCshYl8hDvVEcY_5alloc3vec9into_iter8IntoIterINtNtBI_4sync3ArcDNtNtB6_9skim_item8SkimItemEL_EEEs2_0B6_
FN:149,_RNCINvNtCs2dRlemTKIe9_4skim4util6printfINtNtNtCshYl8hDvVEcY_5alloc3vec9into_iter8IntoIterINtNtBI_4sync3ArcDNtNtB6_9skim_item8SkimItemEL_EEEs3_0B6_
FN:150,_RNCINvNtCs2dRlemTKIe9_4skim4util6printfINtNtNtCshYl8hDvVEcY_5alloc3vec9into_iter8IntoIterINtNtBI_4sync3ArcDNtNtB6_9skim_item8SkimItemEL_EEEs4_0B6_
FN:188,_RNCINvNtCs2dRlemTKIe9_4skim4util6printfINtNtNtCshYl8hDvVEcY_5alloc3vec9into_iter8IntoIterINtNtBI_4sync3ArcDNtNtB6_9skim_item8SkimItemEL_EEEs5_0B6_
FN:106,_RNCINvNtCs2dRlemTKIe9_4skim4util6printfINtNtNtCshYl8hDvVEcY_5alloc3vec9into_iter8IntoIterINtNtBI_4sync3ArcDNtNtB6_9skim_item8SkimItemEL_EEEs_0B6_
FN:104,_RNCINvNtCs2dRlemTKIe9_4skim4util6printfINtNtNtNtCs3IJltBbNwOJ_4core4iter8adapters3map3MapINtNtNtBK_5slice4iter4IterINtNtCshYl8hDvVEcY_5alloc4sync3ArcDNtNtB6_9skim_item8SkimItemEL_EENCNvNtB4_4tests_11test_printf0EE0B6_
FN:108,_RNCINvNtCs2dRlemTKIe9_4skim4util6printfINtNtNtNtCs3IJltBbNwOJ_4core4iter8adapters3map3MapINtNtNtBK_5slice4iter4IterINtNtCshYl8hDvVEcY_5alloc4sync3ArcDNtNtB6_9skim_item8SkimItemEL_EENCNvNtB4_4tests_11test_printf0EEs0_0B6_
FN:115,_RNCINvNtCs2dRlemTKIe9_4skim4util6printfINtNtNtNtCs3IJltBbNwOJ_4core4iter8adapters3map3MapINtNtNtBK_5slice4iter4IterINtNtCshYl8hDvVEcY_5alloc4sync3ArcDNtNtB6_9skim_item8SkimItemEL_EENCNvNtB4_4tests_11test_printf0EEs1_0B6_
FN:116,_RNCINvNtCs2dRlemTKIe9_4skim4util6printfINtNtNtNtCs3IJltBbNwOJ_4core4iter8adapters3map3MapINtNtNtBK_5slice4iter4IterINtNtCshYl8hDvVEcY_5alloc4sync3ArcDNtNtB6_9skim_item8SkimItemEL_EENCNvNtB4_4tests_11test_printf0EEs2_0B6_
FN:149,_RNCINvNtCs2dRlemTKIe9_4skim4util6printfINtNtNtNtCs3IJltBbNwOJ_4core4iter8adapters3map3MapINtNtNtBK_5slice4iter4IterINtNtCshYl8hDvVEcY_5alloc4sync3ArcDNtNtB6_9skim_item8SkimItemEL_EENCNvNtB4_4tests_11test_printf0EEs3_0B6_
FN:150,_RNCINvNtCs2dRlemTKIe9_4skim4util6printfINtNtNtNtCs3IJltBbNwOJ_4core4iter8adapters3map3MapINtNtNtBK_5slice4iter4IterINtNtCshYl8hDvVEcY_5alloc4sync3ArcDNtNtB6_9skim_item8SkimItemEL_EENCNvNtB4_4tests_11test_printf0EEs4_0B6_
FN:188,_RNCINvNtCs2dRlemTKIe9_4skim4util6printfINtNtNtNtCs3IJltBbNwOJ_4core4iter8adapters3map3MapINtNtNtBK_5slice4iter4IterINtNtCshYl8hDvVEcY_5alloc4sync3ArcDNtNtB6_9skim_item8SkimItemEL_EENCNvNtB4_4tests_11test_printf0EEs5_0B6_
FN:106,_RNCINvNtCs2dRlemTKIe9_4skim4util6printfINtNtNtNtCs3IJltBbNwOJ_4core4iter8adapters3map3MapINtNtNtBK_5slice4iter4IterINtNtCshYl8hDvVEcY_5alloc4sync3ArcDNtNtB6_9skim_item8SkimItemEL_EENCNvNtB4_4tests_11test_printf0EEs_0B6_
FN:104,_RNCINvNtCs2dRlemTKIe9_4skim4util6printfINtNtNtNtCs3IJltBbNwOJ_4core4iter8adapters3map3MapINtNtNtBK_5slice4iter4IterINtNtCshYl8hDvVEcY_5alloc4sync3ArcReEENCNvNtB4_4tests_16test_printf_plus0EE0B6_
FN:108,_RNCINvNtCs2dRlemTKIe9_4skim4util6printfINtNtNtNtCs3IJltBbNwOJ_4core4iter8adapters3map3MapINtNtNtBK_5slice4iter4IterINtNtCshYl8hDvVEcY_5alloc4sync3ArcReEENCNvNtB4_4tests_16test_printf_plus0EEs0_0B6_
FN:115,_RNCINvNtCs2dRlemTKIe9_4skim4util6printfINtNtNtNtCs3IJltBbNwOJ_4core4iter8adapters3map3MapINtNtNtBK_5slice4iter4IterINtNtCshYl8hDvVEcY_5alloc4sync3ArcReEENCNvNtB4_4tests_16test_printf_plus0EEs1_0B6_
FN:116,_RNCINvNtCs2dRlemTKIe9_4skim4util6printfINtNtNtNtCs3IJltBbNwOJ_4core4iter8adapters3map3MapINtNtNtBK_5slice4iter4IterINtNtCshYl8hDvVEcY_5alloc4sync3ArcReEENCNvNtB4_4tests_16test_printf_plus0EEs2_0B6_
FN:149,_RNCINvNtCs2dRlemTKIe9_4skim4util6printfINtNtNtNtCs3IJltBbNwOJ_4core4iter8adapters3map3MapINtNtNtBK_5slice4iter4IterINtNtCshYl8hDvVEcY_5alloc4sync3ArcReEENCNvNtB4_4tests_16test_printf_plus0EEs3_0B6_
FN:150,_RNCINvNtCs2dRlemTKIe9_4skim4util6printfINtNtNtNtCs3IJltBbNwOJ_4core4iter8adapters3map3MapINtNtNtBK_5slice4iter4IterINtNtCshYl8hDvVEcY_5alloc4sync3ArcReEENCNvNtB4_4tests_16test_printf_plus0EEs4_0B6_
FN:188,_RNCINvNtCs2dRlemTKIe9_4skim4util6printfINtNtNtNtCs3IJltBbNwOJ_4core4iter8adapters3map3MapINtNtNtBK_5slice4iter4IterINtNtCshYl8hDvVEcY_5alloc4sync3ArcReEENCNvNtB4_4tests_16test_printf_plus0EEs5_0B6_
FN:106,_RNCINvNtCs2dRlemTKIe9_4skim4util6printfINtNtNtNtCs3IJltBbNwOJ_4core4iter8adapters3map3MapINtNtNtBK_5slice4iter4IterINtNtCshYl8hDvVEcY_5alloc4sync3ArcReEENCNvNtB4_4tests_16test_printf_plus0EEs_0B6_
FN:78,_RNvNtCs2dRlemTKIe9_4skim4util15read_file_lines
FN:31,_RNvNtCs2dRlemTKIe9_4skim4util18unescape_delimiter
FNDA:0,_RINvNtCs3Snzs7u97BX_4skim4util6printfINtNtNtNtCs3IJltBbNwOJ_4core4iter8adapters3map3MapINtNtNtCsWQAYhADTKq_8indexmap3set4iter4IterNtNtB4_4item11MatchedItemENCNvMs1_NtNtB4_3tui3appNtB2C_3App10expand_cmd0EEB4_
FNDA:0,_RNCINvNtCs3Snzs7u97BX_4skim4util6printfINtNtNtNtCs3IJltBbNwOJ_4core4iter8adapters3map3MapINtNtNtCsWQAYhADTKq_8indexmap3set4iter4IterNtNtB6_4item11MatchedItemENCNvMs1_NtNtB6_3tui3appNtB2E_3App10expand_cmd0EE0B6_
FNDA:0,_RNCINvNtCs3Snzs7u97BX_4skim4util6printfINtNtNtNtCs3IJltBbNwOJ_4core4iter8adapters3map3MapINtNtNtCsWQAYhADTKq_8indexmap3set4iter4IterNtNtB6_4item11MatchedItemENCNvMs1_NtNtB6_3tui3appNtB2E_3App10expand_cmd0EEs0_0B6_
FNDA:0,_RNCINvNtCs3Snzs7u97BX_4skim4util6printfINtNtNtNtCs3IJltBbNwOJ_4core4iter8adapters3map3MapINtNtNtCsWQAYhADTKq_8indexmap3set4iter4IterNtNtB6_4item11MatchedItemENCNvMs1_NtNtB6_3tui3appNtB2E_3App10expand_cmd0EEs1_0B6_
FNDA:0,_RNCINvNtCs3Snzs7u97BX_4skim4util6printfINtNtNtNtCs3IJltBbNwOJ_4core4iter8adapters3map3MapINtNtNtCsWQAYhADTKq_8indexmap3set4iter4IterNtNtB6_4item11MatchedItemENCNvMs1_NtNtB6_3tui3appNtB2E_3App10expand_cmd0EEs2_0B6_
FNDA:0,_RNCINvNtCs3Snzs7u97BX_4skim4util6printfINtNtNtNtCs3IJltBbNwOJ_4core4iter8adapters3map3MapINtNtNtCsWQAYhADTKq_8indexmap3set4iter4IterNtNtB6_4item11MatchedItemENCNvMs1_NtNtB6_3tui3appNtB2E_3App10expand_cmd0EEs3_0B6_
FNDA:0,_RNCINvNtCs3Snzs7u97BX_4skim4util6printfINtNtNtNtCs3IJltBbNwOJ_4core4iter8adapters3map3MapINtNtNtCsWQAYhADTKq_8indexmap3set4iter4IterNtNtB6_4item11MatchedItemENCNvMs1_NtNtB6_3tui3appNtB2E_3App10expand_cmd0EEs4_0B6_
FNDA:0,_RNCINvNtCs3Snzs7u97BX_4skim4util6printfINtNtNtNtCs3IJltBbNwOJ_4core4iter8adapters3map3MapINtNtNtCsWQAYhADTKq_8indexmap3set4iter4IterNtNtB6_4item11MatchedItemENCNvMs1_NtNtB6_3tui3appNtB2E_3App10expand_cmd0EEs5_0B6_
FNDA:0,_RNCINvNtCs3Snzs7u97BX_4skim4util6printfINtNtNtNtCs3IJltBbNwOJ_4core4iter8adapters3map3MapINtNtNtCsWQAYhADTKq_8indexmap3set4iter4IterNtNtB6_4item11MatchedItemENCNvMs1_NtNtB6_3tui3appNtB2E_3App10expand_cmd0EEs_0B6_
FNDA:0,_RNvNtCs3Snzs7u97BX_4skim4util15read_file_lines
FNDA:0,_RNvNtCs3Snzs7u97BX_4skim4util18unescape_delimiter
FNDA:0,_RINvNtCs2dRlemTKIe9_4skim4util6printfINtNtNtCshYl8hDvVEcY_5alloc3vec9into_iter8IntoIterINtNtBG_4sync3ArcDNtNtB4_9skim_item8SkimItemEL_EEEB4_
FNDA:0,_RINvNtCs2dRlemTKIe9_4skim4util6printfINtNtNtNtCs3IJltBbNwOJ_4core4iter8adapters3map3MapINtNtNtBI_5slice4iter4IterINtNtCshYl8hDvVEcY_5alloc4sync3ArcDNtNtB4_9skim_item8SkimItemEL_EENCNvNtB2_4tests_11test_printf0EEB4_
FNDA:0,_RINvNtCs2dRlemTKIe9_4skim4util6printfINtNtNtNtCs3IJltBbNwOJ_4core4iter8adapters3map3MapINtNtNtBI_5slice4iter4IterINtNtCshYl8hDvVEcY_5alloc4sync3ArcReEENCNvNtB2_4tests_16test_printf_plus0EEB4_
FNDA:0,_RNCINvNtCs2dRlemTKIe9_4skim4util6printfINtNtNtCshYl8hDvVEcY_5alloc3vec9into_iter8IntoIterINtNtBI_4sync3ArcDNtNtB6_9skim_item8SkimItemEL_EEE0B6_
FNDA:0,_RNCINvNtCs2dRlemTKIe9_4skim4util6printfINtNtNtCshYl8hDvVEcY_5alloc3vec9into_iter8IntoIterINtNtBI_4sync3ArcDNtNtB6_9skim_item8SkimItemEL_EEEs0_0B6_
FNDA:0,_RNCINvNtCs2dRlemTKIe9_4skim4util6printfINtNtNtCshYl8hDvVEcY_5alloc3vec9into_iter8IntoIterINtNtBI_4sync3ArcDNtNtB6_9skim_item8SkimItemEL_EEEs1_0B6_
FNDA:0,_RNCINvNtCs2dRlemTKIe9_4skim4util6printfINtNtNtCshYl8hDvVEcY_5alloc3vec9into_iter8IntoIterINtNtBI_4sync3ArcDNtNtB6_9skim_item8SkimItemEL_EEEs2_0B6_
FNDA:0,_RNCINvNtCs2dRlemTKIe9_4skim4util6printfINtNtNtCshYl8hDvVEcY_5alloc3vec9into_iter8IntoIterINtNtBI_4sync3ArcDNtNtB6_9skim_item8SkimItemEL_EEEs3_0B6_
FNDA:0,_RNCINvNtCs2dRlemTKIe9_4skim4util6printfINtNtNtCshYl8hDvVEcY_5alloc3vec9into_iter8IntoIterINtNtBI_4sync3ArcDNtNtB6_9skim_item8SkimItemEL_EEEs4_0B6_
FNDA:0,_RNCINvNtCs2dRlemTKIe9_4skim4util6printfINtNtNtCshYl8hDvVEcY_5alloc3vec9into_iter8IntoIterINtNtBI_4sync3ArcDNtNtB6_9skim_item8SkimItemEL_EEEs5_0B6_
FNDA:0,_RNCINvNtCs2dRlemTKIe9_4skim4util6printfINtNtNtCshYl8hDvVEcY_5alloc3vec9into_iter8IntoIterINtNtBI_4sync3ArcDNtNtB6_9skim_item8SkimItemEL_EEEs_0B6_
FNDA:0,_RNCINvNtCs2dRlemTKIe9_4skim4util6printfINtNtNtNtCs3IJltBbNwOJ_4core4iter8adapters3map3MapINtNtNtBK_5slice4iter4IterINtNtCshYl8hDvVEcY_5alloc4sync3ArcDNtNtB6_9skim_item8SkimItemEL_EENCNvNtB4_4tests_11test_printf0EE0B6_
FNDA:0,_RNCINvNtCs2dRlemTKIe9_4skim4util6printfINtNtNtNtCs3IJltBbNwOJ_4core4iter8adapters3map3MapINtNtNtBK_5slice4iter4IterINtNtCshYl8hDvVEcY_5alloc4sync3ArcDNtNtB6_9skim_item8SkimItemEL_EENCNvNtB4_4tests_11test_printf0EEs0_0B6_
FNDA:0,_RNCINvNtCs2dRlemTKIe9_4skim4util6printfINtNtNtNtCs3IJltBbNwOJ_4core4iter8adapters3map3MapINtNtNtBK_5slice4iter4IterINtNtCshYl8hDvVEcY_5alloc4sync3ArcDNtNtB6_9skim_item8SkimItemEL_EENCNvNtB4_4tests_11test_printf0EEs1_0B6_
FNDA:0,_RNCINvNtCs2dRlemTKIe9_4skim4util6printfINtNtNtNtCs3IJltBbNwOJ_4core4iter8adapters3map3MapINtNtNtBK_5slice4iter4IterINtNtCshYl8hDvVEcY_5alloc4sync3ArcDNtNtB6_9skim_item8SkimItemEL_EENCNvNtB4_4tests_11test_printf0EEs2_0B6_
FNDA:0,_RNCINvNtCs2dRlemTKIe9_4skim4util6printfINtNtNtNtCs3IJltBbNwOJ_4core4iter8adapters3map3MapINtNtNtBK_5slice4iter4IterINtNtCshYl8hDvVEcY_5alloc4sync3ArcDNtNtB6_9skim_item8SkimItemEL_EENCNvNtB4_4tests_11test_printf0EEs3_0B6_
FNDA:0,_RNCINvNtCs2dRlemTKIe9_4skim4util6printfINtNtNtNtCs3IJltBbNwOJ_4core4iter8adapters3map3MapINtNtNtBK_5slice4iter4IterINtNtCshYl8hDvVEcY_5alloc4sync3ArcDNtNtB6_9skim_item8SkimItemEL_EENCNvNtB4_4tests_11test_printf0EEs4_0B6_
FNDA:0,_RNCINvNtCs2dRlemTKIe9_4skim4util6printfINtNtNtNtCs3IJltBbNwOJ_4core4iter8adapters3map3MapINtNtNtBK_5slice4iter4IterINtNtCshYl8hDvVEcY_5alloc4sync3ArcDNtNtB6_9skim_item8SkimItemEL_EENCNvNtB4_4tests_11test_printf0EEs5_0B6_
FNDA:0,_RNCINvNtCs2dRlemTKIe9_4skim4util6printfINtNtNtNtCs3IJltBbNwOJ_4core4iter8adapters3map3MapINtNtNtBK_5slice4iter4IterINtNtCshYl8hDvVEcY_5alloc4sync3ArcDNtNtB6_9skim_item8SkimItemEL_EENCNvNtB4_4tests_11test_printf0EEs_0B6_
FNDA:0,_RNCINvNtCs2dRlemTKIe9_4skim4util6printfINtNtNtNtCs3IJltBbNwOJ_4core4iter8adapters3map3MapINtNtNtBK_5slice4iter4IterINtNtCshYl8hDvVEcY_5alloc4sync3ArcReEENCNvNtB4_4tests_16test_printf_plus0EE0B6_
FNDA:0,_RNCINvNtCs2dRlemTKIe9_4skim4util6printfINtNtNtNtCs3IJltBbNwOJ_4core4iter8adapters3map3MapINtNtNtBK_5slice4iter4IterINtNtCshYl8hDvVEcY_5alloc4sync3ArcReEENCNvNtB4_4tests_16test_printf_plus0EEs0_0B6_
FNDA:0,_RNCINvNtCs2dRlemTKIe9_4skim4util6printfINtNtNtNtCs3IJltBbNwOJ_4core4iter8adapters3map3MapINtNtNtBK_5slice4iter4IterINtNtCshYl8hDvVEcY_5alloc4sync3ArcReEENCNvNtB4_4tests_16test_printf_plus0EEs1_0B6_
FNDA:0,_RNCINvNtCs2dRlemTKIe9_4skim4util6printfINtNtNtNtCs3IJltBbNwOJ_4core4iter8adapters3map3MapINtNtNtBK_5slice4iter4IterINtNtCshYl8hDvVEcY_5alloc4sync3ArcReEENCNvNtB4_4tests_16test_printf_plus0EEs2_0B6_
FNDA:0,_RNCINvNtCs2dRlemTKIe9_4skim4util6printfINtNtNtNtCs3IJltBbNwOJ_4core4iter8adapters3map3MapINtNtNtBK_5slice4iter4IterINtNtCshYl8hDvVEcY_5alloc4sync3ArcReEENCNvNtB4_4tests_16test_printf_plus0EEs3_0B6_
FNDA:0,_RNCINvNtCs2dRlemTKIe9_4skim4util6printfINtNtNtNtCs3IJltBbNwOJ_4core4iter8adapters3map3MapINtNtNtBK_5slice4iter4IterINtNtCshYl8hDvVEcY_5alloc4sync3ArcReEENCNvNtB4_4tests_16test_printf_plus0EEs4_0B6_
FNDA:0,_RNCINvNtCs2dRlemTKIe9_4skim4util6printfINtNtNtNtCs3IJltBbNwOJ_4core4iter8adapters3map3MapINtNtNtBK_5slice4iter4IterINtNtCshYl8hDvVEcY_5alloc4sync3ArcReEENCNvNtB4_4tests_16test_printf_plus0EEs5_0B6_
FNDA:0,_RNCINvNtCs2dRlemTKIe9_4skim4util6printfINtNtNtNtCs3IJltBbNwOJ_4core4iter8adapters3map3MapINtNtNtBK_5slice4iter4IterINtNtCshYl8hDvVEcY_5alloc4sync3ArcReEENCNvNtB4_4tests_16test_printf_plus0EEs_0B6_
FNDA:0,_RNvNtCs2dRlemTKIe9_4skim4util15read_file_lines
FNDA:0,_RNvNtCs2dRlemTKIe9_4skim4util18unescape_delimiter
FNF:11
FNH:0
DA:31,0
DA:32,0
DA:33,0
DA:35,0
DA:36,0
DA:37,0
DA:40,0
DA:41,0
DA:42,0
DA:43,0
DA:44,0
DA:45,0
DA:46,0
DA:47,0
DA:48,0
DA:49,0
DA:50,0
DA:51,0
DA:52,0
DA:53,0
DA:54,0
DA:55,0
DA:56,0
DA:57,0
DA:59,0
DA:60,0
DA:61,0
DA:62,0
DA:63,0
DA:64,0
DA:65,0
DA:66,0
DA:67,0
DA:68,0
DA:70,0
DA:71,0
DA:72,0
DA:75,0
DA:76,0
DA:78,0
DA:79,0
DA:80,0
DA:81,0
DA:93,0
DA:94,0
DA:95,0
DA:96,0
DA:97,0
DA:98,0
DA:99,0
DA:100,0
DA:101,0
DA:102,0
DA:103,0
DA:104,0
DA:106,0
DA:108,0
DA:109,0
DA:110,0
DA:111,0
DA:113,0
DA:114,0
DA:115,0
DA:116,0
DA:117,0
DA:118,0
DA:119,0
DA:120,0
DA:123,0
DA:124,0
DA:128,0
DA:129,0
DA:130,0
DA:131,0
DA:132,0
DA:133,0
DA:134,0
DA:135,0
DA:136,0
DA:137,0
DA:138,0
DA:139,0
DA:140,0
DA:141,0
DA:142,0
DA:143,0
DA:144,0
DA:145,0
DA:146,0
DA:147,0
DA:148,0
DA:149,0
DA:150,0
DA:151,0
DA:153,0
DA:154,0
DA:155,0
DA:156,0
DA:157,0
DA:158,0
DA:159,0
DA:160,0
DA:161,0
DA:162,0
DA:163,0
DA:164,0
DA:165,0
DA:166,0
DA:169,0
DA:170,0
DA:171,0
DA:172,0
DA:173,0
DA:174,0
DA:175,0
DA:176,0
DA:177,0
DA:178,0
DA:182,0
DA:186,0
DA:187,0
DA:188,0
DA:189,0
DA:190,0
BRF:0
BRH:0
LF:130
LH:0
end_of_record